

Microchip MPLAB XC8 Assembler V2.35 build 20211206165544 
                                                                                               Sat Aug 26 20:19:29 2023

Microchip MPLAB XC8 C Compiler v2.35 (Free license) build 20211206165544 Og1 
     1                           	processor	18F45K50
     2                           	fnconf	rparam,??,?,0
     3                           	pagewidth 120
     4                           	opt	flic
     5                           	psect	smallconst,global,reloc=2,class=SMALLCONST,delta=1,noexec
     6                           	psect	cinit,global,reloc=2,class=CODE,delta=1
     7                           	psect	bssCOMRAM,global,class=COMRAM,space=1,delta=1,lowdata,noexec
     8                           	psect	bssBANK0,global,class=BANK0,space=1,delta=1,lowdata,noexec
     9                           	psect	bssBANK1,global,class=BANK1,space=1,delta=1,lowdata,noexec
    10                           	psect	cstackBANK1,global,class=BANK1,space=1,delta=1,lowdata,noexec
    11                           	psect	cstackBANK0,global,class=BANK0,space=1,delta=1,lowdata,noexec
    12                           	psect	cstackCOMRAM,global,class=COMRAM,space=1,delta=1,lowdata,noexec
    13                           	psect	text0,global,reloc=2,class=CODE,delta=1
    14                           	psect	text1,global,reloc=2,class=CODE,delta=1,group=3
    15                           	psect	text2,global,reloc=2,class=CODE,delta=1,group=1
    16                           	psect	text3,global,reloc=2,class=CODE,delta=1,group=1
    17                           	psect	text4,global,reloc=2,class=CODE,delta=1,group=1
    18                           	psect	text5,global,reloc=2,class=CODE,delta=1,group=1
    19                           	psect	text6,global,reloc=2,class=CODE,delta=1,group=3
    20                           	psect	text7,global,reloc=2,class=CODE,delta=1,group=3
    21                           	psect	text8,global,reloc=2,class=CODE,delta=1,group=3
    22                           	psect	text9,global,reloc=2,class=CODE,delta=1,group=3
    23                           	psect	text10,global,reloc=2,class=CODE,delta=1,group=3
    24                           	psect	text11,global,reloc=2,class=CODE,delta=1,group=2
    25                           	psect	text12,global,reloc=2,class=CODE,delta=1,group=2
    26                           	psect	text13,global,reloc=2,class=CODE,delta=1
    27                           	psect	text14,global,reloc=2,class=CODE,delta=1
    28                           	psect	text15,global,reloc=2,class=CODE,delta=1
    29                           	psect	text16,global,reloc=2,class=CODE,delta=1,group=3
    30                           	psect	text17,global,reloc=2,class=CODE,delta=1
    31                           	psect	text18,global,reloc=2,class=CODE,delta=1
    32                           	psect	text19,global,reloc=2,class=CODE,delta=1
    33                           	psect	text20,global,reloc=2,class=CODE,delta=1
    34                           	psect	text21,global,reloc=2,class=CODE,delta=1
    35                           	psect	text22,global,reloc=2,class=CODE,delta=1
    36                           	psect	intcode,global,reloc=2,class=CODE,delta=1
    37                           	psect	text24,global,reloc=2,class=CODE,delta=1
    38                           	psect	text25,global,reloc=2,class=CODE,delta=1
    39                           	psect	text26,global,reloc=2,class=CODE,delta=1
    40                           	psect	text27,global,reloc=2,class=CODE,delta=1
    41                           	psect	text28,global,reloc=2,class=CODE,delta=1
    42                           	psect	text29,global,reloc=2,class=CODE,delta=1
    43                           	psect	text30,global,reloc=2,class=CODE,delta=1
    44                           	psect	text31,global,reloc=2,class=CODE,delta=1,group=3
    45                           	psect	text32,global,reloc=2,class=CODE,delta=1
    46                           	psect	text33,global,reloc=2,class=CODE,delta=1
    47                           	psect	text34,global,reloc=2,class=CODE,delta=1
    48                           	psect	text35,global,reloc=2,class=CODE,delta=1
    49                           	psect	text36,global,reloc=2,class=CODE,delta=1
    50                           	psect	text37,global,reloc=2,class=CODE,delta=1
    51                           	psect	text38,global,reloc=2,class=CODE,delta=1
    52                           	psect	text39,global,reloc=2,class=CODE,delta=1
    53                           	psect	text40,global,reloc=2,class=CODE,delta=1
    54                           	psect	text41,global,reloc=2,class=CODE,delta=1
    55                           	psect	text42,global,reloc=2,class=CODE,delta=1
    56                           	psect	text43,global,reloc=2,class=CODE,delta=1
    57                           	psect	text44,global,reloc=2,class=CODE,delta=1
    58                           	psect	text45,global,reloc=2,class=CODE,delta=1
    59                           	psect	text46,global,reloc=2,class=CODE,delta=1
    60                           	psect	text47,global,reloc=2,class=CODE,delta=1
    61                           	psect	text48,global,reloc=2,class=CODE,delta=1
    62                           	psect	text49,global,reloc=2,class=CODE,delta=1
    63                           	psect	text50,global,reloc=2,class=CODE,delta=1
    64                           	psect	text51,global,reloc=2,class=CODE,delta=1
    65                           	psect	intsave_regs,global,class=BIGRAM,space=1,delta=1,noexec
    66                           	psect	rparam,global,class=COMRAM,space=1,delta=1,noexec
    67                           	psect	temp,global,ovrld,common,class=COMRAM,space=1,delta=1
    68                           	psect	idloc,global,abs,ovrld,class=IDLOC,space=5,delta=1,noexec
    69                           	psect	config,global,abs,ovrld,class=CONFIG,space=4,delta=1,noexec
    70                           	dabs	1,0x400,48,_BDT
    71                           	dabs	1,0x500,64,_cdc_data_tx
    72                           	dabs	1,0x438,8,_CtrlTrfData
    73                           	dabs	1,0x430,8,_SetupPkt
    74                           	dabs	1,0x540,64,_cdc_data_rx
    75  0000                     
    76                           ; Version 2.35
    77                           ; Generated 05/05/2021 GMT
    78                           ; 
    79                           ; Copyright © 2021, Microchip Technology Inc. and its subsidiaries ("Microchip")
    80                           ; All rights reserved.
    81                           ; 
    82                           ; This software is developed by Microchip Technology Inc. and its subsidiaries ("Microch
      +                          ip").
    83                           ; 
    84                           ; Redistribution and use in source and binary forms, with or without modification, are
    85                           ; permitted provided that the following conditions are met:
    86                           ; 
    87                           ;     1. Redistributions of source code must retain the above copyright notice, this lis
      +                          t of
    88                           ;        conditions and the following disclaimer.
    89                           ; 
    90                           ;     2. Redistributions in binary form must reproduce the above copyright notice, this 
      +                          list
    91                           ;        of conditions and the following disclaimer in the documentation and/or other
    92                           ;        materials provided with the distribution. Publication is not required when
    93                           ;        this file is used in an embedded application.
    94                           ; 
    95                           ;     3. Microchip's name may not be used to endorse or promote products derived from th
      +                          is
    96                           ;        software without specific prior written permission.
    97                           ; 
    98                           ; THIS SOFTWARE IS PROVIDED BY MICROCHIP "AS IS" AND ANY EXPRESS OR IMPLIED WARRANTIES,
    99                           ; INCLUDING, BUT NOT LIMITED TO, THE IMPLIED WARRANTIES OF MERCHANTABILITY AND FITNESS F
      +                          OR
   100                           ; PURPOSE ARE DISCLAIMED.  IN NO EVENT SHALL MICROCHIP BE LIABLE FOR ANY DIRECT, INDIREC
      +                          T,
   101                           ; INCIDENTAL, SPECIAL, EXEMPLARY, OR CONSEQUENTIAL DAMAGES (INCLUDING BUT NOT LIMITED TO
   102                           ; PROCUREMENT OF SUBSTITUTE GOODS OR SERVICES; LOSS OF USE, DATA OR PROFITS; OR BUSINESS
   103                           ; INTERRUPTION) HOWSOEVER CAUSED AND ON ANY THEORY OF LIABILITY, WHETHER IN CONTRACT, ST
      +                          RICT
   104                           ; LIABILITY, OR TORT (INCLUDING NEGLIGENCE OR OTHERWISE) ARISING IN ANY WAY OUT OF THE U
      +                          SE OF
   105                           ; THIS SOFTWARE, EVEN IF ADVISED OF THE POSSIBILITY OF SUCH DAMAGE.
   106                           ; 
   107                           ; 
   108                           ; Code-generator required, PIC18F45K50 Definitions
   109                           ; 
   110                           ; SFR Addresses
   111  0000                     
   112 ;; Function _wr1RegCompleteHandler is unused but had its address taken
   113  0000                     
   114 ;; Function _rd1RegCompleteHandler is unused but had its address taken
   115  0000                     
   116 ;; Function _rd2RegCompleteHandler is unused but had its address taken
   117  0000                     
   118 ;; Function _wr2RegCompleteHandler is unused but had its address taken
   119  0000                     
   120 ;; Function _rdBlkRegCompleteHandler is unused but had its address taken
   121  0000                     
   122 ;; Function _rd1RegCompleteHandler@i2c1_master_example$F145 is unused but had its address taken
   123  0000                     
   124 ;; Function _rd2RegCompleteHandler@i2c1_master_example$F156 is unused but had its address taken
   125  0000                     
   126 ;; Function _wr1RegCompleteHandler@i2c1_master_example$F162 is unused but had its address taken
   127  0000                     
   128 ;; Function _wr2RegCompleteHandler@i2c1_master_example$F168 is unused but had its address taken
   129  0000                     
   130 ;; Function _rdBlkRegCompleteHandler@i2c1_master_example$F179 is unused but had its address taken
   131  0000                     
   132 ;; Function _I2C1_DO_IDLE is unused but had its address taken
   133  0000                     
   134 ;; Function _I2C1_DO_SEND_ADR_READ is unused but had its address taken
   135  0000                     
   136 ;; Function _I2C1_DO_SEND_ADR_WRITE is unused but had its address taken
   137  0000                     
   138 ;; Function _I2C1_DO_TX is unused but had its address taken
   139  0000                     
   140 ;; Function _I2C1_DO_RX is unused but had its address taken
   141  0000                     
   142 ;; Function _I2C1_DO_RCEN is unused but had its address taken
   143  0000                     
   144 ;; Function _I2C1_DO_TX_EMPTY is unused but had its address taken
   145  0000                     
   146 ;; Function _I2C1_DO_SEND_RESTART_READ is unused but had its address taken
   147  0000                     
   148 ;; Function _I2C1_DO_SEND_RESTART_WRITE is unused but had its address taken
   149  0000                     
   150 ;; Function _I2C1_DO_SEND_RESTART is unused but had its address taken
   151  0000                     
   152 ;; Function _I2C1_DO_SEND_STOP is unused but had its address taken
   153  0000                     
   154 ;; Function _I2C1_DO_RX_ACK is unused but had its address taken
   155  0000                     
   156 ;; Function _I2C1_DO_RX_NACK_STOP is unused but had its address taken
   157  0000                     
   158 ;; Function _I2C1_DO_RX_NACK_RESTART is unused but had its address taken
   159  0000                     
   160 ;; Function _I2C1_DO_RESET is unused but had its address taken
   161  0000                     
   162 ;; Function _I2C1_DO_ADDRESS_NACK is unused but had its address taken
   163  0000                     
   164 ;; Function _I2C1_CallbackReturnStop is unused but had its address taken
   165  0000                     
   166 ;; Function _I2C1_CallbackReturnReset is unused but had its address taken
   167  0000                     
   168                           	psect	smallconst
   169  000800                     __psmallconst:
   170                           	callstack 0
   171  000800  00                 	db	0
   172  000801                     _i2c1_fsmStateTable:
   173                           	callstack 0
   174  000801  00                 	db	0
   175  000802  00                 	db	0
   176  000803  00                 	db	0
   177  000804  00                 	db	0
   178  000805  00                 	db	0
   179  000806  00                 	db	0
   180  000807  00                 	db	0
   181  000808  00                 	db	0
   182  000809  00                 	db	0
   183  00080A  00                 	db	0
   184  00080B  00                 	db	0
   185  00080C  00                 	db	0
   186  00080D  00                 	db	0
   187  00080E  00                 	db	0
   188  00080F  00                 	db	0
   189  000810  00                 	db	0
   190  000811  00                 	db	0
   191  000812  00                 	db	0
   192  000813  00                 	db	0
   193  000814  00                 	db	0
   194  000815  00                 	db	0
   195  000816  00                 	db	0
   196  000817  00                 	db	0
   197  000818  00                 	db	0
   198  000819  00                 	db	0
   199  00081A  00                 	db	0
   200  00081B  00                 	db	0
   201  00081C  00                 	db	0
   202  00081D  00                 	db	0
   203  00081E  00                 	db	0
   204  00081F  00                 	db	0
   205  000820  00                 	db	0
   206  000821                     __end_of_i2c1_fsmStateTable:
   207                           	callstack 0
   208  000821                     _USB_SD_Ptr:
   209                           	callstack 0
   210  000821  CC                 	db	low _sd000
   211  000822  08                 	db	high _sd000
   212  000823  6C                 	db	low _sd001
   213  000824  08                 	db	high _sd001
   214  000825  A0                 	db	low _sd002
   215  000826  08                 	db	high _sd002
   216  000827                     __end_of_USB_SD_Ptr:
   217                           	callstack 0
   218  000827                     _USB_CD_Ptr:
   219                           	callstack 0
   220  000827  29                 	db	low _configDescriptor1
   221  000828  08                 	db	high _configDescriptor1
   222  000829                     __end_of_USB_CD_Ptr:
   223                           	callstack 0
   224  000829                     _configDescriptor1:
   225                           	callstack 0
   226  000829  09                 	db	9
   227  00082A  02                 	db	2
   228  00082B  43                 	db	67
   229  00082C  00                 	db	0
   230  00082D  02                 	db	2
   231  00082E  01                 	db	1
   232  00082F  00                 	db	0
   233  000830  C0                 	db	192
   234  000831  32                 	db	50
   235  000832  09                 	db	9
   236  000833  04                 	db	4
   237  000834  00                 	db	0
   238  000835  00                 	db	0
   239  000836  01                 	db	1
   240  000837  02                 	db	2
   241  000838  02                 	db	2
   242  000839  01                 	db	1
   243  00083A  00                 	db	0
   244  00083B  05                 	db	5
   245  00083C  24                 	db	36
   246  00083D  00                 	db	0
   247  00083E  10                 	db	16
   248  00083F  01                 	db	1
   249  000840  04                 	db	4
   250  000841  24                 	db	36
   251  000842  02                 	db	2
   252  000843  02                 	db	2
   253  000844  05                 	db	5
   254  000845  24                 	db	36
   255  000846  06                 	db	6
   256  000847  00                 	db	0
   257  000848  01                 	db	1
   258  000849  05                 	db	5
   259  00084A  24                 	db	36
   260  00084B  01                 	db	1
   261  00084C  00                 	db	0
   262  00084D  01                 	db	1
   263  00084E  07                 	db	7
   264  00084F  05                 	db	5
   265  000850  81                 	db	129
   266  000851  03                 	db	3
   267  000852  0A                 	db	10
   268  000853  00                 	db	0
   269  000854  02                 	db	2
   270  000855  09                 	db	9
   271  000856  04                 	db	4
   272  000857  01                 	db	1
   273  000858  00                 	db	0
   274  000859  02                 	db	2
   275  00085A  0A                 	db	10
   276  00085B  00                 	db	0
   277  00085C  00                 	db	0
   278  00085D  00                 	db	0
   279  00085E  07                 	db	7
   280  00085F  05                 	db	5
   281  000860  02                 	db	2
   282  000861  02                 	db	2
   283  000862  40                 	db	64
   284  000863  00                 	db	0
   285  000864  00                 	db	0
   286  000865  07                 	db	7
   287  000866  05                 	db	5
   288  000867  82                 	db	130
   289  000868  02                 	db	2
   290  000869  40                 	db	64
   291  00086A  00                 	db	0
   292  00086B  00                 	db	0
   293  00086C                     __end_of_configDescriptor1:
   294                           	callstack 0
   295  00086C                     _sd001:
   296                           	callstack 0
   297  00086C  34                 	db	52
   298  00086D  03                 	db	3
   299  00086E  004D               	dw	77
   300  000870  0069               	dw	105
   301  000872  0063               	dw	99
   302  000874  0072               	dw	114
   303  000876  006F               	dw	111
   304  000878  0063               	dw	99
   305  00087A  0068               	dw	104
   306  00087C  0069               	dw	105
   307  00087E  0070               	dw	112
   308  000880  0020               	dw	32
   309  000882  0054               	dw	84
   310  000884  0065               	dw	101
   311  000886  0063               	dw	99
   312  000888  0068               	dw	104
   313  00088A  006E               	dw	110
   314  00088C  006F               	dw	111
   315  00088E  006C               	dw	108
   316  000890  006F               	dw	111
   317  000892  0067               	dw	103
   318  000894  0079               	dw	121
   319  000896  0020               	dw	32
   320  000898  0049               	dw	73
   321  00089A  006E               	dw	110
   322  00089C  0063               	dw	99
   323  00089E  002E               	dw	46
   324  0008A0                     __end_of_sd001:
   325                           	callstack 0
   326  0008A0                     _sd002:
   327                           	callstack 0
   328  0008A0  1A                 	db	26
   329  0008A1  03                 	db	3
   330  0008A2  0050               	dw	80
   331  0008A4  0072               	dw	114
   332  0008A6  006F               	dw	111
   333  0008A8  0064               	dw	100
   334  0008AA  0075               	dw	117
   335  0008AC  0063               	dw	99
   336  0008AE  0074               	dw	116
   337  0008B0  0020               	dw	32
   338  0008B2  004E               	dw	78
   339  0008B4  0061               	dw	97
   340  0008B6  006D               	dw	109
   341  0008B8  0065               	dw	101
   342  0008BA                     __end_of_sd002:
   343                           	callstack 0
   344  0008BA                     _device_dsc:
   345                           	callstack 0
   346  0008BA  12                 	db	18
   347  0008BB  01                 	db	1
   348  0008BC  0200               	dw	512
   349  0008BE  02                 	db	2
   350  0008BF  00                 	db	0
   351  0008C0  00                 	db	0
   352  0008C1  08                 	db	8
   353  0008C2  04D8               	dw	1240
   354  0008C4  000A               	dw	10
   355  0008C6  0100               	dw	256
   356  0008C8  01                 	db	1
   357  0008C9  02                 	db	2
   358  0008CA  00                 	db	0
   359  0008CB  01                 	db	1
   360  0008CC                     __end_of_device_dsc:
   361                           	callstack 0
   362  0008CC                     _sd000:
   363                           	callstack 0
   364  0008CC  04                 	db	4
   365  0008CD  03                 	db	3
   366  0008CE  0409               	dw	1033
   367  0008D0                     __end_of_sd000:
   368                           	callstack 0
   369  0000                     _ANSELE	set	3935
   370  0000                     _TRISD	set	3989
   371  0000                     _TRISC	set	3988
   372  0000                     _TRISB	set	3987
   373  0000                     _LATC	set	3979
   374  0000                     _LATB	set	3978
   375  0000                     _USTAT	set	3937
   376  0000                     _UADDR	set	3939
   377  0000                     _UIE	set	3940
   378  0000                     _UEIE	set	3942
   379  0000                     _LATDbits	set	3980
   380  0000                     _SSP1STATbits	set	4039
   381  0000                     _SSP1CON2bits	set	4037
   382  0000                     _SSP1CON1bits	set	4038
   383  0000                     _UEP0bits	set	3946
   384  0000                     _UCON	set	3936
   385  0000                     _UIEbits	set	3940
   386  0000                     _UIRbits	set	3941
   387  0000                     _PLLRDY	set	32407
   388  0000                     _ANSELA	set	3931
   389  0000                     _ANSELB	set	3932
   390  0000                     _ANSELC	set	3933
   391  0000                     _ANSELD	set	3934
   392  0000                     _UCONbits	set	3936
   393  0000                     _UCFG	set	3938
   394  0000                     _UIR	set	3941
   395  0000                     _UEIR	set	3943
   396  0000                     _PIE3bits	set	4003
   397  0000                     _ACTCON	set	4021
   398  0000                     _OSCCON2	set	4050
   399  0000                     _OSCCON	set	4051
   400  0000                     _IPR3bits	set	4005
   401  0000                     _PIR3bits	set	4004
   402  0000                     _UEP0	set	3946
   403  0000                     _WPUB	set	3973
   404  0000                     _LATA	set	3977
   405  0000                     _LATD	set	3980
   406  0000                     _LATE	set	3981
   407  0000                     _OSCTUNE	set	3995
   408  0000                     _UEP1	set	3947
   409  0000                     _INTCON2bits	set	4081
   410  0000                     _PIE1bits	set	3997
   411  0000                     _PIR2bits	set	4001
   412  0000                     _SSP1CON2	set	4037
   413  0000                     _SSP1CON1	set	4038
   414  0000                     _SSP1STAT	set	4039
   415  0000                     _RCONbits	set	4048
   416  0000                     _TRISA	set	3986
   417  0000                     _TRISE	set	3990
   418  0000                     _INTCONbits	set	4082
   419  0000                     _SSP1BUF	set	4041
   420  0000                     _SSP1ADD	set	4040
   421  0000                     _PIR1bits	set	3998
   422  0008D0                     STR_1:
   423                           
   424                           ; BSR set to: 0
   425  0008D0  63                 	db	99	;'c'
   426  0008D1  6F                 	db	111	;'o'
   427  0008D2  75                 	db	117	;'u'
   428  0008D3  6E                 	db	110	;'n'
   429  0008D4  74                 	db	116	;'t'
   430  0008D5  65                 	db	101	;'e'
   431  0008D6  72                 	db	114	;'r'
   432  0008D7  3A                 	db	58	;':'
   433  0008D8  20                 	db	32
   434  0008D9  25                 	db	37
   435  0008DA  64                 	db	100	;'d'
   436  0008DB  0D                 	db	13
   437  0008DC  0A                 	db	10
   438  0008DD  00                 	db	0
   439  0008DE  00                 	db	0	; dummy byte at the end
   440  0000                     
   441                           ; #config settings
   442                           
   443                           	psect	cinit
   444  0034FE                     __pcinit:
   445                           	callstack 0
   446  0034FE                     start_initialization:
   447                           	callstack 0
   448  0034FE                     __initialization:
   449                           	callstack 0
   450                           
   451                           ; Clear objects allocated to BANK1 (97 bytes)
   452  0034FE  EE01  F000         	lfsr	0,__pbssBANK1
   453  003502  0E61               	movlw	97
   454  003504                     clear_0:
   455  003504  6AEE               	clrf	postinc0,c
   456  003506  06E8               	decf	wreg,f,c
   457  003508  E1FD               	bnz	clear_0
   458                           
   459                           ; Clear objects allocated to BANK0 (42 bytes)
   460  00350A  EE00  F0CC         	lfsr	0,__pbssBANK0
   461  00350E  0E2A               	movlw	42
   462  003510                     clear_1:
   463  003510  6AEE               	clrf	postinc0,c
   464  003512  06E8               	decf	wreg,f,c
   465  003514  E1FD               	bnz	clear_1
   466                           
   467                           ; Clear objects allocated to COMRAM (41 bytes)
   468  003516  EE00  F02C         	lfsr	0,__pbssCOMRAM
   469  00351A  0E29               	movlw	41
   470  00351C                     clear_2:
   471  00351C  6AEE               	clrf	postinc0,c
   472  00351E  06E8               	decf	wreg,f,c
   473  003520  E1FD               	bnz	clear_2
   474  003522                     end_of_initialization:
   475                           	callstack 0
   476  003522                     __end_of__initialization:
   477                           	callstack 0
   478  003522  9055               	bcf	int$flags,0,c	;clear compiler interrupt flag (level 1)
   479  003524  9255               	bcf	int$flags,1,c	;clear compiler interrupt flag (level 2)
   480  003526  0E00               	movlw	low (__Lmediumconst shr (0+16))
   481  003528  6EF8               	movwf	tblptru,c
   482  00352A  0100               	movlb	0
   483  00352C  EF2A  F016         	goto	_main	;jump to C main() function
   484                           
   485                           	psect	bssCOMRAM
   486  00002C                     __pbssCOMRAM:
   487                           	callstack 0
   488  00002C                     _USB1msTickCount:
   489                           	callstack 0
   490  00002C                     	ds	4
   491  000030                     _pCDCDst:
   492                           	callstack 0
   493  000030                     	ds	3
   494  000033                     _pCDCSrc:
   495                           	callstack 0
   496  000033                     	ds	3
   497  000036                     _nout:
   498                           	callstack 0
   499  000036                     	ds	2
   500  000038                     _width:
   501                           	callstack 0
   502  000038                     	ds	2
   503  00003A                     _CDCDataOutHandle:
   504                           	callstack 0
   505  00003A                     	ds	2
   506  00003C                     _pDst:
   507                           	callstack 0
   508  00003C                     	ds	2
   509  00003E                     _pBDTEntryEP0OutNext:
   510                           	callstack 0
   511  00003E                     	ds	2
   512  000040                     _pBDTEntryEP0OutCurrent:
   513                           	callstack 0
   514  000040                     	ds	2
   515  000042                     _control_signal_bitmap:
   516                           	callstack 0
   517  000042                     	ds	1
   518  000043                     _cdc_trf_state:
   519                           	callstack 0
   520  000043                     	ds	1
   521  000044                     _cdc_rx_len:
   522                           	callstack 0
   523  000044                     	ds	1
   524  000045                     _USBDeferOUTDataStagePackets:
   525                           	callstack 0
   526  000045                     	ds	1
   527  000046                     _USBDeferINDataStagePackets:
   528                           	callstack 0
   529  000046                     	ds	1
   530  000047                     _USBStatusStageEnabledFlag2:
   531                           	callstack 0
   532  000047                     	ds	1
   533  000048                     _USBStatusStageEnabledFlag1:
   534                           	callstack 0
   535  000048                     	ds	1
   536  000049                     _USBDeferStatusStagePacket:
   537                           	callstack 0
   538  000049                     	ds	1
   539  00004A                     _USBStatusStageTimeoutCounter:
   540                           	callstack 0
   541  00004A                     	ds	1
   542  00004B                     _BothEP0OutUOWNsSet:
   543                           	callstack 0
   544  00004B                     	ds	1
   545  00004C                     _endpoint_number:
   546                           	callstack 0
   547  00004C                     	ds	1
   548  00004D                     _RemoteWakeup:
   549                           	callstack 0
   550  00004D                     	ds	1
   551  00004E                     _controlTransferState:
   552                           	callstack 0
   553  00004E                     	ds	1
   554  00004F                     _shortPacketStatus:
   555                           	callstack 0
   556  00004F                     	ds	1
   557  000050                     _USBDeviceState:
   558                           	callstack 0
   559  000050                     	ds	1
   560  000051                     _USBAlternateInterface:
   561                           	callstack 0
   562  000051                     	ds	2
   563  000053                     _USTATcopy:
   564                           	callstack 0
   565  000053                     	ds	1
   566  000054                     _USBActiveConfiguration:
   567                           	callstack 0
   568  000054                     	ds	1
   569                           
   570                           	psect	bssBANK0
   571  0000CC                     __pbssBANK0:
   572                           	callstack 0
   573  0000CC                     _outPipes:
   574                           	callstack 0
   575  0000CC                     	ds	8
   576  0000D4                     _inPipes:
   577                           	callstack 0
   578  0000D4                     	ds	6
   579  0000DA                     _pBDTEntryIn:
   580                           	callstack 0
   581  0000DA                     	ds	6
   582  0000E0                     _pBDTEntryOut:
   583                           	callstack 0
   584  0000E0                     	ds	6
   585  0000E6                     _ep_data_out:
   586                           	callstack 0
   587  0000E6                     	ds	3
   588  0000E9                     _ep_data_in:
   589                           	callstack 0
   590  0000E9                     	ds	3
   591  0000EC                     _prec:
   592                           	callstack 0
   593  0000EC                     	ds	2
   594  0000EE                     _flags:
   595                           	callstack 0
   596  0000EE                     	ds	2
   597  0000F0                     _CDCDataInHandle:
   598                           	callstack 0
   599  0000F0                     	ds	2
   600  0000F2                     _cdc_mem_type:
   601                           	callstack 0
   602  0000F2                     	ds	1
   603  0000F3                     _cdc_tx_len:
   604                           	callstack 0
   605  0000F3                     	ds	1
   606  0000F4                     _USBTicksSinceSuspendEnd:
   607                           	callstack 0
   608  0000F4                     	ds	1
   609  0000F5                     _USBBusIsSuspended:
   610                           	callstack 0
   611  0000F5                     	ds	1
   612                           
   613                           	psect	bssBANK1
   614  000100                     __pbssBANK1:
   615                           	callstack 0
   616  000100                     _I2C1_Status:
   617                           	callstack 0
   618  000100                     	ds	36
   619  000124                     _cdc_notice:
   620                           	callstack 0
   621  000124                     	ds	10
   622  00012E                     _BaudRateGen:
   623                           	callstack 0
   624  00012E                     	ds	4
   625  000132                     _dbuf:
   626                           	callstack 0
   627  000132                     	ds	32
   628  000152                     _dummy_encapsulated_cmd_response:
   629                           	callstack 0
   630  000152                     	ds	8
   631  00015A                     _line_coding:
   632                           	callstack 0
   633  00015A                     	ds	7
   634                           
   635                           	psect	cstackBANK1
   636  000161                     __pcstackBANK1:
   637                           	callstack 0
   638  000161                     main@data2:
   639                           	callstack 0
   640                           
   641                           ; 20 bytes @ 0x0
   642  000161                     	ds	20
   643  000175                     main@counter:
   644                           	callstack 0
   645                           
   646                           ; 1 bytes @ 0x14
   647  000175                     	ds	1
   648                           
   649                           	psect	cstackBANK0
   650  000060                     __pcstackBANK0:
   651                           	callstack 0
   652  000060                     ?_USBTransferOnePacket:
   653                           	callstack 0
   654  000060                     ?_strlen:
   655                           	callstack 0
   656  000060                     ?___aodiv:
   657                           	callstack 0
   658  000060                     ?___aomod:
   659                           	callstack 0
   660  000060                     USBTransferOnePacket@dir:
   661                           	callstack 0
   662  000060                     putsUSBUSART@data:
   663                           	callstack 0
   664  000060                     memset@dest:
   665                           	callstack 0
   666  000060                     fputc@c:
   667                           	callstack 0
   668  000060                     strlen@s:
   669                           	callstack 0
   670  000060                     ___aodiv@dividend:
   671                           	callstack 0
   672  000060                     ___aomod@dividend:
   673                           	callstack 0
   674                           
   675                           ; 8 bytes @ 0x0
   676  000060                     	ds	1
   677  000061                     USBTransferOnePacket@data:
   678                           	callstack 0
   679                           
   680                           ; 2 bytes @ 0x1
   681  000061                     	ds	1
   682  000062                     putsUSBUSART@pData:
   683                           	callstack 0
   684  000062                     memset@c:
   685                           	callstack 0
   686  000062                     fputc@fp:
   687                           	callstack 0
   688  000062                     strlen@a:
   689                           	callstack 0
   690                           
   691                           ; 2 bytes @ 0x2
   692  000062                     	ds	1
   693  000063                     USBTransferOnePacket@len:
   694                           	callstack 0
   695                           
   696                           ; 1 bytes @ 0x3
   697  000063                     	ds	1
   698  000064                     ??_USBTransferOnePacket:
   699  000064                     ??_fputc:
   700  000064                     putsUSBUSART@len:
   701                           	callstack 0
   702  000064                     memset@n:
   703                           	callstack 0
   704                           
   705                           ; 2 bytes @ 0x4
   706  000064                     	ds	2
   707  000066                     ??_memset:
   708                           
   709                           ; 1 bytes @ 0x6
   710  000066                     	ds	2
   711  000068                     USBTransferOnePacket@ep:
   712                           	callstack 0
   713  000068                     memset@k:
   714                           	callstack 0
   715  000068                     ___aodiv@divisor:
   716                           	callstack 0
   717  000068                     ___aomod@divisor:
   718                           	callstack 0
   719                           
   720                           ; 8 bytes @ 0x8
   721  000068                     	ds	1
   722  000069                     USBTransferOnePacket@handle:
   723                           	callstack 0
   724  000069                     fputs@s:
   725                           	callstack 0
   726                           
   727                           ; 2 bytes @ 0x9
   728  000069                     	ds	1
   729  00006A                     memset@s:
   730                           	callstack 0
   731                           
   732                           ; 2 bytes @ 0xA
   733  00006A                     	ds	1
   734  00006B                     CDCTxService@i:
   735                           	callstack 0
   736  00006B                     fputs@fp:
   737                           	callstack 0
   738                           
   739                           ; 2 bytes @ 0xB
   740  00006B                     	ds	1
   741  00006C                     USBDeviceInit@i:
   742                           	callstack 0
   743  00006C                     CDCTxService@byte_to_send:
   744                           	callstack 0
   745                           
   746                           ; 1 bytes @ 0xC
   747  00006C                     	ds	1
   748  00006D                     fputs@c:
   749                           	callstack 0
   750                           
   751                           ; 1 bytes @ 0xD
   752  00006D                     	ds	1
   753  00006E                     fputs@i:
   754                           	callstack 0
   755                           
   756                           ; 2 bytes @ 0xE
   757  00006E                     	ds	2
   758  000070                     ?_pad:
   759                           	callstack 0
   760  000070                     ___aodiv@counter:
   761                           	callstack 0
   762  000070                     ___aomod@counter:
   763                           	callstack 0
   764  000070                     pad@fp:
   765                           	callstack 0
   766                           
   767                           ; 2 bytes @ 0x10
   768  000070                     	ds	1
   769  000071                     ___aodiv@sign:
   770                           	callstack 0
   771  000071                     ___aomod@sign:
   772                           	callstack 0
   773                           
   774                           ; 1 bytes @ 0x11
   775  000071                     	ds	1
   776  000072                     ?_abs:
   777                           	callstack 0
   778  000072                     pad@buf:
   779                           	callstack 0
   780  000072                     abs@a:
   781                           	callstack 0
   782  000072                     ___aodiv@quotient:
   783                           	callstack 0
   784                           
   785                           ; 8 bytes @ 0x12
   786  000072                     	ds	2
   787  000074                     ??_abs:
   788  000074                     pad@p:
   789                           	callstack 0
   790                           
   791                           ; 2 bytes @ 0x14
   792  000074                     	ds	2
   793  000076                     ??_pad:
   794                           
   795                           ; 1 bytes @ 0x16
   796  000076                     	ds	1
   797  000077                     pad@i:
   798                           	callstack 0
   799                           
   800                           ; 2 bytes @ 0x17
   801  000077                     	ds	2
   802  000079                     pad@w:
   803                           	callstack 0
   804                           
   805                           ; 2 bytes @ 0x19
   806  000079                     	ds	2
   807  00007B                     ?_dtoa:
   808                           	callstack 0
   809  00007B                     dtoa@fp:
   810                           	callstack 0
   811                           
   812                           ; 2 bytes @ 0x1B
   813  00007B                     	ds	2
   814  00007D                     dtoa@d:
   815                           	callstack 0
   816                           
   817                           ; 8 bytes @ 0x1D
   818  00007D                     	ds	8
   819  000085                     ??_dtoa:
   820                           
   821                           ; 1 bytes @ 0x25
   822  000085                     	ds	8
   823  00008D                     _dtoa$4169:
   824                           	callstack 0
   825                           
   826                           ; 2 bytes @ 0x2D
   827  00008D                     	ds	2
   828  00008F                     dtoa@p:
   829                           	callstack 0
   830                           
   831                           ; 2 bytes @ 0x2F
   832  00008F                     	ds	2
   833  000091                     dtoa@w:
   834                           	callstack 0
   835                           
   836                           ; 2 bytes @ 0x31
   837  000091                     	ds	2
   838  000093                     dtoa@s:
   839                           	callstack 0
   840                           
   841                           ; 2 bytes @ 0x33
   842  000093                     	ds	2
   843  000095                     dtoa@n:
   844                           	callstack 0
   845                           
   846                           ; 8 bytes @ 0x35
   847  000095                     	ds	8
   848  00009D                     dtoa@i:
   849                           	callstack 0
   850                           
   851                           ; 2 bytes @ 0x3D
   852  00009D                     	ds	2
   853  00009F                     ?_vfpfcnvrt:
   854                           	callstack 0
   855  00009F                     vfpfcnvrt@fp:
   856                           	callstack 0
   857                           
   858                           ; 2 bytes @ 0x3F
   859  00009F                     	ds	2
   860  0000A1                     vfpfcnvrt@fmt:
   861                           	callstack 0
   862                           
   863                           ; 2 bytes @ 0x41
   864  0000A1                     	ds	2
   865  0000A3                     vfpfcnvrt@ap:
   866                           	callstack 0
   867                           
   868                           ; 2 bytes @ 0x43
   869  0000A3                     	ds	2
   870  0000A5                     ??_vfpfcnvrt:
   871                           
   872                           ; 1 bytes @ 0x45
   873  0000A5                     	ds	2
   874  0000A7                     vfpfcnvrt@ll:
   875                           	callstack 0
   876                           
   877                           ; 8 bytes @ 0x47
   878  0000A7                     	ds	8
   879  0000AF                     ?_vfprintf:
   880                           	callstack 0
   881  0000AF                     vfprintf@fp:
   882                           	callstack 0
   883                           
   884                           ; 2 bytes @ 0x4F
   885  0000AF                     	ds	2
   886  0000B1                     vfprintf@fmt:
   887                           	callstack 0
   888                           
   889                           ; 2 bytes @ 0x51
   890  0000B1                     	ds	2
   891  0000B3                     vfprintf@ap:
   892                           	callstack 0
   893                           
   894                           ; 2 bytes @ 0x53
   895  0000B3                     	ds	2
   896  0000B5                     vfprintf@cfmt:
   897                           	callstack 0
   898                           
   899                           ; 2 bytes @ 0x55
   900  0000B5                     	ds	2
   901  0000B7                     ?_sprintf:
   902                           	callstack 0
   903  0000B7                     sprintf@s:
   904                           	callstack 0
   905                           
   906                           ; 2 bytes @ 0x57
   907  0000B7                     	ds	2
   908  0000B9                     sprintf@fmt:
   909                           	callstack 0
   910                           
   911                           ; 2 bytes @ 0x59
   912  0000B9                     	ds	4
   913  0000BD                     sprintf@ap:
   914                           	callstack 0
   915                           
   916                           ; 2 bytes @ 0x5D
   917  0000BD                     	ds	2
   918  0000BF                     sprintf@f:
   919                           	callstack 0
   920                           
   921                           ; 11 bytes @ 0x5F
   922  0000BF                     	ds	11
   923  0000CA                     ??_main:
   924                           
   925                           ; 1 bytes @ 0x6A
   926  0000CA                     	ds	2
   927                           
   928                           	psect	cstackCOMRAM
   929  000001                     __pcstackCOMRAM:
   930                           	callstack 0
   931  000001                     ??_USBCheckCDCRequest:
   932  000001                     ??_USBStdGetDscHandler:
   933  000001                     ??_USBStdGetStatusHandler:
   934  000001                     ?i2_USBTransferOnePacket:
   935                           	callstack 0
   936  000001                     USBConfigureEndpoint@direction:
   937                           	callstack 0
   938  000001                     USBCtrlTrfTxService@byteToSend:
   939                           	callstack 0
   940  000001                     USBCtrlTrfRxService@i:
   941                           	callstack 0
   942  000001                     i2USBTransferOnePacket@dir:
   943                           	callstack 0
   944  000001                     memcpy@d1:
   945                           	callstack 0
   946  000001                     i2memset@dest:
   947                           	callstack 0
   948                           
   949                           ; 2 bytes @ 0x0
   950  000001                     	ds	1
   951  000002                     ??_USBConfigureEndpoint:
   952  000002                     USBCtrlTrfRxService@byteToRead:
   953                           	callstack 0
   954  000002                     USBCtrlTrfInHandler@lastDTS:
   955                           	callstack 0
   956  000002                     i2USBTransferOnePacket@data:
   957                           	callstack 0
   958                           
   959                           ; 2 bytes @ 0x1
   960  000002                     	ds	1
   961  000003                     USBStdGetStatusHandler@p:
   962                           	callstack 0
   963  000003                     memcpy@s1:
   964                           	callstack 0
   965  000003                     i2memset@c:
   966                           	callstack 0
   967                           
   968                           ; 2 bytes @ 0x2
   969  000003                     	ds	1
   970  000004                     i2USBTransferOnePacket@len:
   971                           	callstack 0
   972                           
   973                           ; 1 bytes @ 0x3
   974  000004                     	ds	1
   975  000005                     ??i2_USBTransferOnePacket:
   976  000005                     memcpy@n:
   977                           	callstack 0
   978  000005                     i2memset@n:
   979                           	callstack 0
   980                           
   981                           ; 2 bytes @ 0x4
   982  000005                     	ds	1
   983  000006                     USBConfigureEndpoint@EPNum:
   984                           	callstack 0
   985                           
   986                           ; 1 bytes @ 0x5
   987  000006                     	ds	1
   988  000007                     ??i2_memset:
   989  000007                     USBConfigureEndpoint@handle:
   990                           	callstack 0
   991  000007                     memcpy@d:
   992                           	callstack 0
   993                           
   994                           ; 2 bytes @ 0x6
   995  000007                     	ds	2
   996  000009                     USBEnableEndpoint@options:
   997                           	callstack 0
   998  000009                     i2USBTransferOnePacket@ep:
   999                           	callstack 0
  1000  000009                     memcpy@s:
  1001                           	callstack 0
  1002  000009                     i2memset@k:
  1003                           	callstack 0
  1004                           
  1005                           ; 2 bytes @ 0x8
  1006  000009                     	ds	1
  1007  00000A                     USBEnableEndpoint@p:
  1008                           	callstack 0
  1009  00000A                     i2USBTransferOnePacket@handle:
  1010                           	callstack 0
  1011                           
  1012                           ; 2 bytes @ 0x9
  1013  00000A                     	ds	1
  1014  00000B                     memcpy@tmp:
  1015                           	callstack 0
  1016  00000B                     i2memset@s:
  1017                           	callstack 0
  1018                           
  1019                           ; 2 bytes @ 0xA
  1020  00000B                     	ds	1
  1021  00000C                     USBEnableEndpoint@ep:
  1022                           	callstack 0
  1023                           
  1024                           ; 1 bytes @ 0xB
  1025  00000C                     	ds	1
  1026  00000D                     i2USBDeviceInit@i:
  1027                           	callstack 0
  1028  00000D                     USER_USB_CALLBACK_EVENT_HANDLER@event:
  1029                           	callstack 0
  1030                           
  1031                           ; 2 bytes @ 0xC
  1032  00000D                     	ds	2
  1033  00000F                     USER_USB_CALLBACK_EVENT_HANDLER@pdata:
  1034                           	callstack 0
  1035                           
  1036                           ; 2 bytes @ 0xE
  1037  00000F                     	ds	2
  1038  000011                     USER_USB_CALLBACK_EVENT_HANDLER@size:
  1039                           	callstack 0
  1040                           
  1041                           ; 2 bytes @ 0x10
  1042  000011                     	ds	2
  1043  000013                     ??_USER_USB_CALLBACK_EVENT_HANDLER:
  1044                           
  1045                           ; 1 bytes @ 0x12
  1046  000013                     	ds	2
  1047  000015                     ??_USBStdFeatureReqHandler:
  1048  000015                     USBStdSetCfgHandler@i:
  1049                           	callstack 0
  1050                           
  1051                           ; 1 bytes @ 0x14
  1052  000015                     	ds	2
  1053  000017                     USBStdFeatureReqHandler@pUEP:
  1054                           	callstack 0
  1055                           
  1056                           ; 2 bytes @ 0x16
  1057  000017                     	ds	2
  1058  000019                     USBStdFeatureReqHandler@current_ep_data:
  1059                           	callstack 0
  1060                           
  1061                           ; 1 bytes @ 0x18
  1062  000019                     	ds	1
  1063  00001A                     USBStdFeatureReqHandler@p:
  1064                           	callstack 0
  1065                           
  1066                           ; 2 bytes @ 0x19
  1067  00001A                     	ds	2
  1068  00001C                     ??_USBCheckStdRequest:
  1069                           
  1070                           ; 1 bytes @ 0x1B
  1071  00001C                     	ds	2
  1072  00001E                     ??_USBCtrlEPService:
  1073  00001E                     
  1074                           ; 1 bytes @ 0x1D
  1075  00001E                     	ds	1
  1076  00001F                     USBDeviceTasks@i:
  1077                           	callstack 0
  1078                           
  1079                           ; 1 bytes @ 0x1E
  1080  00001F                     	ds	1
  1081  000020                     ??_INTERRUPT_InterruptManager:
  1082                           
  1083                           ; 1 bytes @ 0x1F
  1084  000020                     	ds	12
  1085                           
  1086 ;;
  1087 ;;Main: autosize = 0, tempsize = 2, incstack = 0, save=0
  1088 ;;
  1089 ;; *************** function _main *****************
  1090 ;; Defined at:
  1091 ;;		line 47 in file "main.c"
  1092 ;; Parameters:    Size  Location     Type
  1093 ;;		None
  1094 ;; Auto vars:     Size  Location     Type
  1095 ;;  data2          20    0[BANK1 ] unsigned char [20]
  1096 ;;  counter         1   20[BANK1 ] unsigned char 
  1097 ;; Return value:  Size  Location     Type
  1098 ;;                  1    wreg      void 
  1099 ;; Registers used:
  1100 ;;		wreg, fsr1l, fsr1h, fsr2l, fsr2h, status,2, status,0, tblptrl, tblptrh, tblptru, prodl, prodh, cstack
  1101 ;; Tracked objects:
  1102 ;;		On entry : 0/0
  1103 ;;		On exit  : 0/0
  1104 ;;		Unchanged: 0/0
  1105 ;; Data sizes:     COMRAM   BANK0   BANK1   BANK2   BANK3   BANK4   BANK5   BANK6   BANK7
  1106 ;;      Params:         0       0       0       0       0       0       0       0       0
  1107 ;;      Locals:         0       0      21       0       0       0       0       0       0
  1108 ;;      Temps:          0       2       0       0       0       0       0       0       0
  1109 ;;      Totals:         0       2      21       0       0       0       0       0       0
  1110 ;;Total ram usage:       23 bytes
  1111 ;; Hardware stack levels required when called: 18
  1112 ;; This function calls:
  1113 ;;		_CDCTxService
  1114 ;;		_SYSTEM_Initialize
  1115 ;;		_putsUSBUSART
  1116 ;;		_sprintf
  1117 ;; This function is called by:
  1118 ;;		Startup code after reset
  1119 ;; This function uses a non-reentrant model
  1120 ;;
  1121                           
  1122                           	psect	text0
  1123  002C54                     __ptext0:
  1124                           	callstack 0
  1125  002C54                     _main:
  1126                           	callstack 13
  1127  002C54                     
  1128                           ;main.c: 50:     SYSTEM_Initialize();
  1129  002C54  ECBF  F01A         	call	_SYSTEM_Initialize	;wreg free
  1130  002C58                     
  1131                           ;main.c: 52:     (INTCONbits.GIE = 1);
  1132  002C58  8EF2               	bsf	242,7,c	;volatile
  1133  002C5A                     
  1134                           ;main.c: 53:     (INTCONbits.PEIE = 1);
  1135  002C5A  8CF2               	bsf	242,6,c	;volatile
  1136  002C5C                     
  1137                           ;main.c: 55:     TRISD = 0;
  1138  002C5C  0E00               	movlw	0
  1139  002C5E  6E95               	movwf	149,c	;volatile
  1140  002C60                     
  1141                           ;main.c: 56:     ANSELD = 0;
  1142  002C60  0E00               	movlw	0
  1143  002C62  010F               	movlb	15	; () banked
  1144  002C64  6F5E               	movwf	94,b	;volatile
  1145  002C66                     
  1146                           ; BSR set to: 15
  1147                           ;main.c: 57:     uint8_t counter = 0;
  1148  002C66  0E00               	movlw	0
  1149  002C68  0101               	movlb	1	; () banked
  1150  002C6A  6F75               	movwf	main@counter& (0+255),b
  1151  002C6C                     l7516:
  1152                           
  1153                           ;main.c: 61:     {;main.c: 62:         _delay((unsigned long)((100)*(48000000/4000.0)));
  1154  002C6C  0E07               	movlw	7
  1155  002C6E  0100               	movlb	0	; () banked
  1156  002C70  6FCB               	movwf	(??_main+1)& (0+255),b
  1157  002C72  0E17               	movlw	23
  1158  002C74  6FCA               	movwf	??_main& (0+255),b
  1159  002C76  0E6A               	movlw	106
  1160  002C78                     u6107:
  1161  002C78  2EE8               	decfsz	wreg,f,c
  1162  002C7A  D7FE               	bra	u6107
  1163  002C7C  2FCA               	decfsz	??_main& (0+255),f,b
  1164  002C7E  D7FC               	bra	u6107
  1165  002C80  2FCB               	decfsz	(??_main+1)& (0+255),f,b
  1166  002C82  D7FA               	bra	u6107
  1167  002C84  F000               	nop	
  1168  002C86                     
  1169                           ;main.c: 63:         LATDbits.LATD6 = !LATDbits.LATD6;
  1170  002C86  AC8C               	btfss	140,6,c	;volatile
  1171  002C88  EF48  F016         	goto	u6051
  1172  002C8C  EF4D  F016         	goto	u6050
  1173  002C90                     u6051:
  1174  002C90  0100               	movlb	0	; () banked
  1175  002C92  6BCA               	clrf	??_main& (0+255),b
  1176  002C94  2BCA               	incf	??_main& (0+255),f,b
  1177  002C96  EF4F  F016         	goto	u6068
  1178  002C9A                     u6050:
  1179  002C9A  0100               	movlb	0	; () banked
  1180  002C9C  6BCA               	clrf	??_main& (0+255),b
  1181  002C9E                     u6068:
  1182  002C9E  3BCA               	swapf	??_main& (0+255),f,b
  1183  002CA0  47CA               	rlncf	??_main& (0+255),f,b
  1184  002CA2  47CA               	rlncf	??_main& (0+255),f,b
  1185  002CA4  508C               	movf	140,w,c	;volatile
  1186  002CA6  19CA               	xorwf	??_main& (0+255),w,b
  1187  002CA8  0BBF               	andlw	-65
  1188  002CAA  19CA               	xorwf	??_main& (0+255),w,b
  1189  002CAC  6E8C               	movwf	140,c	;volatile
  1190  002CAE                     
  1191                           ; BSR set to: 0
  1192                           ;main.c: 64:         if((cdc_trf_state == 0) == 1)
  1193  002CAE  5043               	movf	_cdc_trf_state^0,w,c
  1194  002CB0  A4D8               	btfss	status,2,c
  1195  002CB2  EF5D  F016         	goto	u6071
  1196  002CB6  EF5F  F016         	goto	u6070
  1197  002CBA                     u6071:
  1198  002CBA  EF88  F016         	goto	l7530
  1199  002CBE                     u6070:
  1200  002CBE                     
  1201                           ; BSR set to: 0
  1202                           ;main.c: 65:         {;main.c: 66:             LATDbits.LATD3 = !LATDbits.LATD3;
  1203  002CBE  A68C               	btfss	140,3,c	;volatile
  1204  002CC0  EF64  F016         	goto	u6081
  1205  002CC4  EF68  F016         	goto	u6080
  1206  002CC8                     u6081:
  1207  002CC8  6BCA               	clrf	??_main& (0+255),b
  1208  002CCA  2BCA               	incf	??_main& (0+255),f,b
  1209  002CCC  EF6A  F016         	goto	u6098
  1210  002CD0                     u6080:
  1211  002CD0  0100               	movlb	0	; () banked
  1212  002CD2  6BCA               	clrf	??_main& (0+255),b
  1213  002CD4                     u6098:
  1214  002CD4  47CA               	rlncf	??_main& (0+255),f,b
  1215  002CD6  47CA               	rlncf	??_main& (0+255),f,b
  1216  002CD8  47CA               	rlncf	??_main& (0+255),f,b
  1217  002CDA  508C               	movf	140,w,c	;volatile
  1218  002CDC  19CA               	xorwf	??_main& (0+255),w,b
  1219  002CDE  0BF7               	andlw	-9
  1220  002CE0  19CA               	xorwf	??_main& (0+255),w,b
  1221  002CE2  6E8C               	movwf	140,c	;volatile
  1222  002CE4                     
  1223                           ; BSR set to: 0
  1224                           ;main.c: 67:             sprintf(data2,"counter: %d\r\n", counter++);
  1225  002CE4  0E61               	movlw	low main@data2
  1226  002CE6  6FB7               	movwf	sprintf@s& (0+255),b
  1227  002CE8  0E01               	movlw	high main@data2
  1228  002CEA  6FB8               	movwf	(sprintf@s+1)& (0+255),b
  1229  002CEC  0ED0               	movlw	low STR_1
  1230  002CEE  6FB9               	movwf	sprintf@fmt& (0+255),b
  1231  002CF0  0E08               	movlw	high STR_1
  1232  002CF2  6FBA               	movwf	(sprintf@fmt+1)& (0+255),b
  1233  002CF4  C175  F0BB         	movff	main@counter,?_sprintf+4
  1234  002CF8  6BBC               	clrf	(?_sprintf+5)& (0+255),b
  1235  002CFA  EC2B  F019         	call	_sprintf	;wreg free
  1236  002CFE  0101               	movlb	1	; () banked
  1237  002D00  2B75               	incf	main@counter& (0+255),f,b
  1238  002D02                     
  1239                           ; BSR set to: 1
  1240                           ;main.c: 68:             putsUSBUSART(data2);
  1241  002D02  0E61               	movlw	low main@data2
  1242  002D04  0100               	movlb	0	; () banked
  1243  002D06  6F60               	movwf	putsUSBUSART@data& (0+255),b
  1244  002D08  0E01               	movlw	high main@data2
  1245  002D0A  6F61               	movwf	(putsUSBUSART@data+1)& (0+255),b
  1246  002D0C  EC60  F018         	call	_putsUSBUSART	;wreg free
  1247  002D10                     l7530:
  1248                           
  1249                           ;main.c: 70:         CDCTxService();
  1250  002D10  EC80  F009         	call	_CDCTxService	;wreg free
  1251  002D14  EF36  F016         	goto	l7516
  1252  002D18  EF4E  F000         	goto	start
  1253  002D1C                     __end_of_main:
  1254                           	callstack 0
  1255                           
  1256 ;; *************** function _sprintf *****************
  1257 ;; Defined at:
  1258 ;;		line 9 in file "/Applications/microchip/xc8/v2.35/pic/sources/c99/common/nf_sprintf.c"
  1259 ;; Parameters:    Size  Location     Type
  1260 ;;  s               2   87[BANK0 ] PTR unsigned char 
  1261 ;;		 -> main@data2(20), 
  1262 ;;  fmt             2   89[BANK0 ] PTR const unsigned char 
  1263 ;;		 -> STR_1(14), 
  1264 ;; Auto vars:     Size  Location     Type
  1265 ;;  f              11   95[BANK0 ] struct _IO_FILE
  1266 ;;  ap              2   93[BANK0 ] PTR void [1]
  1267 ;;		 -> ?_sprintf(2), 
  1268 ;;  ret             2    0        int 
  1269 ;; Return value:  Size  Location     Type
  1270 ;;                  2   87[BANK0 ] int 
  1271 ;; Registers used:
  1272 ;;		wreg, fsr1l, fsr1h, fsr2l, fsr2h, status,2, status,0, tblptrl, tblptrh, tblptru, cstack
  1273 ;; Tracked objects:
  1274 ;;		On entry : 0/0
  1275 ;;		On exit  : 0/0
  1276 ;;		Unchanged: 0/0
  1277 ;; Data sizes:     COMRAM   BANK0   BANK1   BANK2   BANK3   BANK4   BANK5   BANK6   BANK7
  1278 ;;      Params:         0       6       0       0       0       0       0       0       0
  1279 ;;      Locals:         0      13       0       0       0       0       0       0       0
  1280 ;;      Temps:          0       0       0       0       0       0       0       0       0
  1281 ;;      Totals:         0      19       0       0       0       0       0       0       0
  1282 ;;Total ram usage:       19 bytes
  1283 ;; Hardware stack levels used: 1
  1284 ;; Hardware stack levels required when called: 17
  1285 ;; This function calls:
  1286 ;;		_vfprintf
  1287 ;; This function is called by:
  1288 ;;		_main
  1289 ;; This function uses a non-reentrant model
  1290 ;;
  1291                           
  1292                           	psect	text1
  1293  003256                     __ptext1:
  1294                           	callstack 0
  1295  003256                     _sprintf:
  1296                           	callstack 13
  1297  003256  0EBB               	movlw	low (?_sprintf+4)
  1298  003258  0100               	movlb	0	; () banked
  1299  00325A  6FBD               	movwf	sprintf@ap& (0+255),b
  1300  00325C  0E00               	movlw	high (?_sprintf+4)
  1301  00325E  6FBE               	movwf	(sprintf@ap+1)& (0+255),b
  1302  003260  C0B7  F0BF         	movff	sprintf@s,sprintf@f
  1303  003264  C0B8  F0C0         	movff	sprintf@s+1,sprintf@f+1
  1304  003268                     
  1305                           ; BSR set to: 0
  1306  003268  0E00               	movlw	0
  1307  00326A  6FC3               	movwf	(sprintf@f+4)& (0+255),b
  1308  00326C  0E00               	movlw	0
  1309  00326E  6FC2               	movwf	(sprintf@f+3)& (0+255),b
  1310  003270                     
  1311                           ; BSR set to: 0
  1312  003270  0E00               	movlw	0
  1313  003272  6FC9               	movwf	(sprintf@f+10)& (0+255),b
  1314  003274  0E00               	movlw	0
  1315  003276  6FC8               	movwf	(sprintf@f+9)& (0+255),b
  1316  003278                     
  1317                           ; BSR set to: 0
  1318  003278  0EBF               	movlw	low sprintf@f
  1319  00327A  6FAF               	movwf	vfprintf@fp& (0+255),b
  1320  00327C  0E00               	movlw	high sprintf@f
  1321  00327E  6FB0               	movwf	(vfprintf@fp+1)& (0+255),b
  1322  003280  C0B9  F0B1         	movff	sprintf@fmt,vfprintf@fmt
  1323  003284  C0BA  F0B2         	movff	sprintf@fmt+1,vfprintf@fmt+1
  1324  003288  0EBD               	movlw	low sprintf@ap
  1325  00328A  6FB3               	movwf	vfprintf@ap& (0+255),b
  1326  00328C  0E00               	movlw	high sprintf@ap
  1327  00328E  6FB4               	movwf	(vfprintf@ap+1)& (0+255),b
  1328  003290  ECCA  F018         	call	_vfprintf	;wreg free
  1329  003294  0100               	movlb	0	; () banked
  1330  003296  51C2               	movf	(sprintf@f+3)& (0+255),w,b
  1331  003298  25B7               	addwf	sprintf@s& (0+255),w,b
  1332  00329A  6ED9               	movwf	fsr2l,c
  1333  00329C  51C3               	movf	(sprintf@f+4)& (0+255),w,b
  1334  00329E  21B8               	addwfc	(sprintf@s+1)& (0+255),w,b
  1335  0032A0  6EDA               	movwf	fsr2h,c
  1336  0032A2  0E00               	movlw	0
  1337  0032A4  6EDF               	movwf	indf2,c
  1338  0032A6                     
  1339                           ; BSR set to: 0
  1340  0032A6  0012               	return		;funcret
  1341  0032A8                     __end_of_sprintf:
  1342                           	callstack 0
  1343                           
  1344 ;; *************** function _vfprintf *****************
  1345 ;; Defined at:
  1346 ;;		line 1390 in file "/Applications/microchip/xc8/v2.35/pic/sources/c99/common/doprnt.c"
  1347 ;; Parameters:    Size  Location     Type
  1348 ;;  fp              2   79[BANK0 ] PTR struct _IO_FILE
  1349 ;;		 -> sprintf@f(11), 
  1350 ;;  fmt             2   81[BANK0 ] PTR const unsigned char 
  1351 ;;		 -> STR_1(14), 
  1352 ;;  ap              2   83[BANK0 ] PTR PTR void 
  1353 ;;		 -> sprintf@ap(2), 
  1354 ;; Auto vars:     Size  Location     Type
  1355 ;;  cfmt            2   85[BANK0 ] PTR unsigned char 
  1356 ;;		 -> STR_1(14), 
  1357 ;; Return value:  Size  Location     Type
  1358 ;;                  2   79[BANK0 ] int 
  1359 ;; Registers used:
  1360 ;;		wreg, fsr1l, fsr1h, fsr2l, fsr2h, status,2, status,0, tblptrl, tblptrh, tblptru, cstack
  1361 ;; Tracked objects:
  1362 ;;		On entry : 0/0
  1363 ;;		On exit  : 0/0
  1364 ;;		Unchanged: 0/0
  1365 ;; Data sizes:     COMRAM   BANK0   BANK1   BANK2   BANK3   BANK4   BANK5   BANK6   BANK7
  1366 ;;      Params:         0       6       0       0       0       0       0       0       0
  1367 ;;      Locals:         0       2       0       0       0       0       0       0       0
  1368 ;;      Temps:          0       0       0       0       0       0       0       0       0
  1369 ;;      Totals:         0       8       0       0       0       0       0       0       0
  1370 ;;Total ram usage:        8 bytes
  1371 ;; Hardware stack levels used: 1
  1372 ;; Hardware stack levels required when called: 16
  1373 ;; This function calls:
  1374 ;;		_vfpfcnvrt
  1375 ;; This function is called by:
  1376 ;;		_sprintf
  1377 ;; This function uses a non-reentrant model
  1378 ;;
  1379                           
  1380                           	psect	text2
  1381  003194                     __ptext2:
  1382                           	callstack 0
  1383  003194                     _vfprintf:
  1384                           	callstack 13
  1385  003194                     
  1386                           ;/Applications/microchip/xc8/v2.35/pic/sources/c99/common/doprnt.c: 1390: int vfprintf(F
      +                          ILE *fp, const char *fmt, va_list ap);/Applications/microchip/xc8/v2.35/pic/sources/c99/
      +                          common/doprnt.c: 1391: {;/Applications/microchip/xc8/v2.35/pic/sources/c99/common/doprnt
      +                          .c: 1393:     char *cfmt;;/Applications/microchip/xc8/v2.35/pic/sources/c99/common/doprn
      +                          t.c: 1395:     cfmt = (char *)fmt;
  1387  003194  C0B1  F0B5         	movff	vfprintf@fmt,vfprintf@cfmt
  1388  003198  C0B2  F0B6         	movff	vfprintf@fmt+1,vfprintf@cfmt+1
  1389  00319C                     
  1390                           ;/Applications/microchip/xc8/v2.35/pic/sources/c99/common/doprnt.c: 1396:     nout = 0;
  1391  00319C  0E00               	movlw	0
  1392  00319E  6E37               	movwf	(_nout+1)^0,c
  1393  0031A0  0E00               	movlw	0
  1394  0031A2  6E36               	movwf	_nout^0,c
  1395                           
  1396                           ;/Applications/microchip/xc8/v2.35/pic/sources/c99/common/doprnt.c: 1397:     while (*cf
      +                          mt) {
  1397  0031A4  EFE8  F018         	goto	l7346
  1398  0031A8                     l7344:
  1399                           
  1400                           ;/Applications/microchip/xc8/v2.35/pic/sources/c99/common/doprnt.c: 1398:         nout +
      +                          = vfpfcnvrt(fp, &cfmt, ap);
  1401  0031A8  C0AF  F09F         	movff	vfprintf@fp,vfpfcnvrt@fp
  1402  0031AC  C0B0  F0A0         	movff	vfprintf@fp+1,vfpfcnvrt@fp+1
  1403  0031B0  0EB5               	movlw	low vfprintf@cfmt
  1404  0031B2  0100               	movlb	0	; () banked
  1405  0031B4  6FA1               	movwf	vfpfcnvrt@fmt& (0+255),b
  1406  0031B6  0E00               	movlw	high vfprintf@cfmt
  1407  0031B8  6FA2               	movwf	(vfpfcnvrt@fmt+1)& (0+255),b
  1408  0031BA  C0B3  F0A3         	movff	vfprintf@ap,vfpfcnvrt@ap
  1409  0031BE  C0B4  F0A4         	movff	vfprintf@ap+1,vfpfcnvrt@ap+1
  1410  0031C2  ECA4  F008         	call	_vfpfcnvrt	;wreg free
  1411  0031C6  0100               	movlb	0	; () banked
  1412  0031C8  519F               	movf	?_vfpfcnvrt& (0+255),w,b
  1413  0031CA  2636               	addwf	_nout^0,f,c
  1414  0031CC  51A0               	movf	(?_vfpfcnvrt+1)& (0+255),w,b
  1415  0031CE  2237               	addwfc	(_nout+1)^0,f,c
  1416  0031D0                     l7346:
  1417                           
  1418                           ;/Applications/microchip/xc8/v2.35/pic/sources/c99/common/doprnt.c: 1397:     while (*cf
      +                          mt) {
  1419  0031D0  C0B5  FFF6         	movff	vfprintf@cfmt,tblptrl
  1420  0031D4  C0B6  FFF7         	movff	vfprintf@cfmt+1,tblptrh
  1421  0031D8                     	if	0	;tblptru may be non-zero
  1422  0031D8                     	endif
  1423  0031D8                     	if	0	;tblptru may be non-zero
  1424  0031D8                     	endif
  1425  0031D8  0008               	tblrd		*
  1426  0031DA  50F5               	movf	tablat,w,c
  1427  0031DC  0900               	iorlw	0
  1428  0031DE  A4D8               	btfss	status,2,c
  1429  0031E0  EFF4  F018         	goto	u5831
  1430  0031E4  EFF6  F018         	goto	u5830
  1431  0031E8                     u5831:
  1432  0031E8  EFD4  F018         	goto	l7344
  1433  0031EC                     u5830:
  1434  0031EC                     
  1435                           ;/Applications/microchip/xc8/v2.35/pic/sources/c99/common/doprnt.c: 1400:     return nou
      +                          t;
  1436  0031EC  C036  F0AF         	movff	_nout,?_vfprintf
  1437  0031F0  C037  F0B0         	movff	_nout+1,?_vfprintf+1
  1438  0031F4  0012               	return		;funcret
  1439  0031F6                     __end_of_vfprintf:
  1440                           	callstack 0
  1441                           
  1442 ;; *************** function _vfpfcnvrt *****************
  1443 ;; Defined at:
  1444 ;;		line 692 in file "/Applications/microchip/xc8/v2.35/pic/sources/c99/common/doprnt.c"
  1445 ;; Parameters:    Size  Location     Type
  1446 ;;  fp              2   63[BANK0 ] PTR struct _IO_FILE
  1447 ;;		 -> sprintf@f(11), 
  1448 ;;  fmt             2   65[BANK0 ] PTR PTR unsigned char 
  1449 ;;		 -> vfprintf@cfmt(2), 
  1450 ;;  ap              2   67[BANK0 ] PTR PTR void 
  1451 ;;		 -> sprintf@ap(2), 
  1452 ;; Auto vars:     Size  Location     Type
  1453 ;;  ll              8   71[BANK0 ] long long 
  1454 ;;  llu             8    0        unsigned long long 
  1455 ;;  f               4    0        unsigned long long 
  1456 ;;  vp              3    0        PTR void 
  1457 ;;  ct              3    0        unsigned char [3]
  1458 ;;  cp              3    0        PTR unsigned char 
  1459 ;;  i               2    0        int 
  1460 ;;  done            2    0        int 
  1461 ;;  c               1    0        unsigned char 
  1462 ;; Return value:  Size  Location     Type
  1463 ;;                  2   63[BANK0 ] int 
  1464 ;; Registers used:
  1465 ;;		wreg, fsr1l, fsr1h, fsr2l, fsr2h, status,2, status,0, tblptrl, tblptrh, tblptru, cstack
  1466 ;; Tracked objects:
  1467 ;;		On entry : 0/0
  1468 ;;		On exit  : 0/0
  1469 ;;		Unchanged: 0/0
  1470 ;; Data sizes:     COMRAM   BANK0   BANK1   BANK2   BANK3   BANK4   BANK5   BANK6   BANK7
  1471 ;;      Params:         0       6       0       0       0       0       0       0       0
  1472 ;;      Locals:         0       8       0       0       0       0       0       0       0
  1473 ;;      Temps:          0       2       0       0       0       0       0       0       0
  1474 ;;      Totals:         0      16       0       0       0       0       0       0       0
  1475 ;;Total ram usage:       16 bytes
  1476 ;; Hardware stack levels used: 1
  1477 ;; Hardware stack levels required when called: 15
  1478 ;; This function calls:
  1479 ;;		_dtoa
  1480 ;;		_fputc
  1481 ;; This function is called by:
  1482 ;;		_vfprintf
  1483 ;; This function uses a non-reentrant model
  1484 ;;
  1485                           
  1486                           	psect	text3
  1487  001148                     __ptext3:
  1488                           	callstack 0
  1489  001148                     _vfpfcnvrt:
  1490                           	callstack 13
  1491  001148                     
  1492                           ;/Applications/microchip/xc8/v2.35/pic/sources/c99/common/doprnt.c: 692: static int vfpf
      +                          cnvrt(FILE *fp, char *fmt[], va_list ap);/Applications/microchip/xc8/v2.35/pic/sources/c
      +                          99/common/doprnt.c: 693: {;/Applications/microchip/xc8/v2.35/pic/sources/c99/common/dopr
      +                          nt.c: 694:     char c, *cp, ct[3];;/Applications/microchip/xc8/v2.35/pic/sources/c99/com
      +                          mon/doprnt.c: 695:     int done, i;;/Applications/microchip/xc8/v2.35/pic/sources/c99/co
      +                          mmon/doprnt.c: 696:     long long ll;;/Applications/microchip/xc8/v2.35/pic/sources/c99/
      +                          common/doprnt.c: 697:     unsigned long long llu;
  1493  001148  C0A1  FFD9         	movff	vfpfcnvrt@fmt,fsr2l
  1494  00114C  C0A2  FFDA         	movff	vfpfcnvrt@fmt+1,fsr2h
  1495  001150  CFDE FFF6          	movff	postinc2,tblptrl
  1496  001154  CFDD FFF7          	movff	postdec2,tblptrh
  1497  001158                     	if	0	;tblptru may be non-zero
  1498  001158                     	endif
  1499  001158                     	if	0	;tblptru may be non-zero
  1500  001158                     	endif
  1501  001158  0008               	tblrd		*
  1502  00115A  50F5               	movf	tablat,w,c
  1503  00115C  0A25               	xorlw	37
  1504  00115E  A4D8               	btfss	status,2,c
  1505  001160  EFB4  F008         	goto	u5701
  1506  001164  EFB6  F008         	goto	u5700
  1507  001168                     u5701:
  1508  001168  EF63  F009         	goto	l7200
  1509  00116C                     u5700:
  1510  00116C                     
  1511                           ;/Applications/microchip/xc8/v2.35/pic/sources/c99/common/doprnt.c: 703:         ++*fmt;
  1512  00116C  C0A1  FFD9         	movff	vfpfcnvrt@fmt,fsr2l
  1513  001170  C0A2  FFDA         	movff	vfpfcnvrt@fmt+1,fsr2h
  1514  001174  2ADE               	incf	postinc2,f,c
  1515  001176  0E00               	movlw	0
  1516  001178  22DD               	addwfc	postdec2,f,c
  1517  00117A                     
  1518                           ;/Applications/microchip/xc8/v2.35/pic/sources/c99/common/doprnt.c: 705:         flags =
      +                           width = 0;
  1519  00117A  0E00               	movlw	0
  1520  00117C  6E39               	movwf	(_width+1)^0,c
  1521  00117E  0E00               	movlw	0
  1522  001180  6E38               	movwf	_width^0,c
  1523  001182  C038  F0EE         	movff	_width,_flags
  1524  001186  C039  F0EF         	movff	_width+1,_flags+1
  1525  00118A                     
  1526                           ;/Applications/microchip/xc8/v2.35/pic/sources/c99/common/doprnt.c: 706:         prec = 
      +                          -1;
  1527  00118A  0100               	movlb	0	; () banked
  1528  00118C  69EC               	setf	_prec& (0+255),b
  1529  00118E  69ED               	setf	(_prec+1)& (0+255),b
  1530  001190                     
  1531                           ; BSR set to: 0
  1532                           ;/Applications/microchip/xc8/v2.35/pic/sources/c99/common/doprnt.c: 847:         if ((*f
      +                          mt[0] == 'd') || (*fmt[0] == 'i')) {
  1533  001190  C0A1  FFD9         	movff	vfpfcnvrt@fmt,fsr2l
  1534  001194  C0A2  FFDA         	movff	vfpfcnvrt@fmt+1,fsr2h
  1535  001198  CFDE FFF6          	movff	postinc2,tblptrl
  1536  00119C  CFDD FFF7          	movff	postdec2,tblptrh
  1537  0011A0                     	if	0	;tblptru may be non-zero
  1538  0011A0                     	endif
  1539  0011A0                     	if	0	;tblptru may be non-zero
  1540  0011A0                     	endif
  1541  0011A0  0008               	tblrd		*
  1542  0011A2  50F5               	movf	tablat,w,c
  1543  0011A4  0A64               	xorlw	100
  1544  0011A6  B4D8               	btfsc	status,2,c
  1545  0011A8  EFD8  F008         	goto	u5711
  1546  0011AC  EFDA  F008         	goto	u5710
  1547  0011B0                     u5711:
  1548  0011B0  EFEC  F008         	goto	l7178
  1549  0011B4                     u5710:
  1550  0011B4                     
  1551                           ; BSR set to: 0
  1552  0011B4  C0A1  FFD9         	movff	vfpfcnvrt@fmt,fsr2l
  1553  0011B8  C0A2  FFDA         	movff	vfpfcnvrt@fmt+1,fsr2h
  1554  0011BC  CFDE FFF6          	movff	postinc2,tblptrl
  1555  0011C0  CFDD FFF7          	movff	postdec2,tblptrh
  1556  0011C4                     	if	0	;tblptru may be non-zero
  1557  0011C4                     	endif
  1558  0011C4                     	if	0	;tblptru may be non-zero
  1559  0011C4                     	endif
  1560  0011C4  0008               	tblrd		*
  1561  0011C6  50F5               	movf	tablat,w,c
  1562  0011C8  0A69               	xorlw	105
  1563  0011CA  A4D8               	btfss	status,2,c
  1564  0011CC  EFEA  F008         	goto	u5721
  1565  0011D0  EFEC  F008         	goto	u5720
  1566  0011D4                     u5721:
  1567  0011D4  EF2C  F009         	goto	l7184
  1568  0011D8                     u5720:
  1569  0011D8                     l7178:
  1570                           
  1571                           ; BSR set to: 0
  1572                           ;/Applications/microchip/xc8/v2.35/pic/sources/c99/common/doprnt.c: 849:             ++*
      +                          fmt;
  1573  0011D8  C0A1  FFD9         	movff	vfpfcnvrt@fmt,fsr2l
  1574  0011DC  C0A2  FFDA         	movff	vfpfcnvrt@fmt+1,fsr2h
  1575  0011E0  2ADE               	incf	postinc2,f,c
  1576  0011E2  0E00               	movlw	0
  1577  0011E4  22DD               	addwfc	postdec2,f,c
  1578                           
  1579                           ;/Applications/microchip/xc8/v2.35/pic/sources/c99/common/doprnt.c: 850:             ll 
      +                          = (long long)(*(int *)__va_arg(*(int **)ap, (int)0));
  1580  0011E6  C0A3  FFD9         	movff	vfpfcnvrt@ap,fsr2l
  1581  0011EA  C0A4  FFDA         	movff	vfpfcnvrt@ap+1,fsr2h
  1582  0011EE  CFDF F0A5          	movff	indf2,??_vfpfcnvrt
  1583  0011F2  0E02               	movlw	2
  1584  0011F4  26DE               	addwf	postinc2,f,c
  1585  0011F6  CFDF F0A6          	movff	indf2,??_vfpfcnvrt+1
  1586  0011FA  0E00               	movlw	0
  1587  0011FC  22DD               	addwfc	postdec2,f,c
  1588  0011FE  C0A5  FFD9         	movff	??_vfpfcnvrt,fsr2l
  1589  001202  C0A6  FFDA         	movff	??_vfpfcnvrt+1,fsr2h
  1590  001206  CFDE F0A7          	movff	postinc2,vfpfcnvrt@ll
  1591  00120A  CFDD F0A8          	movff	postdec2,vfpfcnvrt@ll+1
  1592  00120E  0E00               	movlw	0
  1593  001210  BFA8               	btfsc	(vfpfcnvrt@ll+1)& (0+255),7,b
  1594  001212  0EFF               	movlw	-1
  1595  001214  6FA9               	movwf	(vfpfcnvrt@ll+2)& (0+255),b
  1596  001216  6FAA               	movwf	(vfpfcnvrt@ll+3)& (0+255),b
  1597  001218  6FAB               	movwf	(vfpfcnvrt@ll+4)& (0+255),b
  1598  00121A  6FAC               	movwf	(vfpfcnvrt@ll+5)& (0+255),b
  1599  00121C  6FAD               	movwf	(vfpfcnvrt@ll+6)& (0+255),b
  1600  00121E  6FAE               	movwf	(vfpfcnvrt@ll+7)& (0+255),b
  1601  001220                     
  1602                           ; BSR set to: 0
  1603                           ;/Applications/microchip/xc8/v2.35/pic/sources/c99/common/doprnt.c: 852:             ret
      +                          urn dtoa(fp, ll);
  1604  001220  C09F  F07B         	movff	vfpfcnvrt@fp,dtoa@fp
  1605  001224  C0A0  F07C         	movff	vfpfcnvrt@fp+1,dtoa@fp+1
  1606  001228  C0A7  F07D         	movff	vfpfcnvrt@ll,dtoa@d
  1607  00122C  C0A8  F07E         	movff	vfpfcnvrt@ll+1,dtoa@d+1
  1608  001230  C0A9  F07F         	movff	vfpfcnvrt@ll+2,dtoa@d+2
  1609  001234  C0AA  F080         	movff	vfpfcnvrt@ll+3,dtoa@d+3
  1610  001238  C0AB  F081         	movff	vfpfcnvrt@ll+4,dtoa@d+4
  1611  00123C  C0AC  F082         	movff	vfpfcnvrt@ll+5,dtoa@d+5
  1612  001240  C0AD  F083         	movff	vfpfcnvrt@ll+6,dtoa@d+6
  1613  001244  C0AE  F084         	movff	vfpfcnvrt@ll+7,dtoa@d+7
  1614  001248  EC1E  F006         	call	_dtoa	;wreg free
  1615  00124C  C07B  F09F         	movff	?_dtoa,?_vfpfcnvrt
  1616  001250  C07C  F0A0         	movff	?_dtoa+1,?_vfpfcnvrt+1
  1617  001254  EF7F  F009         	goto	l1963
  1618  001258                     l7184:
  1619                           
  1620                           ; BSR set to: 0
  1621                           ;/Applications/microchip/xc8/v2.35/pic/sources/c99/common/doprnt.c: 1372:         if ((*
      +                          fmt)[0] == '%') {
  1622  001258  C0A1  FFD9         	movff	vfpfcnvrt@fmt,fsr2l
  1623  00125C  C0A2  FFDA         	movff	vfpfcnvrt@fmt+1,fsr2h
  1624  001260  CFDE FFF6          	movff	postinc2,tblptrl
  1625  001264  CFDD FFF7          	movff	postdec2,tblptrh
  1626  001268                     	if	0	;tblptru may be non-zero
  1627  001268                     	endif
  1628  001268                     	if	0	;tblptru may be non-zero
  1629  001268                     	endif
  1630  001268  0008               	tblrd		*
  1631  00126A  50F5               	movf	tablat,w,c
  1632  00126C  0A25               	xorlw	37
  1633  00126E  A4D8               	btfss	status,2,c
  1634  001270  EF3C  F009         	goto	u5731
  1635  001274  EF3E  F009         	goto	u5730
  1636  001278                     u5731:
  1637  001278  EF56  F009         	goto	l7194
  1638  00127C                     u5730:
  1639  00127C                     
  1640                           ; BSR set to: 0
  1641                           ;/Applications/microchip/xc8/v2.35/pic/sources/c99/common/doprnt.c: 1373:             ++
      +                          *fmt;
  1642  00127C  C0A1  FFD9         	movff	vfpfcnvrt@fmt,fsr2l
  1643  001280  C0A2  FFDA         	movff	vfpfcnvrt@fmt+1,fsr2h
  1644  001284  2ADE               	incf	postinc2,f,c
  1645  001286  0E00               	movlw	0
  1646  001288  22DD               	addwfc	postdec2,f,c
  1647  00128A                     
  1648                           ; BSR set to: 0
  1649                           ;/Applications/microchip/xc8/v2.35/pic/sources/c99/common/doprnt.c: 1374:             fp
      +                          utc((int)'%', fp);
  1650  00128A  0E00               	movlw	0
  1651  00128C  6F61               	movwf	(fputc@c+1)& (0+255),b
  1652  00128E  0E25               	movlw	37
  1653  001290  6F60               	movwf	fputc@c& (0+255),b
  1654  001292  C09F  F062         	movff	vfpfcnvrt@fp,fputc@fp
  1655  001296  C0A0  F063         	movff	vfpfcnvrt@fp+1,fputc@fp+1
  1656  00129A  EC5F  F015         	call	_fputc	;wreg free
  1657  00129E                     l7190:
  1658                           
  1659                           ;/Applications/microchip/xc8/v2.35/pic/sources/c99/common/doprnt.c: 1375:             re
      +                          turn 1;
  1660  00129E  0E00               	movlw	0
  1661  0012A0  0100               	movlb	0	; () banked
  1662  0012A2  6FA0               	movwf	(?_vfpfcnvrt+1)& (0+255),b
  1663  0012A4  0E01               	movlw	1
  1664  0012A6  6F9F               	movwf	?_vfpfcnvrt& (0+255),b
  1665  0012A8  EF7F  F009         	goto	l1963
  1666  0012AC                     l7194:
  1667                           
  1668                           ; BSR set to: 0
  1669                           ;/Applications/microchip/xc8/v2.35/pic/sources/c99/common/doprnt.c: 1379:         ++*fmt
      +                          ;
  1670  0012AC  C0A1  FFD9         	movff	vfpfcnvrt@fmt,fsr2l
  1671  0012B0  C0A2  FFDA         	movff	vfpfcnvrt@fmt+1,fsr2h
  1672  0012B4  2ADE               	incf	postinc2,f,c
  1673  0012B6  0E00               	movlw	0
  1674  0012B8  22DD               	addwfc	postdec2,f,c
  1675  0012BA                     
  1676                           ; BSR set to: 0
  1677                           ;/Applications/microchip/xc8/v2.35/pic/sources/c99/common/doprnt.c: 1380:         return
      +                           0;
  1678  0012BA  0E00               	movlw	0
  1679  0012BC  6FA0               	movwf	(?_vfpfcnvrt+1)& (0+255),b
  1680  0012BE  0E00               	movlw	0
  1681  0012C0  6F9F               	movwf	?_vfpfcnvrt& (0+255),b
  1682  0012C2  EF7F  F009         	goto	l1963
  1683  0012C6                     l7200:
  1684                           
  1685                           ;/Applications/microchip/xc8/v2.35/pic/sources/c99/common/doprnt.c: 1384:     fputc((int
      +                          )(*fmt)[0], fp);
  1686  0012C6  C0A1  FFD9         	movff	vfpfcnvrt@fmt,fsr2l
  1687  0012CA  C0A2  FFDA         	movff	vfpfcnvrt@fmt+1,fsr2h
  1688  0012CE  CFDE FFF6          	movff	postinc2,tblptrl
  1689  0012D2  CFDD FFF7          	movff	postdec2,tblptrh
  1690  0012D6                     	if	0	;tblptru may be non-zero
  1691  0012D6                     	endif
  1692  0012D6                     	if	0	;tblptru may be non-zero
  1693  0012D6                     	endif
  1694  0012D6  0008               	tblrd		*
  1695  0012D8  50F5               	movf	tablat,w,c
  1696  0012DA  0100               	movlb	0	; () banked
  1697  0012DC  6F60               	movwf	fputc@c& (0+255),b
  1698  0012DE  6B61               	clrf	(fputc@c+1)& (0+255),b
  1699  0012E0  C09F  F062         	movff	vfpfcnvrt@fp,fputc@fp
  1700  0012E4  C0A0  F063         	movff	vfpfcnvrt@fp+1,fputc@fp+1
  1701  0012E8  EC5F  F015         	call	_fputc	;wreg free
  1702  0012EC                     
  1703                           ;/Applications/microchip/xc8/v2.35/pic/sources/c99/common/doprnt.c: 1385:     ++*fmt;
  1704  0012EC  C0A1  FFD9         	movff	vfpfcnvrt@fmt,fsr2l
  1705  0012F0  C0A2  FFDA         	movff	vfpfcnvrt@fmt+1,fsr2h
  1706  0012F4  2ADE               	incf	postinc2,f,c
  1707  0012F6  0E00               	movlw	0
  1708  0012F8  22DD               	addwfc	postdec2,f,c
  1709  0012FA  EF4F  F009         	goto	l7190
  1710  0012FE                     l1963:
  1711  0012FE  0012               	return		;funcret
  1712  001300                     __end_of_vfpfcnvrt:
  1713                           	callstack 0
  1714                           
  1715 ;; *************** function _dtoa *****************
  1716 ;; Defined at:
  1717 ;;		line 287 in file "/Applications/microchip/xc8/v2.35/pic/sources/c99/common/doprnt.c"
  1718 ;; Parameters:    Size  Location     Type
  1719 ;;  fp              2   27[BANK0 ] PTR struct _IO_FILE
  1720 ;;		 -> sprintf@f(11), 
  1721 ;;  d               8   29[BANK0 ] long long 
  1722 ;; Auto vars:     Size  Location     Type
  1723 ;;  n               8   53[BANK0 ] long long 
  1724 ;;  i               2   61[BANK0 ] int 
  1725 ;;  s               2   51[BANK0 ] int 
  1726 ;;  w               2   49[BANK0 ] int 
  1727 ;;  p               2   47[BANK0 ] int 
  1728 ;; Return value:  Size  Location     Type
  1729 ;;                  2   27[BANK0 ] int 
  1730 ;; Registers used:
  1731 ;;		wreg, fsr1l, fsr1h, fsr2l, fsr2h, status,2, status,0, cstack
  1732 ;; Tracked objects:
  1733 ;;		On entry : 0/0
  1734 ;;		On exit  : 0/0
  1735 ;;		Unchanged: 0/0
  1736 ;; Data sizes:     COMRAM   BANK0   BANK1   BANK2   BANK3   BANK4   BANK5   BANK6   BANK7
  1737 ;;      Params:         0      10       0       0       0       0       0       0       0
  1738 ;;      Locals:         0      18       0       0       0       0       0       0       0
  1739 ;;      Temps:          0       8       0       0       0       0       0       0       0
  1740 ;;      Totals:         0      36       0       0       0       0       0       0       0
  1741 ;;Total ram usage:       36 bytes
  1742 ;; Hardware stack levels used: 1
  1743 ;; Hardware stack levels required when called: 14
  1744 ;; This function calls:
  1745 ;;		___aodiv
  1746 ;;		___aomod
  1747 ;;		_abs
  1748 ;;		_pad
  1749 ;; This function is called by:
  1750 ;;		_vfpfcnvrt
  1751 ;; This function uses a non-reentrant model
  1752 ;;
  1753                           
  1754                           	psect	text4
  1755  000C3C                     __ptext4:
  1756                           	callstack 0
  1757  000C3C                     _dtoa:
  1758                           	callstack 13
  1759  000C3C                     
  1760                           ;/Applications/microchip/xc8/v2.35/pic/sources/c99/common/doprnt.c: 287: static int dtoa
      +                          (FILE *fp, long long d);/Applications/microchip/xc8/v2.35/pic/sources/c99/common/doprnt.
      +                          c: 288: {;/Applications/microchip/xc8/v2.35/pic/sources/c99/common/doprnt.c: 289:     in
      +                          t i, p, s, w;;/Applications/microchip/xc8/v2.35/pic/sources/c99/common/doprnt.c: 290:   
      +                            long long n;;/Applications/microchip/xc8/v2.35/pic/sources/c99/common/doprnt.c: 293:  
      +                             n = d;
  1761  000C3C  C07D  F095         	movff	dtoa@d,dtoa@n
  1762  000C40  C07E  F096         	movff	dtoa@d+1,dtoa@n+1
  1763  000C44  C07F  F097         	movff	dtoa@d+2,dtoa@n+2
  1764  000C48  C080  F098         	movff	dtoa@d+3,dtoa@n+3
  1765  000C4C  C081  F099         	movff	dtoa@d+4,dtoa@n+4
  1766  000C50  C082  F09A         	movff	dtoa@d+5,dtoa@n+5
  1767  000C54  C083  F09B         	movff	dtoa@d+6,dtoa@n+6
  1768  000C58  C084  F09C         	movff	dtoa@d+7,dtoa@n+7
  1769  000C5C                     
  1770                           ;/Applications/microchip/xc8/v2.35/pic/sources/c99/common/doprnt.c: 294:     s = n < 0 ?
      +                           1 : 0;
  1771  000C5C  0100               	movlb	0	; () banked
  1772  000C5E  BF9C               	btfsc	(dtoa@n+7)& (0+255),7,b
  1773  000C60  EF34  F006         	goto	u5501
  1774  000C64  EF37  F006         	goto	u5500
  1775  000C68                     u5501:
  1776  000C68  0E01               	movlw	1
  1777  000C6A  EF38  F006         	goto	u5510
  1778  000C6E                     u5500:
  1779  000C6E  0E00               	movlw	0
  1780  000C70                     u5510:
  1781  000C70  6F93               	movwf	dtoa@s& (0+255),b
  1782  000C72  6B94               	clrf	(dtoa@s+1)& (0+255),b
  1783                           
  1784                           ;/Applications/microchip/xc8/v2.35/pic/sources/c99/common/doprnt.c: 295:     if (s) {
  1785  000C74  5193               	movf	dtoa@s& (0+255),w,b
  1786  000C76  1194               	iorwf	(dtoa@s+1)& (0+255),w,b
  1787  000C78  B4D8               	btfsc	status,2,c
  1788  000C7A  EF41  F006         	goto	u5521
  1789  000C7E  EF43  F006         	goto	u5520
  1790  000C82                     u5521:
  1791  000C82  EF53  F006         	goto	l7078
  1792  000C86                     u5520:
  1793  000C86                     
  1794                           ; BSR set to: 0
  1795                           ;/Applications/microchip/xc8/v2.35/pic/sources/c99/common/doprnt.c: 296:         n = -n;
  1796  000C86  1F9C               	comf	(dtoa@n+7)& (0+255),f,b
  1797  000C88  1F9B               	comf	(dtoa@n+6)& (0+255),f,b
  1798  000C8A  1F9A               	comf	(dtoa@n+5)& (0+255),f,b
  1799  000C8C  1F99               	comf	(dtoa@n+4)& (0+255),f,b
  1800  000C8E  1F98               	comf	(dtoa@n+3)& (0+255),f,b
  1801  000C90  1F97               	comf	(dtoa@n+2)& (0+255),f,b
  1802  000C92  1F96               	comf	(dtoa@n+1)& (0+255),f,b
  1803  000C94  6D95               	negf	dtoa@n& (0+255),b
  1804  000C96  0E00               	movlw	0
  1805  000C98  2396               	addwfc	(dtoa@n+1)& (0+255),f,b
  1806  000C9A  2397               	addwfc	(dtoa@n+2)& (0+255),f,b
  1807  000C9C  2398               	addwfc	(dtoa@n+3)& (0+255),f,b
  1808  000C9E  2399               	addwfc	(dtoa@n+4)& (0+255),f,b
  1809  000CA0  239A               	addwfc	(dtoa@n+5)& (0+255),f,b
  1810  000CA2  239B               	addwfc	(dtoa@n+6)& (0+255),f,b
  1811  000CA4  239C               	addwfc	(dtoa@n+7)& (0+255),f,b
  1812  000CA6                     l7078:
  1813                           
  1814                           ; BSR set to: 0
  1815                           ;/Applications/microchip/xc8/v2.35/pic/sources/c99/common/doprnt.c: 300:     if (!(prec 
      +                          < 0)) {
  1816  000CA6  BFED               	btfsc	(_prec+1)& (0+255),7,b
  1817  000CA8  EF58  F006         	goto	u5531
  1818  000CAC  EF5A  F006         	goto	u5530
  1819  000CB0                     u5531:
  1820  000CB0  EF5B  F006         	goto	l7082
  1821  000CB4                     u5530:
  1822  000CB4                     
  1823                           ; BSR set to: 0
  1824                           ;/Applications/microchip/xc8/v2.35/pic/sources/c99/common/doprnt.c: 301:         flags &
      +                          = ~(1 << 1);
  1825  000CB4  93EE               	bcf	_flags& (0+255),1,b
  1826  000CB6                     l7082:
  1827                           
  1828                           ; BSR set to: 0
  1829                           ;/Applications/microchip/xc8/v2.35/pic/sources/c99/common/doprnt.c: 303:     p = (0 < pr
      +                          ec) ? prec : 1;
  1830  000CB6  BFED               	btfsc	(_prec+1)& (0+255),7,b
  1831  000CB8  EF68  F006         	goto	u5540
  1832  000CBC  51ED               	movf	(_prec+1)& (0+255),w,b
  1833  000CBE  E106               	bnz	u5541
  1834  000CC0  05EC               	decf	_prec& (0+255),w,b
  1835  000CC2  B0D8               	btfsc	status,0,c
  1836  000CC4  EF66  F006         	goto	u5541
  1837  000CC8  EF68  F006         	goto	u5540
  1838  000CCC                     u5541:
  1839  000CCC  EF6E  F006         	goto	l1936
  1840  000CD0                     u5540:
  1841  000CD0                     
  1842                           ; BSR set to: 0
  1843  000CD0  0E00               	movlw	0
  1844  000CD2  6F90               	movwf	(dtoa@p+1)& (0+255),b
  1845  000CD4  0E01               	movlw	1
  1846  000CD6  6F8F               	movwf	dtoa@p& (0+255),b
  1847  000CD8  EF72  F006         	goto	l1938
  1848  000CDC                     l1936:
  1849                           
  1850                           ; BSR set to: 0
  1851  000CDC  C0EC  F08F         	movff	_prec,dtoa@p
  1852  000CE0  C0ED  F090         	movff	_prec+1,dtoa@p+1
  1853  000CE4                     l1938:
  1854                           
  1855                           ; BSR set to: 0
  1856                           ;/Applications/microchip/xc8/v2.35/pic/sources/c99/common/doprnt.c: 304:     w = width;
  1857  000CE4  C038  F091         	movff	_width,dtoa@w
  1858  000CE8  C039  F092         	movff	_width+1,dtoa@w+1
  1859  000CEC                     
  1860                           ; BSR set to: 0
  1861                           ;/Applications/microchip/xc8/v2.35/pic/sources/c99/common/doprnt.c: 305:     if (s || (f
      +                          lags & (1 << 2))) {
  1862  000CEC  5193               	movf	dtoa@s& (0+255),w,b
  1863  000CEE  1194               	iorwf	(dtoa@s+1)& (0+255),w,b
  1864  000CF0  A4D8               	btfss	status,2,c
  1865  000CF2  EF7D  F006         	goto	u5551
  1866  000CF6  EF7F  F006         	goto	u5550
  1867  000CFA                     u5551:
  1868  000CFA  EF86  F006         	goto	l7090
  1869  000CFE                     u5550:
  1870  000CFE                     
  1871                           ; BSR set to: 0
  1872  000CFE  A5EE               	btfss	_flags& (0+255),2,b
  1873  000D00  EF84  F006         	goto	u5561
  1874  000D04  EF86  F006         	goto	u5560
  1875  000D08                     u5561:
  1876  000D08  EF89  F006         	goto	l7092
  1877  000D0C                     u5560:
  1878  000D0C                     l7090:
  1879                           
  1880                           ; BSR set to: 0
  1881                           ;/Applications/microchip/xc8/v2.35/pic/sources/c99/common/doprnt.c: 306:         --w;
  1882  000D0C  0791               	decf	dtoa@w& (0+255),f,b
  1883  000D0E  A0D8               	btfss	status,0,c
  1884  000D10  0792               	decf	(dtoa@w+1)& (0+255),f,b
  1885  000D12                     l7092:
  1886                           
  1887                           ; BSR set to: 0
  1888                           ;/Applications/microchip/xc8/v2.35/pic/sources/c99/common/doprnt.c: 310:     i = sizeof(
      +                          dbuf) - 1;
  1889  000D12  0E00               	movlw	0
  1890  000D14  6F9E               	movwf	(dtoa@i+1)& (0+255),b
  1891  000D16  0E1F               	movlw	31
  1892  000D18  6F9D               	movwf	dtoa@i& (0+255),b
  1893  000D1A                     
  1894                           ; BSR set to: 0
  1895                           ;/Applications/microchip/xc8/v2.35/pic/sources/c99/common/doprnt.c: 311:     dbuf[i] = '
      +                          \0';
  1896  000D1A  0E00               	movlw	0
  1897  000D1C  0101               	movlb	1	; () banked
  1898  000D1E  6F51               	movwf	(_dbuf+31)& (0+255),b
  1899                           
  1900                           ;/Applications/microchip/xc8/v2.35/pic/sources/c99/common/doprnt.c: 312:     while (!(i 
      +                          < 1) && (n || (0 < p) || ((0 < w) && (flags & (1 << 1))))) {
  1901  000D20  EF0F  F007         	goto	l7106
  1902  000D24                     l7096:
  1903                           
  1904                           ; BSR set to: 0
  1905                           ;/Applications/microchip/xc8/v2.35/pic/sources/c99/common/doprnt.c: 313:         --i;
  1906  000D24  079D               	decf	dtoa@i& (0+255),f,b
  1907  000D26  A0D8               	btfss	status,0,c
  1908  000D28  079E               	decf	(dtoa@i+1)& (0+255),f,b
  1909  000D2A                     
  1910                           ; BSR set to: 0
  1911                           ;/Applications/microchip/xc8/v2.35/pic/sources/c99/common/doprnt.c: 314:         dbuf[i]
      +                           = (char)((int)'0' + abs(n % 10));
  1912  000D2A  0E32               	movlw	low _dbuf
  1913  000D2C  259D               	addwf	dtoa@i& (0+255),w,b
  1914  000D2E  6ED9               	movwf	fsr2l,c
  1915  000D30  0E01               	movlw	high _dbuf
  1916  000D32  219E               	addwfc	(dtoa@i+1)& (0+255),w,b
  1917  000D34  6EDA               	movwf	fsr2h,c
  1918  000D36  C095  F060         	movff	dtoa@n,___aomod@dividend
  1919  000D3A  C096  F061         	movff	dtoa@n+1,___aomod@dividend+1
  1920  000D3E  C097  F062         	movff	dtoa@n+2,___aomod@dividend+2
  1921  000D42  C098  F063         	movff	dtoa@n+3,___aomod@dividend+3
  1922  000D46  C099  F064         	movff	dtoa@n+4,___aomod@dividend+4
  1923  000D4A  C09A  F065         	movff	dtoa@n+5,___aomod@dividend+5
  1924  000D4E  C09B  F066         	movff	dtoa@n+6,___aomod@dividend+6
  1925  000D52  C09C  F067         	movff	dtoa@n+7,___aomod@dividend+7
  1926  000D56  0E0A               	movlw	10
  1927  000D58  6F68               	movwf	___aomod@divisor& (0+255),b
  1928  000D5A  0E00               	movlw	0
  1929  000D5C  6F69               	movwf	(___aomod@divisor+1)& (0+255),b
  1930  000D5E  0E00               	movlw	0
  1931  000D60  6F6A               	movwf	(___aomod@divisor+2)& (0+255),b
  1932  000D62  0E00               	movlw	0
  1933  000D64  6F6B               	movwf	(___aomod@divisor+3)& (0+255),b
  1934  000D66  0E00               	movlw	0
  1935  000D68  6F6C               	movwf	(___aomod@divisor+4)& (0+255),b
  1936  000D6A  0E00               	movlw	0
  1937  000D6C  6F6D               	movwf	(___aomod@divisor+5)& (0+255),b
  1938  000D6E  0E00               	movlw	0
  1939  000D70  6F6E               	movwf	(___aomod@divisor+6)& (0+255),b
  1940  000D72  0E00               	movlw	0
  1941  000D74  6F6F               	movwf	(___aomod@divisor+7)& (0+255),b
  1942  000D76  EC42  F00D         	call	___aomod	;wreg free
  1943  000D7A  C060  F085         	movff	?___aomod,??_dtoa
  1944  000D7E  C061  F086         	movff	?___aomod+1,??_dtoa+1
  1945  000D82  C062  F087         	movff	?___aomod+2,??_dtoa+2
  1946  000D86  C063  F088         	movff	?___aomod+3,??_dtoa+3
  1947  000D8A  C064  F089         	movff	?___aomod+4,??_dtoa+4
  1948  000D8E  C065  F08A         	movff	?___aomod+5,??_dtoa+5
  1949  000D92  C066  F08B         	movff	?___aomod+6,??_dtoa+6
  1950  000D96  C067  F08C         	movff	?___aomod+7,??_dtoa+7
  1951  000D9A  C085  F072         	movff	??_dtoa,abs@a
  1952  000D9E  C087  F073         	movff	??_dtoa+2,abs@a+1
  1953  000DA2  ECC6  F019         	call	_abs	;wreg free
  1954  000DA6  0100               	movlb	0	; () banked
  1955  000DA8  5172               	movf	?_abs& (0+255),w,b
  1956  000DAA  0F30               	addlw	48
  1957  000DAC  6EDF               	movwf	indf2,c
  1958  000DAE                     
  1959                           ; BSR set to: 0
  1960                           ;/Applications/microchip/xc8/v2.35/pic/sources/c99/common/doprnt.c: 315:         --p;
  1961  000DAE  078F               	decf	dtoa@p& (0+255),f,b
  1962  000DB0  A0D8               	btfss	status,0,c
  1963  000DB2  0790               	decf	(dtoa@p+1)& (0+255),f,b
  1964  000DB4                     
  1965                           ; BSR set to: 0
  1966                           ;/Applications/microchip/xc8/v2.35/pic/sources/c99/common/doprnt.c: 316:         --w;
  1967  000DB4  0791               	decf	dtoa@w& (0+255),f,b
  1968  000DB6  A0D8               	btfss	status,0,c
  1969  000DB8  0792               	decf	(dtoa@w+1)& (0+255),f,b
  1970  000DBA                     
  1971                           ; BSR set to: 0
  1972                           ;/Applications/microchip/xc8/v2.35/pic/sources/c99/common/doprnt.c: 317:         n = n /
      +                           10;
  1973  000DBA  C095  F060         	movff	dtoa@n,___aodiv@dividend
  1974  000DBE  C096  F061         	movff	dtoa@n+1,___aodiv@dividend+1
  1975  000DC2  C097  F062         	movff	dtoa@n+2,___aodiv@dividend+2
  1976  000DC6  C098  F063         	movff	dtoa@n+3,___aodiv@dividend+3
  1977  000DCA  C099  F064         	movff	dtoa@n+4,___aodiv@dividend+4
  1978  000DCE  C09A  F065         	movff	dtoa@n+5,___aodiv@dividend+5
  1979  000DD2  C09B  F066         	movff	dtoa@n+6,___aodiv@dividend+6
  1980  000DD6  C09C  F067         	movff	dtoa@n+7,___aodiv@dividend+7
  1981  000DDA  0E0A               	movlw	10
  1982  000DDC  6F68               	movwf	___aodiv@divisor& (0+255),b
  1983  000DDE  0E00               	movlw	0
  1984  000DE0  6F69               	movwf	(___aodiv@divisor+1)& (0+255),b
  1985  000DE2  0E00               	movlw	0
  1986  000DE4  6F6A               	movwf	(___aodiv@divisor+2)& (0+255),b
  1987  000DE6  0E00               	movlw	0
  1988  000DE8  6F6B               	movwf	(___aodiv@divisor+3)& (0+255),b
  1989  000DEA  0E00               	movlw	0
  1990  000DEC  6F6C               	movwf	(___aodiv@divisor+4)& (0+255),b
  1991  000DEE  0E00               	movlw	0
  1992  000DF0  6F6D               	movwf	(___aodiv@divisor+5)& (0+255),b
  1993  000DF2  0E00               	movlw	0
  1994  000DF4  6F6E               	movwf	(___aodiv@divisor+6)& (0+255),b
  1995  000DF6  0E00               	movlw	0
  1996  000DF8  6F6F               	movwf	(___aodiv@divisor+7)& (0+255),b
  1997  000DFA  EC4C  F00A         	call	___aodiv	;wreg free
  1998  000DFE  C060  F095         	movff	?___aodiv,dtoa@n
  1999  000E02  C061  F096         	movff	?___aodiv+1,dtoa@n+1
  2000  000E06  C062  F097         	movff	?___aodiv+2,dtoa@n+2
  2001  000E0A  C063  F098         	movff	?___aodiv+3,dtoa@n+3
  2002  000E0E  C064  F099         	movff	?___aodiv+4,dtoa@n+4
  2003  000E12  C065  F09A         	movff	?___aodiv+5,dtoa@n+5
  2004  000E16  C066  F09B         	movff	?___aodiv+6,dtoa@n+6
  2005  000E1A  C067  F09C         	movff	?___aodiv+7,dtoa@n+7
  2006  000E1E                     l7106:
  2007                           
  2008                           ;/Applications/microchip/xc8/v2.35/pic/sources/c99/common/doprnt.c: 312:     while (!(i 
      +                          < 1) && (n || (0 < p) || ((0 < w) && (flags & (1 << 1))))) {
  2009  000E1E  0100               	movlb	0	; () banked
  2010  000E20  BF9E               	btfsc	(dtoa@i+1)& (0+255),7,b
  2011  000E22  EF1B  F007         	goto	u5571
  2012  000E26  519E               	movf	(dtoa@i+1)& (0+255),w,b
  2013  000E28  E108               	bnz	u5570
  2014  000E2A  059D               	decf	dtoa@i& (0+255),w,b
  2015  000E2C  A0D8               	btfss	status,0,c
  2016  000E2E  EF1B  F007         	goto	u5571
  2017  000E32  EF1D  F007         	goto	u5570
  2018  000E36                     u5571:
  2019  000E36  EF4D  F007         	goto	l7116
  2020  000E3A                     u5570:
  2021  000E3A                     
  2022                           ; BSR set to: 0
  2023  000E3A  5195               	movf	dtoa@n& (0+255),w,b
  2024  000E3C  1196               	iorwf	(dtoa@n+1)& (0+255),w,b
  2025  000E3E  1197               	iorwf	(dtoa@n+2)& (0+255),w,b
  2026  000E40  1198               	iorwf	(dtoa@n+3)& (0+255),w,b
  2027  000E42  1199               	iorwf	(dtoa@n+4)& (0+255),w,b
  2028  000E44  119A               	iorwf	(dtoa@n+5)& (0+255),w,b
  2029  000E46  119B               	iorwf	(dtoa@n+6)& (0+255),w,b
  2030  000E48  119C               	iorwf	(dtoa@n+7)& (0+255),w,b
  2031  000E4A  A4D8               	btfss	status,2,c
  2032  000E4C  EF2A  F007         	goto	u5581
  2033  000E50  EF2C  F007         	goto	u5580
  2034  000E54                     u5581:
  2035  000E54  EF92  F006         	goto	l7096
  2036  000E58                     u5580:
  2037  000E58                     
  2038                           ; BSR set to: 0
  2039  000E58  BF90               	btfsc	(dtoa@p+1)& (0+255),7,b
  2040  000E5A  EF39  F007         	goto	u5590
  2041  000E5E  5190               	movf	(dtoa@p+1)& (0+255),w,b
  2042  000E60  E106               	bnz	u5591
  2043  000E62  058F               	decf	dtoa@p& (0+255),w,b
  2044  000E64  B0D8               	btfsc	status,0,c
  2045  000E66  EF37  F007         	goto	u5591
  2046  000E6A  EF39  F007         	goto	u5590
  2047  000E6E                     u5591:
  2048  000E6E  EF92  F006         	goto	l7096
  2049  000E72                     u5590:
  2050  000E72                     
  2051                           ; BSR set to: 0
  2052  000E72  BF92               	btfsc	(dtoa@w+1)& (0+255),7,b
  2053  000E74  EF44  F007         	goto	u5601
  2054  000E78  5192               	movf	(dtoa@w+1)& (0+255),w,b
  2055  000E7A  E108               	bnz	u5600
  2056  000E7C  0591               	decf	dtoa@w& (0+255),w,b
  2057  000E7E  A0D8               	btfss	status,0,c
  2058  000E80  EF44  F007         	goto	u5601
  2059  000E84  EF46  F007         	goto	u5600
  2060  000E88                     u5601:
  2061  000E88  EF4D  F007         	goto	l7116
  2062  000E8C                     u5600:
  2063  000E8C                     
  2064                           ; BSR set to: 0
  2065  000E8C  B3EE               	btfsc	_flags& (0+255),1,b
  2066  000E8E  EF4B  F007         	goto	u5611
  2067  000E92  EF4D  F007         	goto	u5610
  2068  000E96                     u5611:
  2069  000E96  EF92  F006         	goto	l7096
  2070  000E9A                     u5610:
  2071  000E9A                     l7116:
  2072                           
  2073                           ; BSR set to: 0
  2074                           ;/Applications/microchip/xc8/v2.35/pic/sources/c99/common/doprnt.c: 321:     if (s || (f
      +                          lags & (1 << 2))) {
  2075  000E9A  5193               	movf	dtoa@s& (0+255),w,b
  2076  000E9C  1194               	iorwf	(dtoa@s+1)& (0+255),w,b
  2077  000E9E  A4D8               	btfss	status,2,c
  2078  000EA0  EF54  F007         	goto	u5621
  2079  000EA4  EF56  F007         	goto	u5620
  2080  000EA8                     u5621:
  2081  000EA8  EF5D  F007         	goto	l7120
  2082  000EAC                     u5620:
  2083  000EAC                     
  2084                           ; BSR set to: 0
  2085  000EAC  A5EE               	btfss	_flags& (0+255),2,b
  2086  000EAE  EF5B  F007         	goto	u5631
  2087  000EB2  EF5D  F007         	goto	u5630
  2088  000EB6                     u5631:
  2089  000EB6  EF7B  F007         	goto	l7130
  2090  000EBA                     u5630:
  2091  000EBA                     l7120:
  2092                           
  2093                           ; BSR set to: 0
  2094                           ;/Applications/microchip/xc8/v2.35/pic/sources/c99/common/doprnt.c: 322:         --i;
  2095  000EBA  079D               	decf	dtoa@i& (0+255),f,b
  2096  000EBC  A0D8               	btfss	status,0,c
  2097  000EBE  079E               	decf	(dtoa@i+1)& (0+255),f,b
  2098  000EC0                     
  2099                           ; BSR set to: 0
  2100                           ;/Applications/microchip/xc8/v2.35/pic/sources/c99/common/doprnt.c: 323:         dbuf[i]
      +                           = s ? '-' : '+';
  2101  000EC0  5193               	movf	dtoa@s& (0+255),w,b
  2102  000EC2  1194               	iorwf	(dtoa@s+1)& (0+255),w,b
  2103  000EC4  A4D8               	btfss	status,2,c
  2104  000EC6  EF67  F007         	goto	u5641
  2105  000ECA  EF69  F007         	goto	u5640
  2106  000ECE                     u5641:
  2107  000ECE  EF6F  F007         	goto	l7126
  2108  000ED2                     u5640:
  2109  000ED2                     
  2110                           ; BSR set to: 0
  2111  000ED2  0E00               	movlw	0
  2112  000ED4  6F8E               	movwf	(_dtoa$4169+1)& (0+255),b
  2113  000ED6  0E2B               	movlw	43
  2114  000ED8  6F8D               	movwf	_dtoa$4169& (0+255),b
  2115  000EDA  EF73  F007         	goto	l7128
  2116  000EDE                     l7126:
  2117                           
  2118                           ; BSR set to: 0
  2119  000EDE  0E00               	movlw	0
  2120  000EE0  6F8E               	movwf	(_dtoa$4169+1)& (0+255),b
  2121  000EE2  0E2D               	movlw	45
  2122  000EE4  6F8D               	movwf	_dtoa$4169& (0+255),b
  2123  000EE6                     l7128:
  2124                           
  2125                           ; BSR set to: 0
  2126  000EE6  0E32               	movlw	low _dbuf
  2127  000EE8  259D               	addwf	dtoa@i& (0+255),w,b
  2128  000EEA  6ED9               	movwf	fsr2l,c
  2129  000EEC  0E01               	movlw	high _dbuf
  2130  000EEE  219E               	addwfc	(dtoa@i+1)& (0+255),w,b
  2131  000EF0  6EDA               	movwf	fsr2h,c
  2132  000EF2  C08D  FFDF         	movff	_dtoa$4169,indf2
  2133  000EF6                     l7130:
  2134                           
  2135                           ; BSR set to: 0
  2136                           ;/Applications/microchip/xc8/v2.35/pic/sources/c99/common/doprnt.c: 327:     return pad(
      +                          fp, &dbuf[i], w);
  2137  000EF6  C07B  F070         	movff	dtoa@fp,pad@fp
  2138  000EFA  C07C  F071         	movff	dtoa@fp+1,pad@fp+1
  2139  000EFE  0E32               	movlw	low _dbuf
  2140  000F00  259D               	addwf	dtoa@i& (0+255),w,b
  2141  000F02  6F72               	movwf	pad@buf& (0+255),b
  2142  000F04  0E01               	movlw	high _dbuf
  2143  000F06  219E               	addwfc	(dtoa@i+1)& (0+255),w,b
  2144  000F08  6F73               	movwf	(pad@buf+1)& (0+255),b
  2145  000F0A  C091  F074         	movff	dtoa@w,pad@p
  2146  000F0E  C092  F075         	movff	dtoa@w+1,pad@p+1
  2147  000F12  ECC5  F015         	call	_pad	;wreg free
  2148  000F16  C070  F07B         	movff	?_pad,?_dtoa
  2149  000F1A  C071  F07C         	movff	?_pad+1,?_dtoa+1
  2150  000F1E  0012               	return		;funcret
  2151  000F20                     __end_of_dtoa:
  2152                           	callstack 0
  2153                           
  2154 ;; *************** function _pad *****************
  2155 ;; Defined at:
  2156 ;;		line 72 in file "/Applications/microchip/xc8/v2.35/pic/sources/c99/common/doprnt.c"
  2157 ;; Parameters:    Size  Location     Type
  2158 ;;  fp              2   16[BANK0 ] PTR struct _IO_FILE
  2159 ;;		 -> sprintf@f(11), 
  2160 ;;  buf             2   18[BANK0 ] PTR unsigned char 
  2161 ;;		 -> dbuf(32), 
  2162 ;;  p               2   20[BANK0 ] int 
  2163 ;; Auto vars:     Size  Location     Type
  2164 ;;  w               2   25[BANK0 ] int 
  2165 ;;  i               2   23[BANK0 ] int 
  2166 ;; Return value:  Size  Location     Type
  2167 ;;                  2   16[BANK0 ] int 
  2168 ;; Registers used:
  2169 ;;		wreg, fsr1l, fsr1h, fsr2l, fsr2h, status,2, status,0, cstack
  2170 ;; Tracked objects:
  2171 ;;		On entry : 0/0
  2172 ;;		On exit  : 0/0
  2173 ;;		Unchanged: 0/0
  2174 ;; Data sizes:     COMRAM   BANK0   BANK1   BANK2   BANK3   BANK4   BANK5   BANK6   BANK7
  2175 ;;      Params:         0       6       0       0       0       0       0       0       0
  2176 ;;      Locals:         0       4       0       0       0       0       0       0       0
  2177 ;;      Temps:          0       1       0       0       0       0       0       0       0
  2178 ;;      Totals:         0      11       0       0       0       0       0       0       0
  2179 ;;Total ram usage:       11 bytes
  2180 ;; Hardware stack levels used: 1
  2181 ;; Hardware stack levels required when called: 13
  2182 ;; This function calls:
  2183 ;;		_fputc
  2184 ;;		_fputs
  2185 ;;		_strlen
  2186 ;; This function is called by:
  2187 ;;		_dtoa
  2188 ;; This function uses a non-reentrant model
  2189 ;;
  2190                           
  2191                           	psect	text5
  2192  002B8A                     __ptext5:
  2193                           	callstack 0
  2194  002B8A                     _pad:
  2195                           	callstack 13
  2196  002B8A                     
  2197                           ;/Applications/microchip/xc8/v2.35/pic/sources/c99/common/doprnt.c: 72: static int pad(F
      +                          ILE *fp, char *buf, int p);/Applications/microchip/xc8/v2.35/pic/sources/c99/common/dopr
      +                          nt.c: 73: {;/Applications/microchip/xc8/v2.35/pic/sources/c99/common/doprnt.c: 74:     i
      +                          nt i, w;;/Applications/microchip/xc8/v2.35/pic/sources/c99/common/doprnt.c: 77:     if (
      +                          flags & (1 << 0)) {
  2198  002B8A  0100               	movlb	0	; () banked
  2199  002B8C  A1EE               	btfss	_flags& (0+255),0,b
  2200  002B8E  EFCB  F015         	goto	u5451
  2201  002B92  EFCD  F015         	goto	u5450
  2202  002B96                     u5451:
  2203  002B96  EFD7  F015         	goto	l7050
  2204  002B9A                     u5450:
  2205  002B9A                     
  2206                           ; BSR set to: 0
  2207                           ;/Applications/microchip/xc8/v2.35/pic/sources/c99/common/doprnt.c: 78:         fputs((c
      +                          onst char *)buf, fp);
  2208  002B9A  C072  F069         	movff	pad@buf,fputs@s
  2209  002B9E  C073  F06A         	movff	pad@buf+1,fputs@s+1
  2210  002BA2  C070  F06B         	movff	pad@fp,fputs@fp
  2211  002BA6  C071  F06C         	movff	pad@fp+1,fputs@fp+1
  2212  002BAA  ECA2  F019         	call	_fputs	;wreg free
  2213  002BAE                     l7050:
  2214                           
  2215                           ;/Applications/microchip/xc8/v2.35/pic/sources/c99/common/doprnt.c: 82:     w = (p < 0) 
      +                          ? 0 : p;
  2216  002BAE  0100               	movlb	0	; () banked
  2217  002BB0  BF75               	btfsc	(pad@p+1)& (0+255),7,b
  2218  002BB2  EFDD  F015         	goto	u5461
  2219  002BB6  EFDF  F015         	goto	u5460
  2220  002BBA                     u5461:
  2221  002BBA  EFE5  F015         	goto	l7054
  2222  002BBE                     u5460:
  2223  002BBE                     
  2224                           ; BSR set to: 0
  2225  002BBE  C074  F079         	movff	pad@p,pad@w
  2226  002BC2  C075  F07A         	movff	pad@p+1,pad@w+1
  2227  002BC6  EFE9  F015         	goto	l1925
  2228  002BCA                     l7054:
  2229                           
  2230                           ; BSR set to: 0
  2231  002BCA  0E00               	movlw	0
  2232  002BCC  6F7A               	movwf	(pad@w+1)& (0+255),b
  2233  002BCE  0E00               	movlw	0
  2234  002BD0  6F79               	movwf	pad@w& (0+255),b
  2235  002BD2                     l1925:
  2236                           
  2237                           ; BSR set to: 0
  2238                           ;/Applications/microchip/xc8/v2.35/pic/sources/c99/common/doprnt.c: 83:     i = 0;
  2239  002BD2  0E00               	movlw	0
  2240  002BD4  6F78               	movwf	(pad@i+1)& (0+255),b
  2241  002BD6  0E00               	movlw	0
  2242  002BD8  6F77               	movwf	pad@i& (0+255),b
  2243                           
  2244                           ;/Applications/microchip/xc8/v2.35/pic/sources/c99/common/doprnt.c: 84:     while (i < w
      +                          ) {
  2245  002BDA  EFFC  F015         	goto	l7060
  2246  002BDE                     l7056:
  2247                           
  2248                           ; BSR set to: 0
  2249                           ;/Applications/microchip/xc8/v2.35/pic/sources/c99/common/doprnt.c: 85:         fputc(' 
      +                          ', fp);
  2250  002BDE  0E00               	movlw	0
  2251  002BE0  6F61               	movwf	(fputc@c+1)& (0+255),b
  2252  002BE2  0E20               	movlw	32
  2253  002BE4  6F60               	movwf	fputc@c& (0+255),b
  2254  002BE6  C070  F062         	movff	pad@fp,fputc@fp
  2255  002BEA  C071  F063         	movff	pad@fp+1,fputc@fp+1
  2256  002BEE  EC5F  F015         	call	_fputc	;wreg free
  2257  002BF2                     
  2258                           ;/Applications/microchip/xc8/v2.35/pic/sources/c99/common/doprnt.c: 86:         ++i;
  2259  002BF2  0100               	movlb	0	; () banked
  2260  002BF4  4B77               	infsnz	pad@i& (0+255),f,b
  2261  002BF6  2B78               	incf	(pad@i+1)& (0+255),f,b
  2262  002BF8                     l7060:
  2263                           
  2264                           ; BSR set to: 0
  2265                           ;/Applications/microchip/xc8/v2.35/pic/sources/c99/common/doprnt.c: 84:     while (i < w
      +                          ) {
  2266  002BF8  5179               	movf	pad@w& (0+255),w,b
  2267  002BFA  5D77               	subwf	pad@i& (0+255),w,b
  2268  002BFC  5178               	movf	(pad@i+1)& (0+255),w,b
  2269  002BFE  0A80               	xorlw	128
  2270  002C00  6F76               	movwf	??_pad& (0+255),b
  2271  002C02  517A               	movf	(pad@w+1)& (0+255),w,b
  2272  002C04  0A80               	xorlw	128
  2273  002C06  5976               	subwfb	??_pad& (0+255),w,b
  2274  002C08  A0D8               	btfss	status,0,c
  2275  002C0A  EF09  F016         	goto	u5471
  2276  002C0E  EF0B  F016         	goto	u5470
  2277  002C12                     u5471:
  2278  002C12  EFEF  F015         	goto	l7056
  2279  002C16                     u5470:
  2280  002C16                     
  2281                           ; BSR set to: 0
  2282                           ;/Applications/microchip/xc8/v2.35/pic/sources/c99/common/doprnt.c: 90:     if (!(flags 
      +                          & (1 << 0))) {
  2283  002C16  B1EE               	btfsc	_flags& (0+255),0,b
  2284  002C18  EF10  F016         	goto	u5481
  2285  002C1C  EF12  F016         	goto	u5480
  2286  002C20                     u5481:
  2287  002C20  EF1C  F016         	goto	l7064
  2288  002C24                     u5480:
  2289  002C24                     
  2290                           ; BSR set to: 0
  2291                           ;/Applications/microchip/xc8/v2.35/pic/sources/c99/common/doprnt.c: 91:         fputs((c
      +                          onst char *)buf, fp);
  2292  002C24  C072  F069         	movff	pad@buf,fputs@s
  2293  002C28  C073  F06A         	movff	pad@buf+1,fputs@s+1
  2294  002C2C  C070  F06B         	movff	pad@fp,fputs@fp
  2295  002C30  C071  F06C         	movff	pad@fp+1,fputs@fp+1
  2296  002C34  ECA2  F019         	call	_fputs	;wreg free
  2297  002C38                     l7064:
  2298                           
  2299                           ;/Applications/microchip/xc8/v2.35/pic/sources/c99/common/doprnt.c: 94:     return (int)
      +                          (strlen(buf) + (size_t)w);
  2300  002C38  C072  F060         	movff	pad@buf,strlen@s
  2301  002C3C  C073  F061         	movff	pad@buf+1,strlen@s+1
  2302  002C40  EC48  F01A         	call	_strlen	;wreg free
  2303  002C44  0100               	movlb	0	; () banked
  2304  002C46  5179               	movf	pad@w& (0+255),w,b
  2305  002C48  2560               	addwf	?_strlen& (0+255),w,b
  2306  002C4A  6F70               	movwf	?_pad& (0+255),b
  2307  002C4C  517A               	movf	(pad@w+1)& (0+255),w,b
  2308  002C4E  2161               	addwfc	(?_strlen+1)& (0+255),w,b
  2309  002C50  6F71               	movwf	(?_pad+1)& (0+255),b
  2310  002C52                     
  2311                           ; BSR set to: 0
  2312  002C52  0012               	return		;funcret
  2313  002C54                     __end_of_pad:
  2314                           	callstack 0
  2315                           
  2316 ;; *************** function _strlen *****************
  2317 ;; Defined at:
  2318 ;;		line 5 in file "/Applications/microchip/xc8/v2.35/pic/sources/c99/common/strlen.c"
  2319 ;; Parameters:    Size  Location     Type
  2320 ;;  s               2    0[BANK0 ] PTR const unsigned char 
  2321 ;;		 -> dbuf(32), 
  2322 ;; Auto vars:     Size  Location     Type
  2323 ;;  a               2    2[BANK0 ] PTR const unsigned char 
  2324 ;;		 -> dbuf(32), 
  2325 ;; Return value:  Size  Location     Type
  2326 ;;                  2    0[BANK0 ] unsigned int 
  2327 ;; Registers used:
  2328 ;;		wreg, fsr2l, fsr2h, status,2, status,0
  2329 ;; Tracked objects:
  2330 ;;		On entry : 0/0
  2331 ;;		On exit  : 0/0
  2332 ;;		Unchanged: 0/0
  2333 ;; Data sizes:     COMRAM   BANK0   BANK1   BANK2   BANK3   BANK4   BANK5   BANK6   BANK7
  2334 ;;      Params:         0       2       0       0       0       0       0       0       0
  2335 ;;      Locals:         0       2       0       0       0       0       0       0       0
  2336 ;;      Temps:          0       0       0       0       0       0       0       0       0
  2337 ;;      Totals:         0       4       0       0       0       0       0       0       0
  2338 ;;Total ram usage:        4 bytes
  2339 ;; Hardware stack levels used: 1
  2340 ;; Hardware stack levels required when called: 10
  2341 ;; This function calls:
  2342 ;;		Nothing
  2343 ;; This function is called by:
  2344 ;;		_pad
  2345 ;; This function uses a non-reentrant model
  2346 ;;
  2347                           
  2348                           	psect	text6
  2349  003490                     __ptext6:
  2350                           	callstack 0
  2351  003490                     _strlen:
  2352                           	callstack 15
  2353  003490  C060  F062         	movff	strlen@s,strlen@a
  2354  003494  C061  F063         	movff	strlen@s+1,strlen@a+1
  2355  003498  EF51  F01A         	goto	l6960
  2356  00349C                     l6958:
  2357  00349C  0100               	movlb	0	; () banked
  2358  00349E  4B60               	infsnz	strlen@s& (0+255),f,b
  2359  0034A0  2B61               	incf	(strlen@s+1)& (0+255),f,b
  2360  0034A2                     l6960:
  2361  0034A2  C060  FFD9         	movff	strlen@s,fsr2l
  2362  0034A6  C061  FFDA         	movff	strlen@s+1,fsr2h
  2363  0034AA  50DF               	movf	indf2,w,c
  2364  0034AC  A4D8               	btfss	status,2,c
  2365  0034AE  EF5B  F01A         	goto	u5311
  2366  0034B2  EF5D  F01A         	goto	u5310
  2367  0034B6                     u5311:
  2368  0034B6  EF4E  F01A         	goto	l6958
  2369  0034BA                     u5310:
  2370  0034BA  0100               	movlb	0	; () banked
  2371  0034BC  5162               	movf	strlen@a& (0+255),w,b
  2372  0034BE  5D60               	subwf	strlen@s& (0+255),w,b
  2373  0034C0  6F60               	movwf	?_strlen& (0+255),b
  2374  0034C2  5163               	movf	(strlen@a+1)& (0+255),w,b
  2375  0034C4  5961               	subwfb	(strlen@s+1)& (0+255),w,b
  2376  0034C6  6F61               	movwf	(?_strlen+1)& (0+255),b
  2377  0034C8                     
  2378                           ; BSR set to: 0
  2379  0034C8  0012               	return		;funcret
  2380  0034CA                     __end_of_strlen:
  2381                           	callstack 0
  2382                           
  2383 ;; *************** function _fputs *****************
  2384 ;; Defined at:
  2385 ;;		line 8 in file "/Applications/microchip/xc8/v2.35/pic/sources/c99/common/nf_fputs.c"
  2386 ;; Parameters:    Size  Location     Type
  2387 ;;  s               2    9[BANK0 ] PTR const unsigned char 
  2388 ;;		 -> dbuf(32), 
  2389 ;;  fp              2   11[BANK0 ] PTR struct _IO_FILE
  2390 ;;		 -> sprintf@f(11), 
  2391 ;; Auto vars:     Size  Location     Type
  2392 ;;  i               2   14[BANK0 ] int 
  2393 ;;  c               1   13[BANK0 ] unsigned char 
  2394 ;; Return value:  Size  Location     Type
  2395 ;;                  2    9[BANK0 ] int 
  2396 ;; Registers used:
  2397 ;;		wreg, fsr1l, fsr1h, fsr2l, fsr2h, status,2, status,0, cstack
  2398 ;; Tracked objects:
  2399 ;;		On entry : 0/0
  2400 ;;		On exit  : 0/0
  2401 ;;		Unchanged: 0/0
  2402 ;; Data sizes:     COMRAM   BANK0   BANK1   BANK2   BANK3   BANK4   BANK5   BANK6   BANK7
  2403 ;;      Params:         0       4       0       0       0       0       0       0       0
  2404 ;;      Locals:         0       3       0       0       0       0       0       0       0
  2405 ;;      Temps:          0       0       0       0       0       0       0       0       0
  2406 ;;      Totals:         0       7       0       0       0       0       0       0       0
  2407 ;;Total ram usage:        7 bytes
  2408 ;; Hardware stack levels used: 1
  2409 ;; Hardware stack levels required when called: 12
  2410 ;; This function calls:
  2411 ;;		_fputc
  2412 ;; This function is called by:
  2413 ;;		_pad
  2414 ;; This function uses a non-reentrant model
  2415 ;;
  2416                           
  2417                           	psect	text7
  2418  003344                     __ptext7:
  2419                           	callstack 0
  2420  003344                     _fputs:
  2421                           	callstack 13
  2422  003344  0E00               	movlw	0
  2423  003346  0100               	movlb	0	; () banked
  2424  003348  6F6F               	movwf	(fputs@i+1)& (0+255),b
  2425  00334A  0E00               	movlw	0
  2426  00334C  6F6E               	movwf	fputs@i& (0+255),b
  2427  00334E  EFB5  F019         	goto	l6954
  2428  003352                     l6950:
  2429                           
  2430                           ; BSR set to: 0
  2431  003352  C06D  F060         	movff	fputs@c,fputc@c
  2432  003356  6B61               	clrf	(fputc@c+1)& (0+255),b
  2433  003358  C06B  F062         	movff	fputs@fp,fputc@fp
  2434  00335C  C06C  F063         	movff	fputs@fp+1,fputc@fp+1
  2435  003360  EC5F  F015         	call	_fputc	;wreg free
  2436  003364  0100               	movlb	0	; () banked
  2437  003366  4B6E               	infsnz	fputs@i& (0+255),f,b
  2438  003368  2B6F               	incf	(fputs@i+1)& (0+255),f,b
  2439  00336A                     l6954:
  2440                           
  2441                           ; BSR set to: 0
  2442  00336A  516E               	movf	fputs@i& (0+255),w,b
  2443  00336C  2569               	addwf	fputs@s& (0+255),w,b
  2444  00336E  6ED9               	movwf	fsr2l,c
  2445  003370  516F               	movf	(fputs@i+1)& (0+255),w,b
  2446  003372  216A               	addwfc	(fputs@s+1)& (0+255),w,b
  2447  003374  6EDA               	movwf	fsr2h,c
  2448  003376  50DF               	movf	indf2,w,c
  2449  003378  6F6D               	movwf	fputs@c& (0+255),b
  2450  00337A  516D               	movf	fputs@c& (0+255),w,b
  2451  00337C  A4D8               	btfss	status,2,c
  2452  00337E  EFC3  F019         	goto	u5301
  2453  003382  EFC5  F019         	goto	u5300
  2454  003386                     u5301:
  2455  003386  EFA9  F019         	goto	l6950
  2456  00338A                     u5300:
  2457  00338A                     
  2458                           ; BSR set to: 0
  2459  00338A  0012               	return		;funcret
  2460  00338C                     __end_of_fputs:
  2461                           	callstack 0
  2462                           
  2463 ;; *************** function _fputc *****************
  2464 ;; Defined at:
  2465 ;;		line 8 in file "/Applications/microchip/xc8/v2.35/pic/sources/c99/common/nf_fputc.c"
  2466 ;; Parameters:    Size  Location     Type
  2467 ;;  c               2    0[BANK0 ] int 
  2468 ;;  fp              2    2[BANK0 ] PTR struct _IO_FILE
  2469 ;;		 -> sprintf@f(11), 
  2470 ;; Auto vars:     Size  Location     Type
  2471 ;;		None
  2472 ;; Return value:  Size  Location     Type
  2473 ;;                  2    0[BANK0 ] int 
  2474 ;; Registers used:
  2475 ;;		wreg, fsr1l, fsr1h, fsr2l, fsr2h, status,2, status,0, cstack
  2476 ;; Tracked objects:
  2477 ;;		On entry : 0/0
  2478 ;;		On exit  : 0/0
  2479 ;;		Unchanged: 0/0
  2480 ;; Data sizes:     COMRAM   BANK0   BANK1   BANK2   BANK3   BANK4   BANK5   BANK6   BANK7
  2481 ;;      Params:         0       4       0       0       0       0       0       0       0
  2482 ;;      Locals:         0       0       0       0       0       0       0       0       0
  2483 ;;      Temps:          0       5       0       0       0       0       0       0       0
  2484 ;;      Totals:         0       9       0       0       0       0       0       0       0
  2485 ;;Total ram usage:        9 bytes
  2486 ;; Hardware stack levels used: 1
  2487 ;; Hardware stack levels required when called: 11
  2488 ;; This function calls:
  2489 ;;		_putch
  2490 ;; This function is called by:
  2491 ;;		_pad
  2492 ;;		_vfpfcnvrt
  2493 ;;		_fputs
  2494 ;; This function uses a non-reentrant model
  2495 ;;
  2496                           
  2497                           	psect	text8
  2498  002ABE                     __ptext8:
  2499                           	callstack 0
  2500  002ABE                     _fputc:
  2501                           	callstack 16
  2502  002ABE  0100               	movlb	0	; () banked
  2503  002AC0  5162               	movf	fputc@fp& (0+255),w,b
  2504  002AC2  1163               	iorwf	(fputc@fp+1)& (0+255),w,b
  2505  002AC4  B4D8               	btfsc	status,2,c
  2506  002AC6  EF67  F015         	goto	u5261
  2507  002ACA  EF69  F015         	goto	u5260
  2508  002ACE                     u5261:
  2509  002ACE  EF72  F015         	goto	l6938
  2510  002AD2                     u5260:
  2511  002AD2                     
  2512                           ; BSR set to: 0
  2513  002AD2  5162               	movf	fputc@fp& (0+255),w,b
  2514  002AD4  1163               	iorwf	(fputc@fp+1)& (0+255),w,b
  2515  002AD6  A4D8               	btfss	status,2,c
  2516  002AD8  EF70  F015         	goto	u5271
  2517  002ADC  EF72  F015         	goto	u5270
  2518  002AE0                     u5271:
  2519  002AE0  EF77  F015         	goto	l6940
  2520  002AE4                     u5270:
  2521  002AE4                     l6938:
  2522                           
  2523                           ; BSR set to: 0
  2524  002AE4  5160               	movf	fputc@c& (0+255),w,b
  2525  002AE6  ECCC  F01A         	call	_putch
  2526  002AEA  EFC4  F015         	goto	l1989
  2527  002AEE                     l6940:
  2528                           
  2529                           ; BSR set to: 0
  2530  002AEE  EE20 F009          	lfsr	2,9
  2531  002AF2  5162               	movf	fputc@fp& (0+255),w,b
  2532  002AF4  26D9               	addwf	fsr2l,f,c
  2533  002AF6  5163               	movf	(fputc@fp+1)& (0+255),w,b
  2534  002AF8  22DA               	addwfc	fsr2h,f,c
  2535  002AFA  50DE               	movf	postinc2,w,c
  2536  002AFC  10DE               	iorwf	postinc2,w,c
  2537  002AFE  B4D8               	btfsc	status,2,c
  2538  002B00  EF84  F015         	goto	u5281
  2539  002B04  EF86  F015         	goto	u5280
  2540  002B08                     u5281:
  2541  002B08  EFA1  F015         	goto	l6944
  2542  002B0C                     u5280:
  2543  002B0C                     
  2544                           ; BSR set to: 0
  2545  002B0C  EE20 F009          	lfsr	2,9
  2546  002B10  5162               	movf	fputc@fp& (0+255),w,b
  2547  002B12  26D9               	addwf	fsr2l,f,c
  2548  002B14  5163               	movf	(fputc@fp+1)& (0+255),w,b
  2549  002B16  22DA               	addwfc	fsr2h,f,c
  2550  002B18  EE10 F003          	lfsr	1,3
  2551  002B1C  5162               	movf	fputc@fp& (0+255),w,b
  2552  002B1E  26E1               	addwf	fsr1l,f,c
  2553  002B20  5163               	movf	(fputc@fp+1)& (0+255),w,b
  2554  002B22  22E2               	addwfc	fsr1h,f,c
  2555  002B24  50DE               	movf	postinc2,w,c
  2556  002B26  5CE6               	subwf	postinc1,w,c
  2557  002B28  50E6               	movf	postinc1,w,c
  2558  002B2A  0A80               	xorlw	128
  2559  002B2C  6F68               	movwf	(??_fputc+4)& (0+255),b
  2560  002B2E  50DE               	movf	postinc2,w,c
  2561  002B30  0A80               	xorlw	128
  2562  002B32  5968               	subwfb	(??_fputc+4)& (0+255),w,b
  2563  002B34  B0D8               	btfsc	status,0,c
  2564  002B36  EF9F  F015         	goto	u5291
  2565  002B3A  EFA1  F015         	goto	u5290
  2566  002B3E                     u5291:
  2567  002B3E  EFC4  F015         	goto	l1989
  2568  002B42                     u5290:
  2569  002B42                     l6944:
  2570                           
  2571                           ; BSR set to: 0
  2572  002B42  EE20 F003          	lfsr	2,3
  2573  002B46  5162               	movf	fputc@fp& (0+255),w,b
  2574  002B48  26D9               	addwf	fsr2l,f,c
  2575  002B4A  5163               	movf	(fputc@fp+1)& (0+255),w,b
  2576  002B4C  22DA               	addwfc	fsr2h,f,c
  2577  002B4E  CFDE F064          	movff	postinc2,??_fputc
  2578  002B52  CFDD F065          	movff	postdec2,??_fputc+1
  2579  002B56  C062  FFD9         	movff	fputc@fp,fsr2l
  2580  002B5A  C063  FFDA         	movff	fputc@fp+1,fsr2h
  2581  002B5E  CFDE F066          	movff	postinc2,??_fputc+2
  2582  002B62  CFDD F067          	movff	postdec2,??_fputc+3
  2583  002B66  5164               	movf	??_fputc& (0+255),w,b
  2584  002B68  2566               	addwf	(??_fputc+2)& (0+255),w,b
  2585  002B6A  6ED9               	movwf	fsr2l,c
  2586  002B6C  5165               	movf	(??_fputc+1)& (0+255),w,b
  2587  002B6E  2167               	addwfc	(??_fputc+3)& (0+255),w,b
  2588  002B70  6EDA               	movwf	fsr2h,c
  2589  002B72  C060  FFDF         	movff	fputc@c,indf2
  2590  002B76  EE20 F003          	lfsr	2,3
  2591  002B7A  5162               	movf	fputc@fp& (0+255),w,b
  2592  002B7C  26D9               	addwf	fsr2l,f,c
  2593  002B7E  5163               	movf	(fputc@fp+1)& (0+255),w,b
  2594  002B80  22DA               	addwfc	fsr2h,f,c
  2595  002B82  2ADE               	incf	postinc2,f,c
  2596  002B84  0E00               	movlw	0
  2597  002B86  22DD               	addwfc	postdec2,f,c
  2598  002B88                     l1989:
  2599  002B88  0012               	return		;funcret
  2600  002B8A                     __end_of_fputc:
  2601                           	callstack 0
  2602                           
  2603 ;; *************** function _putch *****************
  2604 ;; Defined at:
  2605 ;;		line 7 in file "/Applications/microchip/xc8/v2.35/pic/sources/c99/common/putch.c"
  2606 ;; Parameters:    Size  Location     Type
  2607 ;;  c               1    wreg     unsigned char 
  2608 ;; Auto vars:     Size  Location     Type
  2609 ;;  c               1    0[COMRAM] unsigned char 
  2610 ;; Return value:  Size  Location     Type
  2611 ;;                  1    wreg      void 
  2612 ;; Registers used:
  2613 ;;		wreg
  2614 ;; Tracked objects:
  2615 ;;		On entry : 0/0
  2616 ;;		On exit  : 0/0
  2617 ;;		Unchanged: 0/0
  2618 ;; Data sizes:     COMRAM   BANK0   BANK1   BANK2   BANK3   BANK4   BANK5   BANK6   BANK7
  2619 ;;      Params:         0       0       0       0       0       0       0       0       0
  2620 ;;      Locals:         0       0       0       0       0       0       0       0       0
  2621 ;;      Temps:          0       0       0       0       0       0       0       0       0
  2622 ;;      Totals:         0       0       0       0       0       0       0       0       0
  2623 ;;Total ram usage:        0 bytes
  2624 ;; Hardware stack levels used: 1
  2625 ;; Hardware stack levels required when called: 10
  2626 ;; This function calls:
  2627 ;;		Nothing
  2628 ;; This function is called by:
  2629 ;;		_fputc
  2630 ;; This function uses a non-reentrant model
  2631 ;;
  2632                           
  2633                           	psect	text9
  2634  003598                     __ptext9:
  2635                           	callstack 0
  2636  003598                     _putch:
  2637                           	callstack 16
  2638  003598  0012               	return		;funcret
  2639  00359A                     __end_of_putch:
  2640                           	callstack 0
  2641                           
  2642 ;; *************** function _abs *****************
  2643 ;; Defined at:
  2644 ;;		line 1 in file "/Applications/microchip/xc8/v2.35/pic/sources/c99/common/abs.c"
  2645 ;; Parameters:    Size  Location     Type
  2646 ;;  a               2   18[BANK0 ] int 
  2647 ;; Auto vars:     Size  Location     Type
  2648 ;;		None
  2649 ;; Return value:  Size  Location     Type
  2650 ;;                  2   18[BANK0 ] int 
  2651 ;; Registers used:
  2652 ;;		wreg, status,2, status,0
  2653 ;; Tracked objects:
  2654 ;;		On entry : 0/0
  2655 ;;		On exit  : 0/0
  2656 ;;		Unchanged: 0/0
  2657 ;; Data sizes:     COMRAM   BANK0   BANK1   BANK2   BANK3   BANK4   BANK5   BANK6   BANK7
  2658 ;;      Params:         0       2       0       0       0       0       0       0       0
  2659 ;;      Locals:         0       0       0       0       0       0       0       0       0
  2660 ;;      Temps:          0       2       0       0       0       0       0       0       0
  2661 ;;      Totals:         0       4       0       0       0       0       0       0       0
  2662 ;;Total ram usage:        4 bytes
  2663 ;; Hardware stack levels used: 1
  2664 ;; Hardware stack levels required when called: 10
  2665 ;; This function calls:
  2666 ;;		Nothing
  2667 ;; This function is called by:
  2668 ;;		_dtoa
  2669 ;; This function uses a non-reentrant model
  2670 ;;
  2671                           
  2672                           	psect	text10
  2673  00338C                     __ptext10:
  2674                           	callstack 0
  2675  00338C                     _abs:
  2676                           	callstack 16
  2677  00338C  0100               	movlb	0	; () banked
  2678  00338E  BF73               	btfsc	(abs@a+1)& (0+255),7,b
  2679  003390  EFD4  F019         	goto	u5490
  2680  003394  5173               	movf	(abs@a+1)& (0+255),w,b
  2681  003396  E106               	bnz	u5491
  2682  003398  0572               	decf	abs@a& (0+255),w,b
  2683  00339A  B0D8               	btfsc	status,0,c
  2684  00339C  EFD2  F019         	goto	u5491
  2685  0033A0  EFD4  F019         	goto	u5490
  2686  0033A4                     u5491:
  2687  0033A4  EFE2  F019         	goto	l1974
  2688  0033A8                     u5490:
  2689  0033A8                     
  2690                           ; BSR set to: 0
  2691  0033A8  C072  F074         	movff	abs@a,??_abs
  2692  0033AC  C073  F075         	movff	abs@a+1,??_abs+1
  2693  0033B0  1F74               	comf	??_abs& (0+255),f,b
  2694  0033B2  1F75               	comf	(??_abs+1)& (0+255),f,b
  2695  0033B4  4B74               	infsnz	??_abs& (0+255),f,b
  2696  0033B6  2B75               	incf	(??_abs+1)& (0+255),f,b
  2697  0033B8  C074  F072         	movff	??_abs,?_abs
  2698  0033BC  C075  F073         	movff	??_abs+1,?_abs+1
  2699  0033C0  EFE6  F019         	goto	l1977
  2700  0033C4                     l1974:
  2701                           
  2702                           ; BSR set to: 0
  2703  0033C4  C072  F072         	movff	abs@a,?_abs
  2704  0033C8  C073  F073         	movff	abs@a+1,?_abs+1
  2705  0033CC                     l1977:
  2706                           
  2707                           ; BSR set to: 0
  2708  0033CC  0012               	return		;funcret
  2709  0033CE                     __end_of_abs:
  2710                           	callstack 0
  2711                           
  2712 ;; *************** function ___aomod *****************
  2713 ;; Defined at:
  2714 ;;		line 9 in file "/Applications/microchip/xc8/v2.35/pic/sources/c99/common/aomod.c"
  2715 ;; Parameters:    Size  Location     Type
  2716 ;;  dividend        8    0[BANK0 ] long long 
  2717 ;;  divisor         8    8[BANK0 ] long long 
  2718 ;; Auto vars:     Size  Location     Type
  2719 ;;  sign            1   17[BANK0 ] unsigned char 
  2720 ;;  counter         1   16[BANK0 ] unsigned char 
  2721 ;; Return value:  Size  Location     Type
  2722 ;;                  8    0[BANK0 ] long long 
  2723 ;; Registers used:
  2724 ;;		wreg, status,2, status,0
  2725 ;; Tracked objects:
  2726 ;;		On entry : 0/0
  2727 ;;		On exit  : 0/0
  2728 ;;		Unchanged: 0/0
  2729 ;; Data sizes:     COMRAM   BANK0   BANK1   BANK2   BANK3   BANK4   BANK5   BANK6   BANK7
  2730 ;;      Params:         0      16       0       0       0       0       0       0       0
  2731 ;;      Locals:         0       2       0       0       0       0       0       0       0
  2732 ;;      Temps:          0       0       0       0       0       0       0       0       0
  2733 ;;      Totals:         0      18       0       0       0       0       0       0       0
  2734 ;;Total ram usage:       18 bytes
  2735 ;; Hardware stack levels used: 1
  2736 ;; Hardware stack levels required when called: 10
  2737 ;; This function calls:
  2738 ;;		Nothing
  2739 ;; This function is called by:
  2740 ;;		_dtoa
  2741 ;; This function uses a non-reentrant model
  2742 ;;
  2743                           
  2744                           	psect	text11
  2745  001A84                     __ptext11:
  2746                           	callstack 0
  2747  001A84                     ___aomod:
  2748                           	callstack 16
  2749  001A84  0E00               	movlw	0
  2750  001A86  0100               	movlb	0	; () banked
  2751  001A88  6F71               	movwf	___aomod@sign& (0+255),b
  2752  001A8A                     
  2753                           ; BSR set to: 0
  2754  001A8A  BF67               	btfsc	(___aomod@dividend+7)& (0+255),7,b
  2755  001A8C  EF4C  F00D         	goto	u5390
  2756  001A90  EF4A  F00D         	goto	u5391
  2757  001A94                     u5391:
  2758  001A94  EF5E  F00D         	goto	l7018
  2759  001A98                     u5390:
  2760  001A98                     
  2761                           ; BSR set to: 0
  2762  001A98  1F67               	comf	(___aomod@dividend+7)& (0+255),f,b
  2763  001A9A  1F66               	comf	(___aomod@dividend+6)& (0+255),f,b
  2764  001A9C  1F65               	comf	(___aomod@dividend+5)& (0+255),f,b
  2765  001A9E  1F64               	comf	(___aomod@dividend+4)& (0+255),f,b
  2766  001AA0  1F63               	comf	(___aomod@dividend+3)& (0+255),f,b
  2767  001AA2  1F62               	comf	(___aomod@dividend+2)& (0+255),f,b
  2768  001AA4  1F61               	comf	(___aomod@dividend+1)& (0+255),f,b
  2769  001AA6  6D60               	negf	___aomod@dividend& (0+255),b
  2770  001AA8  0E00               	movlw	0
  2771  001AAA  2361               	addwfc	(___aomod@dividend+1)& (0+255),f,b
  2772  001AAC  2362               	addwfc	(___aomod@dividend+2)& (0+255),f,b
  2773  001AAE  2363               	addwfc	(___aomod@dividend+3)& (0+255),f,b
  2774  001AB0  2364               	addwfc	(___aomod@dividend+4)& (0+255),f,b
  2775  001AB2  2365               	addwfc	(___aomod@dividend+5)& (0+255),f,b
  2776  001AB4  2366               	addwfc	(___aomod@dividend+6)& (0+255),f,b
  2777  001AB6  2367               	addwfc	(___aomod@dividend+7)& (0+255),f,b
  2778  001AB8                     
  2779                           ; BSR set to: 0
  2780  001AB8  0E01               	movlw	1
  2781  001ABA  6F71               	movwf	___aomod@sign& (0+255),b
  2782  001ABC                     l7018:
  2783                           
  2784                           ; BSR set to: 0
  2785  001ABC  BF6F               	btfsc	(___aomod@divisor+7)& (0+255),7,b
  2786  001ABE  EF65  F00D         	goto	u5400
  2787  001AC2  EF63  F00D         	goto	u5401
  2788  001AC6                     u5401:
  2789  001AC6  EF75  F00D         	goto	l7022
  2790  001ACA                     u5400:
  2791  001ACA                     
  2792                           ; BSR set to: 0
  2793  001ACA  1F6F               	comf	(___aomod@divisor+7)& (0+255),f,b
  2794  001ACC  1F6E               	comf	(___aomod@divisor+6)& (0+255),f,b
  2795  001ACE  1F6D               	comf	(___aomod@divisor+5)& (0+255),f,b
  2796  001AD0  1F6C               	comf	(___aomod@divisor+4)& (0+255),f,b
  2797  001AD2  1F6B               	comf	(___aomod@divisor+3)& (0+255),f,b
  2798  001AD4  1F6A               	comf	(___aomod@divisor+2)& (0+255),f,b
  2799  001AD6  1F69               	comf	(___aomod@divisor+1)& (0+255),f,b
  2800  001AD8  6D68               	negf	___aomod@divisor& (0+255),b
  2801  001ADA  0E00               	movlw	0
  2802  001ADC  2369               	addwfc	(___aomod@divisor+1)& (0+255),f,b
  2803  001ADE  236A               	addwfc	(___aomod@divisor+2)& (0+255),f,b
  2804  001AE0  236B               	addwfc	(___aomod@divisor+3)& (0+255),f,b
  2805  001AE2  236C               	addwfc	(___aomod@divisor+4)& (0+255),f,b
  2806  001AE4  236D               	addwfc	(___aomod@divisor+5)& (0+255),f,b
  2807  001AE6  236E               	addwfc	(___aomod@divisor+6)& (0+255),f,b
  2808  001AE8  236F               	addwfc	(___aomod@divisor+7)& (0+255),f,b
  2809  001AEA                     l7022:
  2810                           
  2811                           ; BSR set to: 0
  2812  001AEA  5168               	movf	___aomod@divisor& (0+255),w,b
  2813  001AEC  1169               	iorwf	(___aomod@divisor+1)& (0+255),w,b
  2814  001AEE  116A               	iorwf	(___aomod@divisor+2)& (0+255),w,b
  2815  001AF0  116B               	iorwf	(___aomod@divisor+3)& (0+255),w,b
  2816  001AF2  116C               	iorwf	(___aomod@divisor+4)& (0+255),w,b
  2817  001AF4  116D               	iorwf	(___aomod@divisor+5)& (0+255),w,b
  2818  001AF6  116E               	iorwf	(___aomod@divisor+6)& (0+255),w,b
  2819  001AF8  116F               	iorwf	(___aomod@divisor+7)& (0+255),w,b
  2820  001AFA  B4D8               	btfsc	status,2,c
  2821  001AFC  EF82  F00D         	goto	u5411
  2822  001B00  EF84  F00D         	goto	u5410
  2823  001B04                     u5411:
  2824  001B04  EFCC  F00D         	goto	l7038
  2825  001B08                     u5410:
  2826  001B08                     
  2827                           ; BSR set to: 0
  2828  001B08  0E01               	movlw	1
  2829  001B0A  6F70               	movwf	___aomod@counter& (0+255),b
  2830  001B0C  EF92  F00D         	goto	l7028
  2831  001B10                     l7026:
  2832                           
  2833                           ; BSR set to: 0
  2834  001B10  90D8               	bcf	status,0,c
  2835  001B12  3768               	rlcf	___aomod@divisor& (0+255),f,b
  2836  001B14  3769               	rlcf	(___aomod@divisor+1)& (0+255),f,b
  2837  001B16  376A               	rlcf	(___aomod@divisor+2)& (0+255),f,b
  2838  001B18  376B               	rlcf	(___aomod@divisor+3)& (0+255),f,b
  2839  001B1A  376C               	rlcf	(___aomod@divisor+4)& (0+255),f,b
  2840  001B1C  376D               	rlcf	(___aomod@divisor+5)& (0+255),f,b
  2841  001B1E  376E               	rlcf	(___aomod@divisor+6)& (0+255),f,b
  2842  001B20  376F               	rlcf	(___aomod@divisor+7)& (0+255),f,b
  2843  001B22  2B70               	incf	___aomod@counter& (0+255),f,b
  2844  001B24                     l7028:
  2845                           
  2846                           ; BSR set to: 0
  2847  001B24  AF6F               	btfss	(___aomod@divisor+7)& (0+255),7,b
  2848  001B26  EF97  F00D         	goto	u5421
  2849  001B2A  EF99  F00D         	goto	u5420
  2850  001B2E                     u5421:
  2851  001B2E  EF88  F00D         	goto	l7026
  2852  001B32                     u5420:
  2853  001B32                     l7030:
  2854                           
  2855                           ; BSR set to: 0
  2856  001B32  5168               	movf	___aomod@divisor& (0+255),w,b
  2857  001B34  5D60               	subwf	___aomod@dividend& (0+255),w,b
  2858  001B36  5169               	movf	(___aomod@divisor+1)& (0+255),w,b
  2859  001B38  5961               	subwfb	(___aomod@dividend+1)& (0+255),w,b
  2860  001B3A  516A               	movf	(___aomod@divisor+2)& (0+255),w,b
  2861  001B3C  5962               	subwfb	(___aomod@dividend+2)& (0+255),w,b
  2862  001B3E  516B               	movf	(___aomod@divisor+3)& (0+255),w,b
  2863  001B40  5963               	subwfb	(___aomod@dividend+3)& (0+255),w,b
  2864  001B42  516C               	movf	(___aomod@divisor+4)& (0+255),w,b
  2865  001B44  5964               	subwfb	(___aomod@dividend+4)& (0+255),w,b
  2866  001B46  516D               	movf	(___aomod@divisor+5)& (0+255),w,b
  2867  001B48  5965               	subwfb	(___aomod@dividend+5)& (0+255),w,b
  2868  001B4A  516E               	movf	(___aomod@divisor+6)& (0+255),w,b
  2869  001B4C  5966               	subwfb	(___aomod@dividend+6)& (0+255),w,b
  2870  001B4E  516F               	movf	(___aomod@divisor+7)& (0+255),w,b
  2871  001B50  5967               	subwfb	(___aomod@dividend+7)& (0+255),w,b
  2872  001B52  A0D8               	btfss	status,0,c
  2873  001B54  EFAE  F00D         	goto	u5431
  2874  001B58  EFB0  F00D         	goto	u5430
  2875  001B5C                     u5431:
  2876  001B5C  EFC0  F00D         	goto	l7034
  2877  001B60                     u5430:
  2878  001B60                     
  2879                           ; BSR set to: 0
  2880  001B60  5168               	movf	___aomod@divisor& (0+255),w,b
  2881  001B62  5F60               	subwf	___aomod@dividend& (0+255),f,b
  2882  001B64  5169               	movf	(___aomod@divisor+1)& (0+255),w,b
  2883  001B66  5B61               	subwfb	(___aomod@dividend+1)& (0+255),f,b
  2884  001B68  516A               	movf	(___aomod@divisor+2)& (0+255),w,b
  2885  001B6A  5B62               	subwfb	(___aomod@dividend+2)& (0+255),f,b
  2886  001B6C  516B               	movf	(___aomod@divisor+3)& (0+255),w,b
  2887  001B6E  5B63               	subwfb	(___aomod@dividend+3)& (0+255),f,b
  2888  001B70  516C               	movf	(___aomod@divisor+4)& (0+255),w,b
  2889  001B72  5B64               	subwfb	(___aomod@dividend+4)& (0+255),f,b
  2890  001B74  516D               	movf	(___aomod@divisor+5)& (0+255),w,b
  2891  001B76  5B65               	subwfb	(___aomod@dividend+5)& (0+255),f,b
  2892  001B78  516E               	movf	(___aomod@divisor+6)& (0+255),w,b
  2893  001B7A  5B66               	subwfb	(___aomod@dividend+6)& (0+255),f,b
  2894  001B7C  516F               	movf	(___aomod@divisor+7)& (0+255),w,b
  2895  001B7E  5B67               	subwfb	(___aomod@dividend+7)& (0+255),f,b
  2896  001B80                     l7034:
  2897                           
  2898                           ; BSR set to: 0
  2899  001B80  90D8               	bcf	status,0,c
  2900  001B82  336F               	rrcf	(___aomod@divisor+7)& (0+255),f,b
  2901  001B84  336E               	rrcf	(___aomod@divisor+6)& (0+255),f,b
  2902  001B86  336D               	rrcf	(___aomod@divisor+5)& (0+255),f,b
  2903  001B88  336C               	rrcf	(___aomod@divisor+4)& (0+255),f,b
  2904  001B8A  336B               	rrcf	(___aomod@divisor+3)& (0+255),f,b
  2905  001B8C  336A               	rrcf	(___aomod@divisor+2)& (0+255),f,b
  2906  001B8E  3369               	rrcf	(___aomod@divisor+1)& (0+255),f,b
  2907  001B90  3368               	rrcf	___aomod@divisor& (0+255),f,b
  2908  001B92                     
  2909                           ; BSR set to: 0
  2910  001B92  2F70               	decfsz	___aomod@counter& (0+255),f,b
  2911  001B94  EF99  F00D         	goto	l7030
  2912  001B98                     l7038:
  2913                           
  2914                           ; BSR set to: 0
  2915  001B98  5171               	movf	___aomod@sign& (0+255),w,b
  2916  001B9A  B4D8               	btfsc	status,2,c
  2917  001B9C  EFD2  F00D         	goto	u5441
  2918  001BA0  EFD4  F00D         	goto	u5440
  2919  001BA4                     u5441:
  2920  001BA4  EFE4  F00D         	goto	l7042
  2921  001BA8                     u5440:
  2922  001BA8                     
  2923                           ; BSR set to: 0
  2924  001BA8  1F67               	comf	(___aomod@dividend+7)& (0+255),f,b
  2925  001BAA  1F66               	comf	(___aomod@dividend+6)& (0+255),f,b
  2926  001BAC  1F65               	comf	(___aomod@dividend+5)& (0+255),f,b
  2927  001BAE  1F64               	comf	(___aomod@dividend+4)& (0+255),f,b
  2928  001BB0  1F63               	comf	(___aomod@dividend+3)& (0+255),f,b
  2929  001BB2  1F62               	comf	(___aomod@dividend+2)& (0+255),f,b
  2930  001BB4  1F61               	comf	(___aomod@dividend+1)& (0+255),f,b
  2931  001BB6  6D60               	negf	___aomod@dividend& (0+255),b
  2932  001BB8  0E00               	movlw	0
  2933  001BBA  2361               	addwfc	(___aomod@dividend+1)& (0+255),f,b
  2934  001BBC  2362               	addwfc	(___aomod@dividend+2)& (0+255),f,b
  2935  001BBE  2363               	addwfc	(___aomod@dividend+3)& (0+255),f,b
  2936  001BC0  2364               	addwfc	(___aomod@dividend+4)& (0+255),f,b
  2937  001BC2  2365               	addwfc	(___aomod@dividend+5)& (0+255),f,b
  2938  001BC4  2366               	addwfc	(___aomod@dividend+6)& (0+255),f,b
  2939  001BC6  2367               	addwfc	(___aomod@dividend+7)& (0+255),f,b
  2940  001BC8                     l7042:
  2941                           
  2942                           ; BSR set to: 0
  2943  001BC8  C060  F060         	movff	___aomod@dividend,?___aomod
  2944  001BCC  C061  F061         	movff	___aomod@dividend+1,?___aomod+1
  2945  001BD0  C062  F062         	movff	___aomod@dividend+2,?___aomod+2
  2946  001BD4  C063  F063         	movff	___aomod@dividend+3,?___aomod+3
  2947  001BD8  C064  F064         	movff	___aomod@dividend+4,?___aomod+4
  2948  001BDC  C065  F065         	movff	___aomod@dividend+5,?___aomod+5
  2949  001BE0  C066  F066         	movff	___aomod@dividend+6,?___aomod+6
  2950  001BE4  C067  F067         	movff	___aomod@dividend+7,?___aomod+7
  2951  001BE8                     
  2952                           ; BSR set to: 0
  2953  001BE8  0012               	return		;funcret
  2954  001BEA                     __end_of___aomod:
  2955                           	callstack 0
  2956                           
  2957 ;; *************** function ___aodiv *****************
  2958 ;; Defined at:
  2959 ;;		line 9 in file "/Applications/microchip/xc8/v2.35/pic/sources/c99/common/aodiv.c"
  2960 ;; Parameters:    Size  Location     Type
  2961 ;;  dividend        8    0[BANK0 ] long long 
  2962 ;;  divisor         8    8[BANK0 ] long long 
  2963 ;; Auto vars:     Size  Location     Type
  2964 ;;  quotient        8   18[BANK0 ] long long 
  2965 ;;  sign            1   17[BANK0 ] unsigned char 
  2966 ;;  counter         1   16[BANK0 ] unsigned char 
  2967 ;; Return value:  Size  Location     Type
  2968 ;;                  8    0[BANK0 ] long long 
  2969 ;; Registers used:
  2970 ;;		wreg, fsr2l, fsr2h, status,2, status,0
  2971 ;; Tracked objects:
  2972 ;;		On entry : 0/0
  2973 ;;		On exit  : 0/0
  2974 ;;		Unchanged: 0/0
  2975 ;; Data sizes:     COMRAM   BANK0   BANK1   BANK2   BANK3   BANK4   BANK5   BANK6   BANK7
  2976 ;;      Params:         0      16       0       0       0       0       0       0       0
  2977 ;;      Locals:         0      10       0       0       0       0       0       0       0
  2978 ;;      Temps:          0       0       0       0       0       0       0       0       0
  2979 ;;      Totals:         0      26       0       0       0       0       0       0       0
  2980 ;;Total ram usage:       26 bytes
  2981 ;; Hardware stack levels used: 1
  2982 ;; Hardware stack levels required when called: 10
  2983 ;; This function calls:
  2984 ;;		Nothing
  2985 ;; This function is called by:
  2986 ;;		_dtoa
  2987 ;; This function uses a non-reentrant model
  2988 ;;
  2989                           
  2990                           	psect	text12
  2991  001498                     __ptext12:
  2992                           	callstack 0
  2993  001498                     ___aodiv:
  2994                           	callstack 16
  2995  001498  0E00               	movlw	0
  2996  00149A  0100               	movlb	0	; () banked
  2997  00149C  6F71               	movwf	___aodiv@sign& (0+255),b
  2998  00149E                     
  2999                           ; BSR set to: 0
  3000  00149E  BF6F               	btfsc	(___aodiv@divisor+7)& (0+255),7,b
  3001  0014A0  EF56  F00A         	goto	u5320
  3002  0014A4  EF54  F00A         	goto	u5321
  3003  0014A8                     u5321:
  3004  0014A8  EF68  F00A         	goto	l6974
  3005  0014AC                     u5320:
  3006  0014AC                     
  3007                           ; BSR set to: 0
  3008  0014AC  1F6F               	comf	(___aodiv@divisor+7)& (0+255),f,b
  3009  0014AE  1F6E               	comf	(___aodiv@divisor+6)& (0+255),f,b
  3010  0014B0  1F6D               	comf	(___aodiv@divisor+5)& (0+255),f,b
  3011  0014B2  1F6C               	comf	(___aodiv@divisor+4)& (0+255),f,b
  3012  0014B4  1F6B               	comf	(___aodiv@divisor+3)& (0+255),f,b
  3013  0014B6  1F6A               	comf	(___aodiv@divisor+2)& (0+255),f,b
  3014  0014B8  1F69               	comf	(___aodiv@divisor+1)& (0+255),f,b
  3015  0014BA  6D68               	negf	___aodiv@divisor& (0+255),b
  3016  0014BC  0E00               	movlw	0
  3017  0014BE  2369               	addwfc	(___aodiv@divisor+1)& (0+255),f,b
  3018  0014C0  236A               	addwfc	(___aodiv@divisor+2)& (0+255),f,b
  3019  0014C2  236B               	addwfc	(___aodiv@divisor+3)& (0+255),f,b
  3020  0014C4  236C               	addwfc	(___aodiv@divisor+4)& (0+255),f,b
  3021  0014C6  236D               	addwfc	(___aodiv@divisor+5)& (0+255),f,b
  3022  0014C8  236E               	addwfc	(___aodiv@divisor+6)& (0+255),f,b
  3023  0014CA  236F               	addwfc	(___aodiv@divisor+7)& (0+255),f,b
  3024  0014CC                     
  3025                           ; BSR set to: 0
  3026  0014CC  0E01               	movlw	1
  3027  0014CE  6F71               	movwf	___aodiv@sign& (0+255),b
  3028  0014D0                     l6974:
  3029                           
  3030                           ; BSR set to: 0
  3031  0014D0  BF67               	btfsc	(___aodiv@dividend+7)& (0+255),7,b
  3032  0014D2  EF6F  F00A         	goto	u5330
  3033  0014D6  EF6D  F00A         	goto	u5331
  3034  0014DA                     u5331:
  3035  0014DA  EF81  F00A         	goto	l6980
  3036  0014DE                     u5330:
  3037  0014DE                     
  3038                           ; BSR set to: 0
  3039  0014DE  1F67               	comf	(___aodiv@dividend+7)& (0+255),f,b
  3040  0014E0  1F66               	comf	(___aodiv@dividend+6)& (0+255),f,b
  3041  0014E2  1F65               	comf	(___aodiv@dividend+5)& (0+255),f,b
  3042  0014E4  1F64               	comf	(___aodiv@dividend+4)& (0+255),f,b
  3043  0014E6  1F63               	comf	(___aodiv@dividend+3)& (0+255),f,b
  3044  0014E8  1F62               	comf	(___aodiv@dividend+2)& (0+255),f,b
  3045  0014EA  1F61               	comf	(___aodiv@dividend+1)& (0+255),f,b
  3046  0014EC  6D60               	negf	___aodiv@dividend& (0+255),b
  3047  0014EE  0E00               	movlw	0
  3048  0014F0  2361               	addwfc	(___aodiv@dividend+1)& (0+255),f,b
  3049  0014F2  2362               	addwfc	(___aodiv@dividend+2)& (0+255),f,b
  3050  0014F4  2363               	addwfc	(___aodiv@dividend+3)& (0+255),f,b
  3051  0014F6  2364               	addwfc	(___aodiv@dividend+4)& (0+255),f,b
  3052  0014F8  2365               	addwfc	(___aodiv@dividend+5)& (0+255),f,b
  3053  0014FA  2366               	addwfc	(___aodiv@dividend+6)& (0+255),f,b
  3054  0014FC  2367               	addwfc	(___aodiv@dividend+7)& (0+255),f,b
  3055  0014FE                     
  3056                           ; BSR set to: 0
  3057  0014FE  0E01               	movlw	1
  3058  001500  1B71               	xorwf	___aodiv@sign& (0+255),f,b
  3059  001502                     l6980:
  3060                           
  3061                           ; BSR set to: 0
  3062  001502  EE20  F072         	lfsr	2,___aodiv@quotient
  3063  001506  0E07               	movlw	7
  3064  001508                     u5341:
  3065  001508  6ADE               	clrf	postinc2,c
  3066  00150A  06E8               	decf	wreg,f,c
  3067  00150C  E2FD               	bc	u5341
  3068  00150E                     
  3069                           ; BSR set to: 0
  3070  00150E  5168               	movf	___aodiv@divisor& (0+255),w,b
  3071  001510  1169               	iorwf	(___aodiv@divisor+1)& (0+255),w,b
  3072  001512  116A               	iorwf	(___aodiv@divisor+2)& (0+255),w,b
  3073  001514  116B               	iorwf	(___aodiv@divisor+3)& (0+255),w,b
  3074  001516  116C               	iorwf	(___aodiv@divisor+4)& (0+255),w,b
  3075  001518  116D               	iorwf	(___aodiv@divisor+5)& (0+255),w,b
  3076  00151A  116E               	iorwf	(___aodiv@divisor+6)& (0+255),w,b
  3077  00151C  116F               	iorwf	(___aodiv@divisor+7)& (0+255),w,b
  3078  00151E  B4D8               	btfsc	status,2,c
  3079  001520  EF94  F00A         	goto	u5351
  3080  001524  EF96  F00A         	goto	u5350
  3081  001528                     u5351:
  3082  001528  EFE8  F00A         	goto	l7002
  3083  00152C                     u5350:
  3084  00152C                     
  3085                           ; BSR set to: 0
  3086  00152C  0E01               	movlw	1
  3087  00152E  6F70               	movwf	___aodiv@counter& (0+255),b
  3088  001530  EFA4  F00A         	goto	l6988
  3089  001534                     l6986:
  3090                           
  3091                           ; BSR set to: 0
  3092  001534  90D8               	bcf	status,0,c
  3093  001536  3768               	rlcf	___aodiv@divisor& (0+255),f,b
  3094  001538  3769               	rlcf	(___aodiv@divisor+1)& (0+255),f,b
  3095  00153A  376A               	rlcf	(___aodiv@divisor+2)& (0+255),f,b
  3096  00153C  376B               	rlcf	(___aodiv@divisor+3)& (0+255),f,b
  3097  00153E  376C               	rlcf	(___aodiv@divisor+4)& (0+255),f,b
  3098  001540  376D               	rlcf	(___aodiv@divisor+5)& (0+255),f,b
  3099  001542  376E               	rlcf	(___aodiv@divisor+6)& (0+255),f,b
  3100  001544  376F               	rlcf	(___aodiv@divisor+7)& (0+255),f,b
  3101  001546  2B70               	incf	___aodiv@counter& (0+255),f,b
  3102  001548                     l6988:
  3103                           
  3104                           ; BSR set to: 0
  3105  001548  AF6F               	btfss	(___aodiv@divisor+7)& (0+255),7,b
  3106  00154A  EFA9  F00A         	goto	u5361
  3107  00154E  EFAB  F00A         	goto	u5360
  3108  001552                     u5361:
  3109  001552  EF9A  F00A         	goto	l6986
  3110  001556                     u5360:
  3111  001556                     l6990:
  3112                           
  3113                           ; BSR set to: 0
  3114  001556  90D8               	bcf	status,0,c
  3115  001558  3772               	rlcf	___aodiv@quotient& (0+255),f,b
  3116  00155A  3773               	rlcf	(___aodiv@quotient+1)& (0+255),f,b
  3117  00155C  3774               	rlcf	(___aodiv@quotient+2)& (0+255),f,b
  3118  00155E  3775               	rlcf	(___aodiv@quotient+3)& (0+255),f,b
  3119  001560  3776               	rlcf	(___aodiv@quotient+4)& (0+255),f,b
  3120  001562  3777               	rlcf	(___aodiv@quotient+5)& (0+255),f,b
  3121  001564  3778               	rlcf	(___aodiv@quotient+6)& (0+255),f,b
  3122  001566  3779               	rlcf	(___aodiv@quotient+7)& (0+255),f,b
  3123  001568                     
  3124                           ; BSR set to: 0
  3125  001568  5168               	movf	___aodiv@divisor& (0+255),w,b
  3126  00156A  5D60               	subwf	___aodiv@dividend& (0+255),w,b
  3127  00156C  5169               	movf	(___aodiv@divisor+1)& (0+255),w,b
  3128  00156E  5961               	subwfb	(___aodiv@dividend+1)& (0+255),w,b
  3129  001570  516A               	movf	(___aodiv@divisor+2)& (0+255),w,b
  3130  001572  5962               	subwfb	(___aodiv@dividend+2)& (0+255),w,b
  3131  001574  516B               	movf	(___aodiv@divisor+3)& (0+255),w,b
  3132  001576  5963               	subwfb	(___aodiv@dividend+3)& (0+255),w,b
  3133  001578  516C               	movf	(___aodiv@divisor+4)& (0+255),w,b
  3134  00157A  5964               	subwfb	(___aodiv@dividend+4)& (0+255),w,b
  3135  00157C  516D               	movf	(___aodiv@divisor+5)& (0+255),w,b
  3136  00157E  5965               	subwfb	(___aodiv@dividend+5)& (0+255),w,b
  3137  001580  516E               	movf	(___aodiv@divisor+6)& (0+255),w,b
  3138  001582  5966               	subwfb	(___aodiv@dividend+6)& (0+255),w,b
  3139  001584  516F               	movf	(___aodiv@divisor+7)& (0+255),w,b
  3140  001586  5967               	subwfb	(___aodiv@dividend+7)& (0+255),w,b
  3141  001588  A0D8               	btfss	status,0,c
  3142  00158A  EFC9  F00A         	goto	u5371
  3143  00158E  EFCB  F00A         	goto	u5370
  3144  001592                     u5371:
  3145  001592  EFDC  F00A         	goto	l6998
  3146  001596                     u5370:
  3147  001596                     
  3148                           ; BSR set to: 0
  3149  001596  5168               	movf	___aodiv@divisor& (0+255),w,b
  3150  001598  5F60               	subwf	___aodiv@dividend& (0+255),f,b
  3151  00159A  5169               	movf	(___aodiv@divisor+1)& (0+255),w,b
  3152  00159C  5B61               	subwfb	(___aodiv@dividend+1)& (0+255),f,b
  3153  00159E  516A               	movf	(___aodiv@divisor+2)& (0+255),w,b
  3154  0015A0  5B62               	subwfb	(___aodiv@dividend+2)& (0+255),f,b
  3155  0015A2  516B               	movf	(___aodiv@divisor+3)& (0+255),w,b
  3156  0015A4  5B63               	subwfb	(___aodiv@dividend+3)& (0+255),f,b
  3157  0015A6  516C               	movf	(___aodiv@divisor+4)& (0+255),w,b
  3158  0015A8  5B64               	subwfb	(___aodiv@dividend+4)& (0+255),f,b
  3159  0015AA  516D               	movf	(___aodiv@divisor+5)& (0+255),w,b
  3160  0015AC  5B65               	subwfb	(___aodiv@dividend+5)& (0+255),f,b
  3161  0015AE  516E               	movf	(___aodiv@divisor+6)& (0+255),w,b
  3162  0015B0  5B66               	subwfb	(___aodiv@dividend+6)& (0+255),f,b
  3163  0015B2  516F               	movf	(___aodiv@divisor+7)& (0+255),w,b
  3164  0015B4  5B67               	subwfb	(___aodiv@dividend+7)& (0+255),f,b
  3165  0015B6                     
  3166                           ; BSR set to: 0
  3167  0015B6  8172               	bsf	___aodiv@quotient& (0+255),0,b
  3168  0015B8                     l6998:
  3169                           
  3170                           ; BSR set to: 0
  3171  0015B8  90D8               	bcf	status,0,c
  3172  0015BA  336F               	rrcf	(___aodiv@divisor+7)& (0+255),f,b
  3173  0015BC  336E               	rrcf	(___aodiv@divisor+6)& (0+255),f,b
  3174  0015BE  336D               	rrcf	(___aodiv@divisor+5)& (0+255),f,b
  3175  0015C0  336C               	rrcf	(___aodiv@divisor+4)& (0+255),f,b
  3176  0015C2  336B               	rrcf	(___aodiv@divisor+3)& (0+255),f,b
  3177  0015C4  336A               	rrcf	(___aodiv@divisor+2)& (0+255),f,b
  3178  0015C6  3369               	rrcf	(___aodiv@divisor+1)& (0+255),f,b
  3179  0015C8  3368               	rrcf	___aodiv@divisor& (0+255),f,b
  3180  0015CA                     
  3181                           ; BSR set to: 0
  3182  0015CA  2F70               	decfsz	___aodiv@counter& (0+255),f,b
  3183  0015CC  EFAB  F00A         	goto	l6990
  3184  0015D0                     l7002:
  3185                           
  3186                           ; BSR set to: 0
  3187  0015D0  5171               	movf	___aodiv@sign& (0+255),w,b
  3188  0015D2  B4D8               	btfsc	status,2,c
  3189  0015D4  EFEE  F00A         	goto	u5381
  3190  0015D8  EFF0  F00A         	goto	u5380
  3191  0015DC                     u5381:
  3192  0015DC  EF00  F00B         	goto	l7006
  3193  0015E0                     u5380:
  3194  0015E0                     
  3195                           ; BSR set to: 0
  3196  0015E0  1F79               	comf	(___aodiv@quotient+7)& (0+255),f,b
  3197  0015E2  1F78               	comf	(___aodiv@quotient+6)& (0+255),f,b
  3198  0015E4  1F77               	comf	(___aodiv@quotient+5)& (0+255),f,b
  3199  0015E6  1F76               	comf	(___aodiv@quotient+4)& (0+255),f,b
  3200  0015E8  1F75               	comf	(___aodiv@quotient+3)& (0+255),f,b
  3201  0015EA  1F74               	comf	(___aodiv@quotient+2)& (0+255),f,b
  3202  0015EC  1F73               	comf	(___aodiv@quotient+1)& (0+255),f,b
  3203  0015EE  6D72               	negf	___aodiv@quotient& (0+255),b
  3204  0015F0  0E00               	movlw	0
  3205  0015F2  2373               	addwfc	(___aodiv@quotient+1)& (0+255),f,b
  3206  0015F4  2374               	addwfc	(___aodiv@quotient+2)& (0+255),f,b
  3207  0015F6  2375               	addwfc	(___aodiv@quotient+3)& (0+255),f,b
  3208  0015F8  2376               	addwfc	(___aodiv@quotient+4)& (0+255),f,b
  3209  0015FA  2377               	addwfc	(___aodiv@quotient+5)& (0+255),f,b
  3210  0015FC  2378               	addwfc	(___aodiv@quotient+6)& (0+255),f,b
  3211  0015FE  2379               	addwfc	(___aodiv@quotient+7)& (0+255),f,b
  3212  001600                     l7006:
  3213                           
  3214                           ; BSR set to: 0
  3215  001600  C072  F060         	movff	___aodiv@quotient,?___aodiv
  3216  001604  C073  F061         	movff	___aodiv@quotient+1,?___aodiv+1
  3217  001608  C074  F062         	movff	___aodiv@quotient+2,?___aodiv+2
  3218  00160C  C075  F063         	movff	___aodiv@quotient+3,?___aodiv+3
  3219  001610  C076  F064         	movff	___aodiv@quotient+4,?___aodiv+4
  3220  001614  C077  F065         	movff	___aodiv@quotient+5,?___aodiv+5
  3221  001618  C078  F066         	movff	___aodiv@quotient+6,?___aodiv+6
  3222  00161C  C079  F067         	movff	___aodiv@quotient+7,?___aodiv+7
  3223  001620                     
  3224                           ; BSR set to: 0
  3225  001620  0012               	return		;funcret
  3226  001622                     __end_of___aodiv:
  3227                           	callstack 0
  3228                           
  3229 ;; *************** function _putsUSBUSART *****************
  3230 ;; Defined at:
  3231 ;;		line 647 in file "mcc_generated_files/usb/usb_device_cdc.c"
  3232 ;; Parameters:    Size  Location     Type
  3233 ;;  data            2    0[BANK0 ] PTR unsigned char 
  3234 ;;		 -> main@data2(20), 
  3235 ;; Auto vars:     Size  Location     Type
  3236 ;;  pData           2    2[BANK0 ] PTR unsigned char 
  3237 ;;		 -> main@data2(20), 
  3238 ;;  len             1    4[BANK0 ] unsigned char 
  3239 ;; Return value:  Size  Location     Type
  3240 ;;                  1    wreg      void 
  3241 ;; Registers used:
  3242 ;;		wreg, fsr2l, fsr2h, status,2, status,0
  3243 ;; Tracked objects:
  3244 ;;		On entry : 0/0
  3245 ;;		On exit  : 0/0
  3246 ;;		Unchanged: 0/0
  3247 ;; Data sizes:     COMRAM   BANK0   BANK1   BANK2   BANK3   BANK4   BANK5   BANK6   BANK7
  3248 ;;      Params:         0       2       0       0       0       0       0       0       0
  3249 ;;      Locals:         0       3       0       0       0       0       0       0       0
  3250 ;;      Temps:          0       0       0       0       0       0       0       0       0
  3251 ;;      Totals:         0       5       0       0       0       0       0       0       0
  3252 ;;Total ram usage:        5 bytes
  3253 ;; Hardware stack levels used: 1
  3254 ;; Hardware stack levels required when called: 10
  3255 ;; This function calls:
  3256 ;;		Nothing
  3257 ;; This function is called by:
  3258 ;;		_main
  3259 ;; This function uses a non-reentrant model
  3260 ;;
  3261                           
  3262                           	psect	text13
  3263  0030C0                     __ptext13:
  3264                           	callstack 0
  3265  0030C0                     _putsUSBUSART:
  3266                           	callstack 20
  3267  0030C0                     
  3268                           ;mcc_generated_files/usb/usb_device_cdc.c: 647: void putsUSBUSART(char *data);mcc_genera
      +                          ted_files/usb/usb_device_cdc.c: 648: {;mcc_generated_files/usb/usb_device_cdc.c: 649:   
      +                            uint8_t len;;mcc_generated_files/usb/usb_device_cdc.c: 650:     char *pData;;mcc_gener
      +                          ated_files/usb/usb_device_cdc.c: 675:     {PIE3bits.USBIE = 0;};
  3269  0030C0  94A3               	bcf	163,2,c	;volatile
  3270  0030C2                     
  3271                           ;mcc_generated_files/usb/usb_device_cdc.c: 676:     if(cdc_trf_state != 0)
  3272  0030C2  5043               	movf	_cdc_trf_state^0,w,c
  3273  0030C4  B4D8               	btfsc	status,2,c
  3274  0030C6  EF67  F018         	goto	u5841
  3275  0030CA  EF69  F018         	goto	u5840
  3276  0030CE                     u5841:
  3277  0030CE  EF6C  F018         	goto	l7354
  3278  0030D2                     u5840:
  3279  0030D2                     
  3280                           ;mcc_generated_files/usb/usb_device_cdc.c: 677:     {;mcc_generated_files/usb/usb_device
      +                          _cdc.c: 678:         {PIE3bits.USBIE = 1;};
  3281  0030D2  84A3               	bsf	163,2,c	;volatile
  3282                           
  3283                           ;mcc_generated_files/usb/usb_device_cdc.c: 679:         return;
  3284  0030D4  EF97  F018         	goto	l710
  3285  0030D8                     l7354:
  3286                           
  3287                           ;mcc_generated_files/usb/usb_device_cdc.c: 686:     len = 0;
  3288  0030D8  0E00               	movlw	0
  3289  0030DA  0100               	movlb	0	; () banked
  3290  0030DC  6F64               	movwf	putsUSBUSART@len& (0+255),b
  3291  0030DE                     
  3292                           ; BSR set to: 0
  3293                           ;mcc_generated_files/usb/usb_device_cdc.c: 687:     pData = data;
  3294  0030DE  C060  F062         	movff	putsUSBUSART@data,putsUSBUSART@pData
  3295  0030E2  C061  F063         	movff	putsUSBUSART@data+1,putsUSBUSART@pData+1
  3296  0030E6                     l7358:
  3297                           
  3298                           ; BSR set to: 0
  3299                           ;mcc_generated_files/usb/usb_device_cdc.c: 689:     {;mcc_generated_files/usb/usb_device
      +                          _cdc.c: 690:         len++;
  3300  0030E6  2B64               	incf	putsUSBUSART@len& (0+255),f,b
  3301  0030E8                     
  3302                           ; BSR set to: 0
  3303                           ;mcc_generated_files/usb/usb_device_cdc.c: 691:         if(len == 255) break;
  3304  0030E8  2964               	incf	putsUSBUSART@len& (0+255),w,b
  3305  0030EA  A4D8               	btfss	status,2,c
  3306  0030EC  EF7A  F018         	goto	u5851
  3307  0030F0  EF7C  F018         	goto	u5850
  3308  0030F4                     u5851:
  3309  0030F4  EF7E  F018         	goto	l7364
  3310  0030F8                     u5850:
  3311  0030F8  EF8C  F018         	goto	l7366
  3312  0030FC                     l7364:
  3313                           
  3314                           ; BSR set to: 0
  3315                           ;mcc_generated_files/usb/usb_device_cdc.c: 692:     }while(*pData++);
  3316  0030FC  C062  FFD9         	movff	putsUSBUSART@pData,fsr2l
  3317  003100  C063  FFDA         	movff	putsUSBUSART@pData+1,fsr2h
  3318  003104  4B62               	infsnz	putsUSBUSART@pData& (0+255),f,b
  3319  003106  2B63               	incf	(putsUSBUSART@pData+1)& (0+255),f,b
  3320  003108  50DF               	movf	indf2,w,c
  3321  00310A  A4D8               	btfss	status,2,c
  3322  00310C  EF8A  F018         	goto	u5861
  3323  003110  EF8C  F018         	goto	u5860
  3324  003114                     u5861:
  3325  003114  EF73  F018         	goto	l7358
  3326  003118                     u5860:
  3327  003118                     l7366:
  3328                           
  3329                           ; BSR set to: 0
  3330                           ;mcc_generated_files/usb/usb_device_cdc.c: 700:     { pCDCSrc.bRam = (uint8_t*)data; cdc
      +                          _tx_len = len; cdc_mem_type = 0x01; cdc_trf_state = 1; };
  3331  003118  C060  F033         	movff	putsUSBUSART@data,_pCDCSrc
  3332  00311C  C061  F034         	movff	putsUSBUSART@data+1,_pCDCSrc+1
  3333  003120                     
  3334                           ; BSR set to: 0
  3335  003120  C064  F0F3         	movff	putsUSBUSART@len,_cdc_tx_len
  3336  003124                     
  3337                           ; BSR set to: 0
  3338  003124  0E01               	movlw	1
  3339  003126  6FF2               	movwf	_cdc_mem_type& (0+255),b
  3340  003128                     
  3341                           ; BSR set to: 0
  3342  003128  0E01               	movlw	1
  3343  00312A  6E43               	movwf	_cdc_trf_state^0,c
  3344  00312C                     
  3345                           ; BSR set to: 0
  3346                           ;mcc_generated_files/usb/usb_device_cdc.c: 701:     {PIE3bits.USBIE = 1;};
  3347  00312C  84A3               	bsf	163,2,c	;volatile
  3348  00312E                     l710:
  3349  00312E  0012               	return		;funcret
  3350  003130                     __end_of_putsUSBUSART:
  3351                           	callstack 0
  3352                           
  3353 ;; *************** function _SYSTEM_Initialize *****************
  3354 ;; Defined at:
  3355 ;;		line 50 in file "mcc_generated_files/mcc.c"
  3356 ;; Parameters:    Size  Location     Type
  3357 ;;		None
  3358 ;; Auto vars:     Size  Location     Type
  3359 ;;		None
  3360 ;; Return value:  Size  Location     Type
  3361 ;;                  1    wreg      void 
  3362 ;; Registers used:
  3363 ;;		wreg, fsr2l, fsr2h, status,2, status,0, prodl, prodh, cstack
  3364 ;; Tracked objects:
  3365 ;;		On entry : 0/0
  3366 ;;		On exit  : 0/0
  3367 ;;		Unchanged: 0/0
  3368 ;; Data sizes:     COMRAM   BANK0   BANK1   BANK2   BANK3   BANK4   BANK5   BANK6   BANK7
  3369 ;;      Params:         0       0       0       0       0       0       0       0       0
  3370 ;;      Locals:         0       0       0       0       0       0       0       0       0
  3371 ;;      Temps:          0       0       0       0       0       0       0       0       0
  3372 ;;      Totals:         0       0       0       0       0       0       0       0       0
  3373 ;;Total ram usage:        0 bytes
  3374 ;; Hardware stack levels used: 1
  3375 ;; Hardware stack levels required when called: 12
  3376 ;; This function calls:
  3377 ;;		_INTERRUPT_Initialize
  3378 ;;		_OSCILLATOR_Initialize
  3379 ;;		_PIN_MANAGER_Initialize
  3380 ;;		_USBDeviceAttach
  3381 ;;		_USBDeviceInit
  3382 ;; This function is called by:
  3383 ;;		_main
  3384 ;; This function uses a non-reentrant model
  3385 ;;
  3386                           
  3387                           	psect	text14
  3388  00357E                     __ptext14:
  3389                           	callstack 0
  3390  00357E                     _SYSTEM_Initialize:
  3391                           	callstack 18
  3392  00357E                     
  3393                           ;mcc_generated_files/mcc.c: 53:     INTERRUPT_Initialize();
  3394  00357E  ECCA  F01A         	call	_INTERRUPT_Initialize	;wreg free
  3395  003582                     
  3396                           ;mcc_generated_files/mcc.c: 54:     PIN_MANAGER_Initialize();
  3397  003582  EC29  F01A         	call	_PIN_MANAGER_Initialize	;wreg free
  3398  003586                     
  3399                           ;mcc_generated_files/mcc.c: 55:     OSCILLATOR_Initialize();
  3400  003586  ECAF  F01A         	call	_OSCILLATOR_Initialize	;wreg free
  3401  00358A                     
  3402                           ;mcc_generated_files/mcc.c: 56:     USBDeviceInit();
  3403  00358A  ECF5  F00D         	call	_USBDeviceInit	;wreg free
  3404  00358E                     
  3405                           ;mcc_generated_files/mcc.c: 57:     USBDeviceAttach();
  3406  00358E  ECE7  F019         	call	_USBDeviceAttach	;wreg free
  3407  003592  0012               	return		;funcret
  3408  003594                     __end_of_SYSTEM_Initialize:
  3409                           	callstack 0
  3410                           
  3411 ;; *************** function _USBDeviceInit *****************
  3412 ;; Defined at:
  3413 ;;		line 281 in file "mcc_generated_files/usb/usb_device.c"
  3414 ;; Parameters:    Size  Location     Type
  3415 ;;		None
  3416 ;; Auto vars:     Size  Location     Type
  3417 ;;  i               1   12[BANK0 ] unsigned char 
  3418 ;; Return value:  Size  Location     Type
  3419 ;;                  1    wreg      void 
  3420 ;; Registers used:
  3421 ;;		wreg, fsr2l, fsr2h, status,2, status,0, prodl, prodh, cstack
  3422 ;; Tracked objects:
  3423 ;;		On entry : 0/0
  3424 ;;		On exit  : 0/0
  3425 ;;		Unchanged: 0/0
  3426 ;; Data sizes:     COMRAM   BANK0   BANK1   BANK2   BANK3   BANK4   BANK5   BANK6   BANK7
  3427 ;;      Params:         0       0       0       0       0       0       0       0       0
  3428 ;;      Locals:         0       1       0       0       0       0       0       0       0
  3429 ;;      Temps:          0       0       0       0       0       0       0       0       0
  3430 ;;      Totals:         0       1       0       0       0       0       0       0       0
  3431 ;;Total ram usage:        1 bytes
  3432 ;; Hardware stack levels used: 1
  3433 ;; Hardware stack levels required when called: 11
  3434 ;; This function calls:
  3435 ;;		_memset
  3436 ;; This function is called by:
  3437 ;;		_SYSTEM_Initialize
  3438 ;; This function uses a non-reentrant model
  3439 ;;
  3440                           
  3441                           	psect	text15
  3442  001BEA                     __ptext15:
  3443                           	callstack 0
  3444  001BEA                     _USBDeviceInit:
  3445                           	callstack 18
  3446  001BEA                     
  3447                           ;mcc_generated_files/usb/usb_device.c: 283:     uint8_t i;;mcc_generated_files/usb/usb_d
      +                          evice.c: 285:     {PIE3bits.USBIE = 0;};
  3448  001BEA  94A3               	bcf	163,2,c	;volatile
  3449  001BEC                     
  3450                           ;mcc_generated_files/usb/usb_device.c: 292:     {UEIR = 0;};
  3451  001BEC  0E00               	movlw	0
  3452  001BEE  6E67               	movwf	103,c	;volatile
  3453                           
  3454                           ;mcc_generated_files/usb/usb_device.c: 295:     {UIR = 0;};
  3455  001BF0  0E00               	movlw	0
  3456  001BF2  6E65               	movwf	101,c	;volatile
  3457                           
  3458                           ;mcc_generated_files/usb/usb_device.c: 298:     UEP0 = 0;
  3459  001BF4  0E00               	movlw	0
  3460  001BF6  6E6A               	movwf	106,c	;volatile
  3461  001BF8                     
  3462                           ;mcc_generated_files/usb/usb_device.c: 300:     memset((void*)&UEP1,0x00,(2));;
  3463  001BF8  0E6B               	movlw	107
  3464  001BFA  0100               	movlb	0	; () banked
  3465  001BFC  6F60               	movwf	memset@dest& (0+255),b
  3466  001BFE  0E0F               	movlw	15
  3467  001C00  6F61               	movwf	(memset@dest+1)& (0+255),b
  3468  001C02  0E00               	movlw	0
  3469  001C04  6F63               	movwf	(memset@c+1)& (0+255),b
  3470  001C06  0E00               	movlw	0
  3471  001C08  6F62               	movwf	memset@c& (0+255),b
  3472  001C0A  0E00               	movlw	0
  3473  001C0C  6F65               	movwf	(memset@n+1)& (0+255),b
  3474  001C0E  0E02               	movlw	2
  3475  001C10  6F64               	movwf	memset@n& (0+255),b
  3476  001C12  EC11  F00B         	call	_memset	;wreg free
  3477  001C16                     
  3478                           ;mcc_generated_files/usb/usb_device.c: 302:     { UCFG = 0x10 | 0x00 | 0x04 | 0x02; UEIE
      +                           = 0x9F; UIE = 0x39 | 0x40 | 0x02; };
  3479  001C16  0E16               	movlw	22
  3480  001C18  6E62               	movwf	98,c	;volatile
  3481  001C1A  0E9F               	movlw	159
  3482  001C1C  6E66               	movwf	102,c	;volatile
  3483  001C1E  0E7B               	movlw	123
  3484  001C20  6E64               	movwf	100,c	;volatile
  3485  001C22                     
  3486                           ;mcc_generated_files/usb/usb_device.c: 311:     for(i = 0; i < (sizeof(BDT)/sizeof(BDT_E
      +                          NTRY)); i++)
  3487  001C22  0E00               	movlw	0
  3488  001C24  0100               	movlb	0	; () banked
  3489  001C26  6F6C               	movwf	USBDeviceInit@i& (0+255),b
  3490  001C28                     l7226:
  3491                           
  3492                           ; BSR set to: 0
  3493                           ;mcc_generated_files/usb/usb_device.c: 312:     {;mcc_generated_files/usb/usb_device.c: 
      +                          313:         BDT[i].Val = 0x00;
  3494  001C28  516C               	movf	USBDeviceInit@i& (0+255),w,b
  3495  001C2A  0D04               	mullw	4
  3496  001C2C  0E00               	movlw	0
  3497  001C2E  24F3               	addwf	243,w,c
  3498  001C30  6ED9               	movwf	fsr2l,c
  3499  001C32  0E04               	movlw	4
  3500  001C34  20F4               	addwfc	prodh,w,c
  3501  001C36  6EDA               	movwf	fsr2h,c
  3502  001C38  6ADE               	clrf	postinc2,c
  3503  001C3A  6ADE               	clrf	postinc2,c
  3504  001C3C  6ADE               	clrf	postinc2,c
  3505  001C3E  6ADD               	clrf	postdec2,c
  3506  001C40                     
  3507                           ; BSR set to: 0
  3508                           ;mcc_generated_files/usb/usb_device.c: 314:     }
  3509  001C40  2B6C               	incf	USBDeviceInit@i& (0+255),f,b
  3510  001C42                     
  3511                           ; BSR set to: 0
  3512  001C42  0E0B               	movlw	11
  3513  001C44  656C               	cpfsgt	USBDeviceInit@i& (0+255),b
  3514  001C46  EF27  F00E         	goto	u5741
  3515  001C4A  EF29  F00E         	goto	u5740
  3516  001C4E                     u5741:
  3517  001C4E  EF14  F00E         	goto	l7226
  3518  001C52                     u5740:
  3519  001C52                     
  3520                           ; BSR set to: 0
  3521                           ;mcc_generated_files/usb/usb_device.c: 317:     UCONbits.PPBRST = 1;
  3522  001C52  8C60               	bsf	96,6,c	;volatile
  3523  001C54                     
  3524                           ; BSR set to: 0
  3525                           ;mcc_generated_files/usb/usb_device.c: 320:     UADDR = 0x00;
  3526  001C54  0E00               	movlw	0
  3527  001C56  6E63               	movwf	99,c	;volatile
  3528  001C58                     
  3529                           ; BSR set to: 0
  3530                           ;mcc_generated_files/usb/usb_device.c: 323:     UCONbits.PKTDIS = 0;
  3531  001C58  9860               	bcf	96,4,c	;volatile
  3532  001C5A                     
  3533                           ; BSR set to: 0
  3534                           ;mcc_generated_files/usb/usb_device.c: 326:     UCONbits.PPBRST = 0;
  3535  001C5A  9C60               	bcf	96,6,c	;volatile
  3536  001C5C                     l7238:
  3537                           
  3538                           ; BSR set to: 0
  3539                           ;mcc_generated_files/usb/usb_device.c: 330:     {;mcc_generated_files/usb/usb_device.c: 
      +                          331:         (UIR &= 0xF7);
  3540  001C5C  9665               	bcf	101,3,c	;volatile
  3541  001C5E                     
  3542                           ; BSR set to: 0
  3543                           ;mcc_generated_files/usb/usb_device.c: 333:         inPipes[0].info.Val = 0;
  3544  001C5E  0E00               	movlw	0
  3545  001C60  6FD7               	movwf	(_inPipes+3)& (0+255),b	;volatile
  3546  001C62                     
  3547                           ; BSR set to: 0
  3548                           ;mcc_generated_files/usb/usb_device.c: 334:         outPipes[0].info.Val = 0;
  3549  001C62  0E00               	movlw	0
  3550  001C64  6FCF               	movwf	(_outPipes+3)& (0+255),b	;volatile
  3551  001C66                     
  3552                           ; BSR set to: 0
  3553                           ;mcc_generated_files/usb/usb_device.c: 335:         outPipes[0].wCount.Val = 0;
  3554  001C66  0E00               	movlw	0
  3555  001C68  6FD1               	movwf	(_outPipes+5)& (0+255),b	;volatile
  3556  001C6A  0E00               	movlw	0
  3557  001C6C  6FD0               	movwf	(_outPipes+4)& (0+255),b	;volatile
  3558  001C6E                     
  3559                           ; BSR set to: 0
  3560                           ;mcc_generated_files/usb/usb_device.c: 336:     }while(UIRbits.TRNIF == 1);
  3561  001C6E  B665               	btfsc	101,3,c	;volatile
  3562  001C70  EF3C  F00E         	goto	u5751
  3563  001C74  EF3E  F00E         	goto	u5750
  3564  001C78                     u5751:
  3565  001C78  EF2E  F00E         	goto	l7238
  3566  001C7C                     u5750:
  3567  001C7C                     
  3568                           ; BSR set to: 0
  3569                           ;mcc_generated_files/usb/usb_device.c: 340:     USBStatusStageEnabledFlag1 = 1;
  3570  001C7C  0E01               	movlw	1
  3571  001C7E  6E48               	movwf	_USBStatusStageEnabledFlag1^0,c	;volatile
  3572                           
  3573                           ;mcc_generated_files/usb/usb_device.c: 341:     USBStatusStageEnabledFlag2 = 1;
  3574  001C80  0E01               	movlw	1
  3575  001C82  6E47               	movwf	_USBStatusStageEnabledFlag2^0,c	;volatile
  3576                           
  3577                           ;mcc_generated_files/usb/usb_device.c: 343:     USBDeferINDataStagePackets = 0;
  3578  001C84  0E00               	movlw	0
  3579  001C86  6E46               	movwf	_USBDeferINDataStagePackets^0,c	;volatile
  3580                           
  3581                           ;mcc_generated_files/usb/usb_device.c: 344:     USBDeferOUTDataStagePackets = 0;
  3582  001C88  0E00               	movlw	0
  3583  001C8A  6E45               	movwf	_USBDeferOUTDataStagePackets^0,c	;volatile
  3584                           
  3585                           ;mcc_generated_files/usb/usb_device.c: 345:     USBBusIsSuspended = 0;
  3586  001C8C  0E00               	movlw	0
  3587  001C8E  6FF5               	movwf	_USBBusIsSuspended& (0+255),b	;volatile
  3588                           
  3589                           ;mcc_generated_files/usb/usb_device.c: 349:     for(i = 0; i < (uint8_t)(2 +1u); i++)
  3590  001C90  0E00               	movlw	0
  3591  001C92  6F6C               	movwf	USBDeviceInit@i& (0+255),b
  3592  001C94                     l7254:
  3593                           
  3594                           ; BSR set to: 0
  3595                           ;mcc_generated_files/usb/usb_device.c: 350:     {;mcc_generated_files/usb/usb_device.c: 
      +                          351:         pBDTEntryIn[i] = 0u;
  3596  001C94  516C               	movf	USBDeviceInit@i& (0+255),w,b
  3597  001C96  0D02               	mullw	2
  3598  001C98  0EDA               	movlw	low _pBDTEntryIn
  3599  001C9A  24F3               	addwf	243,w,c
  3600  001C9C  6ED9               	movwf	fsr2l,c
  3601  001C9E  0E00               	movlw	high _pBDTEntryIn
  3602  001CA0  20F4               	addwfc	prodh,w,c
  3603  001CA2  6EDA               	movwf	fsr2h,c
  3604  001CA4  0E00               	movlw	0
  3605  001CA6  6EDE               	movwf	postinc2,c
  3606  001CA8  0E00               	movlw	0
  3607  001CAA  6EDD               	movwf	postdec2,c
  3608                           
  3609                           ;mcc_generated_files/usb/usb_device.c: 352:         pBDTEntryOut[i] = 0u;
  3610  001CAC  516C               	movf	USBDeviceInit@i& (0+255),w,b
  3611  001CAE  0D02               	mullw	2
  3612  001CB0  0EE0               	movlw	low _pBDTEntryOut
  3613  001CB2  24F3               	addwf	243,w,c
  3614  001CB4  6ED9               	movwf	fsr2l,c
  3615  001CB6  0E00               	movlw	high _pBDTEntryOut
  3616  001CB8  20F4               	addwfc	prodh,w,c
  3617  001CBA  6EDA               	movwf	fsr2h,c
  3618  001CBC  0E00               	movlw	0
  3619  001CBE  6EDE               	movwf	postinc2,c
  3620  001CC0  0E00               	movlw	0
  3621  001CC2  6EDD               	movwf	postdec2,c
  3622  001CC4                     
  3623                           ; BSR set to: 0
  3624                           ;mcc_generated_files/usb/usb_device.c: 353:         ep_data_in[i].Val = 0u;
  3625  001CC4  0EE9               	movlw	low _ep_data_in
  3626  001CC6  256C               	addwf	USBDeviceInit@i& (0+255),w,b
  3627  001CC8  6ED9               	movwf	fsr2l,c
  3628  001CCA  6ADA               	clrf	fsr2h,c
  3629  001CCC  0E00               	movlw	high _ep_data_in
  3630  001CCE  22DA               	addwfc	fsr2h,f,c
  3631  001CD0  0E00               	movlw	0
  3632  001CD2  6EDF               	movwf	indf2,c
  3633  001CD4                     
  3634                           ; BSR set to: 0
  3635                           ;mcc_generated_files/usb/usb_device.c: 354:         ep_data_out[i].Val = 0u;
  3636  001CD4  0EE6               	movlw	low _ep_data_out
  3637  001CD6  256C               	addwf	USBDeviceInit@i& (0+255),w,b
  3638  001CD8  6ED9               	movwf	fsr2l,c
  3639  001CDA  6ADA               	clrf	fsr2h,c
  3640  001CDC  0E00               	movlw	high _ep_data_out
  3641  001CDE  22DA               	addwfc	fsr2h,f,c
  3642  001CE0  0E00               	movlw	0
  3643  001CE2  6EDF               	movwf	indf2,c
  3644  001CE4                     
  3645                           ; BSR set to: 0
  3646                           ;mcc_generated_files/usb/usb_device.c: 355:     }
  3647  001CE4  2B6C               	incf	USBDeviceInit@i& (0+255),f,b
  3648  001CE6                     
  3649                           ; BSR set to: 0
  3650  001CE6  0E02               	movlw	2
  3651  001CE8  656C               	cpfsgt	USBDeviceInit@i& (0+255),b
  3652  001CEA  EF79  F00E         	goto	u5761
  3653  001CEE  EF7B  F00E         	goto	u5760
  3654  001CF2                     u5761:
  3655  001CF2  EF4A  F00E         	goto	l7254
  3656  001CF6                     u5760:
  3657  001CF6                     
  3658                           ; BSR set to: 0
  3659                           ;mcc_generated_files/usb/usb_device.c: 358:     pBDTEntryIn[0] = (volatile BDT_ENTRY*)&B
      +                          DT[2];
  3660  001CF6  0E08               	movlw	8
  3661  001CF8  6FDA               	movwf	_pBDTEntryIn& (0+255),b
  3662  001CFA  0E04               	movlw	4
  3663  001CFC  6FDB               	movwf	(_pBDTEntryIn+1)& (0+255),b
  3664  001CFE                     
  3665                           ; BSR set to: 0
  3666                           ;mcc_generated_files/usb/usb_device.c: 360:     UEP0 = 0x06|0x10;
  3667  001CFE  0E16               	movlw	22
  3668  001D00  6E6A               	movwf	106,c	;volatile
  3669  001D02                     
  3670                           ; BSR set to: 0
  3671                           ;mcc_generated_files/usb/usb_device.c: 362:     BDT[0].ADR = ((uint16_t)(&SetupPkt));
  3672  001D02  0E04               	movlw	4
  3673  001D04  0104               	movlb	4	; () banked
  3674  001D06  6F03               	movwf	3,b	;volatile
  3675  001D08  0E30               	movlw	48
  3676  001D0A  6F02               	movwf	2,b	;volatile
  3677  001D0C                     
  3678                           ; BSR set to: 4
  3679                           ;mcc_generated_files/usb/usb_device.c: 363:     BDT[0].CNT = 8;
  3680  001D0C  0E08               	movlw	8
  3681  001D0E  6F01               	movwf	1,b	;volatile
  3682  001D10                     
  3683                           ; BSR set to: 4
  3684                           ;mcc_generated_files/usb/usb_device.c: 364:     BDT[0].STAT.Val = 0x00|0x04;
  3685  001D10  0E04               	movlw	4
  3686  001D12  6F00               	movwf	0,b	;volatile
  3687  001D14                     
  3688                           ; BSR set to: 4
  3689                           ;mcc_generated_files/usb/usb_device.c: 365:     BDT[0].STAT.Val |= 0x80;
  3690  001D14  8F00               	bsf	0,7,b	;volatile
  3691  001D16                     
  3692                           ; BSR set to: 4
  3693                           ;mcc_generated_files/usb/usb_device.c: 368:     USBActiveConfiguration = 0;
  3694  001D16  0E00               	movlw	0
  3695  001D18  6E54               	movwf	_USBActiveConfiguration^0,c	;volatile
  3696  001D1A                     
  3697                           ; BSR set to: 4
  3698                           ;mcc_generated_files/usb/usb_device.c: 370:     USB1msTickCount = 0;
  3699  001D1A  0E00               	movlw	0
  3700  001D1C  6E2C               	movwf	_USB1msTickCount^0,c	;volatile
  3701  001D1E  0E00               	movlw	0
  3702  001D20  6E2D               	movwf	(_USB1msTickCount+1)^0,c	;volatile
  3703  001D22  0E00               	movlw	0
  3704  001D24  6E2E               	movwf	(_USB1msTickCount+2)^0,c	;volatile
  3705  001D26  0E00               	movlw	0
  3706  001D28  6E2F               	movwf	(_USB1msTickCount+3)^0,c	;volatile
  3707  001D2A                     
  3708                           ; BSR set to: 4
  3709                           ;mcc_generated_files/usb/usb_device.c: 371:     USBTicksSinceSuspendEnd = 0;
  3710  001D2A  0E00               	movlw	0
  3711  001D2C  0100               	movlb	0	; () banked
  3712  001D2E  6FF4               	movwf	_USBTicksSinceSuspendEnd& (0+255),b	;volatile
  3713  001D30                     
  3714                           ; BSR set to: 0
  3715                           ;mcc_generated_files/usb/usb_device.c: 374:     USBDeviceState = DETACHED_STATE;
  3716  001D30  0E00               	movlw	0
  3717  001D32  6E50               	movwf	_USBDeviceState^0,c	;volatile
  3718  001D34                     
  3719                           ; BSR set to: 0
  3720  001D34  0012               	return		;funcret
  3721  001D36                     __end_of_USBDeviceInit:
  3722                           	callstack 0
  3723                           
  3724 ;; *************** function _memset *****************
  3725 ;; Defined at:
  3726 ;;		line 4 in file "/Applications/microchip/xc8/v2.35/pic/sources/c99/common/memset.c"
  3727 ;; Parameters:    Size  Location     Type
  3728 ;;  dest            2    0[BANK0 ] PTR void 
  3729 ;;		 -> USBAlternateInterface(2), BDT(48), UEP1(1), 
  3730 ;;  c               2    2[BANK0 ] int 
  3731 ;;  n               2    4[BANK0 ] unsigned int 
  3732 ;; Auto vars:     Size  Location     Type
  3733 ;;  s               2   10[BANK0 ] PTR unsigned char 
  3734 ;;		 -> USBAlternateInterface(2), BDT(48), UEP1(1), 
  3735 ;;  k               2    8[BANK0 ] unsigned int 
  3736 ;; Return value:  Size  Location     Type
  3737 ;;                  2    0[BANK0 ] PTR void 
  3738 ;; Registers used:
  3739 ;;		wreg, fsr2l, fsr2h, status,2, status,0
  3740 ;; Tracked objects:
  3741 ;;		On entry : 0/0
  3742 ;;		On exit  : 0/0
  3743 ;;		Unchanged: 0/0
  3744 ;; Data sizes:     COMRAM   BANK0   BANK1   BANK2   BANK3   BANK4   BANK5   BANK6   BANK7
  3745 ;;      Params:         0       6       0       0       0       0       0       0       0
  3746 ;;      Locals:         0       4       0       0       0       0       0       0       0
  3747 ;;      Temps:          0       2       0       0       0       0       0       0       0
  3748 ;;      Totals:         0      12       0       0       0       0       0       0       0
  3749 ;;Total ram usage:       12 bytes
  3750 ;; Hardware stack levels used: 1
  3751 ;; Hardware stack levels required when called: 10
  3752 ;; This function calls:
  3753 ;;		Nothing
  3754 ;; This function is called by:
  3755 ;;		_USBDeviceInit
  3756 ;; This function uses a non-reentrant model
  3757 ;;
  3758                           
  3759                           	psect	text16
  3760  001622                     __ptext16:
  3761                           	callstack 0
  3762  001622                     _memset:
  3763                           	callstack 18
  3764  001622  C060  F06A         	movff	memset@dest,memset@s
  3765  001626  C061  F06B         	movff	memset@dest+1,memset@s+1
  3766  00162A  0100               	movlb	0	; () banked
  3767  00162C  5164               	movf	memset@n& (0+255),w,b
  3768  00162E  1165               	iorwf	(memset@n+1)& (0+255),w,b
  3769  001630  A4D8               	btfss	status,2,c
  3770  001632  EF1D  F00B         	goto	u5651
  3771  001636  EF1F  F00B         	goto	u5650
  3772  00163A                     u5651:
  3773  00163A  EF21  F00B         	goto	l7138
  3774  00163E                     u5650:
  3775  00163E  EFCC  F00B         	goto	l1885
  3776  001642                     l7138:
  3777                           
  3778                           ; BSR set to: 0
  3779  001642  C06A  FFD9         	movff	memset@s,fsr2l
  3780  001646  C06B  FFDA         	movff	memset@s+1,fsr2h
  3781  00164A  C062  FFDF         	movff	memset@c,indf2
  3782  00164E                     
  3783                           ; BSR set to: 0
  3784  00164E  5164               	movf	memset@n& (0+255),w,b
  3785  001650  256A               	addwf	memset@s& (0+255),w,b
  3786  001652  6F66               	movwf	??_memset& (0+255),b
  3787  001654  5165               	movf	(memset@n+1)& (0+255),w,b
  3788  001656  216B               	addwfc	(memset@s+1)& (0+255),w,b
  3789  001658  6F67               	movwf	(??_memset+1)& (0+255),b
  3790  00165A  0EFF               	movlw	255
  3791  00165C  2566               	addwf	??_memset& (0+255),w,b
  3792  00165E  6ED9               	movwf	fsr2l,c
  3793  001660  0EFF               	movlw	255
  3794  001662  2167               	addwfc	(??_memset+1)& (0+255),w,b
  3795  001664  6EDA               	movwf	fsr2h,c
  3796  001666  C062  FFDF         	movff	memset@c,indf2
  3797  00166A  5165               	movf	(memset@n+1)& (0+255),w,b
  3798  00166C  E107               	bnz	u5661
  3799  00166E  0E03               	movlw	3
  3800  001670  5D64               	subwf	memset@n& (0+255),w,b
  3801  001672  B0D8               	btfsc	status,0,c
  3802  001674  EF3E  F00B         	goto	u5661
  3803  001678  EF40  F00B         	goto	u5660
  3804  00167C                     u5661:
  3805  00167C  EF42  F00B         	goto	l7144
  3806  001680                     u5660:
  3807  001680  EFCC  F00B         	goto	l1885
  3808  001684                     l7144:
  3809                           
  3810                           ; BSR set to: 0
  3811  001684  EE20 F001          	lfsr	2,1
  3812  001688  516A               	movf	memset@s& (0+255),w,b
  3813  00168A  26D9               	addwf	fsr2l,f,c
  3814  00168C  516B               	movf	(memset@s+1)& (0+255),w,b
  3815  00168E  22DA               	addwfc	fsr2h,f,c
  3816  001690  C062  FFDF         	movff	memset@c,indf2
  3817  001694  EE20 F002          	lfsr	2,2
  3818  001698  516A               	movf	memset@s& (0+255),w,b
  3819  00169A  26D9               	addwf	fsr2l,f,c
  3820  00169C  516B               	movf	(memset@s+1)& (0+255),w,b
  3821  00169E  22DA               	addwfc	fsr2h,f,c
  3822  0016A0  C062  FFDF         	movff	memset@c,indf2
  3823  0016A4  5164               	movf	memset@n& (0+255),w,b
  3824  0016A6  256A               	addwf	memset@s& (0+255),w,b
  3825  0016A8  6F66               	movwf	??_memset& (0+255),b
  3826  0016AA  5165               	movf	(memset@n+1)& (0+255),w,b
  3827  0016AC  216B               	addwfc	(memset@s+1)& (0+255),w,b
  3828  0016AE  6F67               	movwf	(??_memset+1)& (0+255),b
  3829  0016B0  0EFE               	movlw	254
  3830  0016B2  2566               	addwf	??_memset& (0+255),w,b
  3831  0016B4  6ED9               	movwf	fsr2l,c
  3832  0016B6  0EFF               	movlw	255
  3833  0016B8  2167               	addwfc	(??_memset+1)& (0+255),w,b
  3834  0016BA  6EDA               	movwf	fsr2h,c
  3835  0016BC  C062  FFDF         	movff	memset@c,indf2
  3836  0016C0  5164               	movf	memset@n& (0+255),w,b
  3837  0016C2  256A               	addwf	memset@s& (0+255),w,b
  3838  0016C4  6F66               	movwf	??_memset& (0+255),b
  3839  0016C6  5165               	movf	(memset@n+1)& (0+255),w,b
  3840  0016C8  216B               	addwfc	(memset@s+1)& (0+255),w,b
  3841  0016CA  6F67               	movwf	(??_memset+1)& (0+255),b
  3842  0016CC  0EFD               	movlw	253
  3843  0016CE  2566               	addwf	??_memset& (0+255),w,b
  3844  0016D0  6ED9               	movwf	fsr2l,c
  3845  0016D2  0EFF               	movlw	255
  3846  0016D4  2167               	addwfc	(??_memset+1)& (0+255),w,b
  3847  0016D6  6EDA               	movwf	fsr2h,c
  3848  0016D8  C062  FFDF         	movff	memset@c,indf2
  3849  0016DC                     
  3850                           ; BSR set to: 0
  3851  0016DC  5165               	movf	(memset@n+1)& (0+255),w,b
  3852  0016DE  E107               	bnz	u5671
  3853  0016E0  0E07               	movlw	7
  3854  0016E2  5D64               	subwf	memset@n& (0+255),w,b
  3855  0016E4  B0D8               	btfsc	status,0,c
  3856  0016E6  EF77  F00B         	goto	u5671
  3857  0016EA  EF79  F00B         	goto	u5670
  3858  0016EE                     u5671:
  3859  0016EE  EF7B  F00B         	goto	l7150
  3860  0016F2                     u5670:
  3861  0016F2  EFCC  F00B         	goto	l1885
  3862  0016F6                     l7150:
  3863                           
  3864                           ; BSR set to: 0
  3865  0016F6  EE20 F003          	lfsr	2,3
  3866  0016FA  516A               	movf	memset@s& (0+255),w,b
  3867  0016FC  26D9               	addwf	fsr2l,f,c
  3868  0016FE  516B               	movf	(memset@s+1)& (0+255),w,b
  3869  001700  22DA               	addwfc	fsr2h,f,c
  3870  001702  C062  FFDF         	movff	memset@c,indf2
  3871  001706  5164               	movf	memset@n& (0+255),w,b
  3872  001708  256A               	addwf	memset@s& (0+255),w,b
  3873  00170A  6F66               	movwf	??_memset& (0+255),b
  3874  00170C  5165               	movf	(memset@n+1)& (0+255),w,b
  3875  00170E  216B               	addwfc	(memset@s+1)& (0+255),w,b
  3876  001710  6F67               	movwf	(??_memset+1)& (0+255),b
  3877  001712  0EFC               	movlw	252
  3878  001714  2566               	addwf	??_memset& (0+255),w,b
  3879  001716  6ED9               	movwf	fsr2l,c
  3880  001718  0EFF               	movlw	255
  3881  00171A  2167               	addwfc	(??_memset+1)& (0+255),w,b
  3882  00171C  6EDA               	movwf	fsr2h,c
  3883  00171E  C062  FFDF         	movff	memset@c,indf2
  3884  001722                     
  3885                           ; BSR set to: 0
  3886  001722  5165               	movf	(memset@n+1)& (0+255),w,b
  3887  001724  E107               	bnz	u5681
  3888  001726  0E09               	movlw	9
  3889  001728  5D64               	subwf	memset@n& (0+255),w,b
  3890  00172A  B0D8               	btfsc	status,0,c
  3891  00172C  EF9A  F00B         	goto	u5681
  3892  001730  EF9C  F00B         	goto	u5680
  3893  001734                     u5681:
  3894  001734  EF9E  F00B         	goto	l7156
  3895  001738                     u5680:
  3896  001738  EFCC  F00B         	goto	l1885
  3897  00173C                     l7156:
  3898                           
  3899                           ; BSR set to: 0
  3900  00173C  C06A  F066         	movff	memset@s,??_memset
  3901  001740  C06B  F067         	movff	memset@s+1,??_memset+1
  3902  001744  1F66               	comf	??_memset& (0+255),f,b
  3903  001746  1F67               	comf	(??_memset+1)& (0+255),f,b
  3904  001748  4B66               	infsnz	??_memset& (0+255),f,b
  3905  00174A  2B67               	incf	(??_memset+1)& (0+255),f,b
  3906  00174C  0E03               	movlw	3
  3907  00174E  1566               	andwf	??_memset& (0+255),w,b
  3908  001750  6F68               	movwf	memset@k& (0+255),b
  3909  001752  6B69               	clrf	(memset@k+1)& (0+255),b
  3910  001754  5168               	movf	memset@k& (0+255),w,b
  3911  001756  276A               	addwf	memset@s& (0+255),f,b
  3912  001758  5169               	movf	(memset@k+1)& (0+255),w,b
  3913  00175A  236B               	addwfc	(memset@s+1)& (0+255),f,b
  3914  00175C  5168               	movf	memset@k& (0+255),w,b
  3915  00175E  5F64               	subwf	memset@n& (0+255),f,b
  3916  001760  5169               	movf	(memset@k+1)& (0+255),w,b
  3917  001762  5B65               	subwfb	(memset@n+1)& (0+255),f,b
  3918  001764  0EFC               	movlw	252
  3919  001766  1764               	andwf	memset@n& (0+255),f,b
  3920  001768  0EFF               	movlw	255
  3921  00176A  1765               	andwf	(memset@n+1)& (0+255),f,b
  3922  00176C  EFC3  F00B         	goto	l7164
  3923  001770                     l7158:
  3924                           
  3925                           ; BSR set to: 0
  3926  001770  C06A  FFD9         	movff	memset@s,fsr2l
  3927  001774  C06B  FFDA         	movff	memset@s+1,fsr2h
  3928  001778  C062  FFDF         	movff	memset@c,indf2
  3929  00177C                     
  3930                           ; BSR set to: 0
  3931  00177C  0764               	decf	memset@n& (0+255),f,b
  3932  00177E  A0D8               	btfss	status,0,c
  3933  001780  0765               	decf	(memset@n+1)& (0+255),f,b
  3934  001782                     
  3935                           ; BSR set to: 0
  3936  001782  4B6A               	infsnz	memset@s& (0+255),f,b
  3937  001784  2B6B               	incf	(memset@s+1)& (0+255),f,b
  3938  001786                     l7164:
  3939                           
  3940                           ; BSR set to: 0
  3941  001786  5164               	movf	memset@n& (0+255),w,b
  3942  001788  1165               	iorwf	(memset@n+1)& (0+255),w,b
  3943  00178A  A4D8               	btfss	status,2,c
  3944  00178C  EFCA  F00B         	goto	u5691
  3945  001790  EFCC  F00B         	goto	u5690
  3946  001794                     u5691:
  3947  001794  EFB8  F00B         	goto	l7158
  3948  001798                     u5690:
  3949  001798                     l1885:
  3950                           
  3951                           ; BSR set to: 0
  3952  001798  0012               	return		;funcret
  3953  00179A                     __end_of_memset:
  3954                           	callstack 0
  3955                           
  3956 ;; *************** function _USBDeviceAttach *****************
  3957 ;; Defined at:
  3958 ;;		line 1356 in file "mcc_generated_files/usb/usb_device.c"
  3959 ;; Parameters:    Size  Location     Type
  3960 ;;		None
  3961 ;; Auto vars:     Size  Location     Type
  3962 ;;		None
  3963 ;; Return value:  Size  Location     Type
  3964 ;;                  1    wreg      void 
  3965 ;; Registers used:
  3966 ;;		wreg, status,2
  3967 ;; Tracked objects:
  3968 ;;		On entry : 0/0
  3969 ;;		On exit  : 0/0
  3970 ;;		Unchanged: 0/0
  3971 ;; Data sizes:     COMRAM   BANK0   BANK1   BANK2   BANK3   BANK4   BANK5   BANK6   BANK7
  3972 ;;      Params:         0       0       0       0       0       0       0       0       0
  3973 ;;      Locals:         0       0       0       0       0       0       0       0       0
  3974 ;;      Temps:          0       0       0       0       0       0       0       0       0
  3975 ;;      Totals:         0       0       0       0       0       0       0       0       0
  3976 ;;Total ram usage:        0 bytes
  3977 ;; Hardware stack levels used: 1
  3978 ;; Hardware stack levels required when called: 10
  3979 ;; This function calls:
  3980 ;;		Nothing
  3981 ;; This function is called by:
  3982 ;;		_SYSTEM_Initialize
  3983 ;; This function uses a non-reentrant model
  3984 ;;
  3985                           
  3986                           	psect	text17
  3987  0033CE                     __ptext17:
  3988                           	callstack 0
  3989  0033CE                     _USBDeviceAttach:
  3990                           	callstack 19
  3991  0033CE                     
  3992                           ;mcc_generated_files/usb/usb_device.c: 1360:     {;mcc_generated_files/usb/usb_device.c:
      +                           1361:         if(1 == 1)
  3993  0033CE  5050               	movf	_USBDeviceState^0,w,c	;volatile
  3994  0033D0  A4D8               	btfss	status,2,c
  3995  0033D2  EFED  F019         	goto	u5801
  3996  0033D6  EFEF  F019         	goto	u5800
  3997  0033DA                     u5801:
  3998  0033DA  EF07  F01A         	goto	l410
  3999  0033DE                     u5800:
  4000  0033DE                     
  4001                           ;mcc_generated_files/usb/usb_device.c: 1362:         {;mcc_generated_files/usb/usb_devic
      +                          e.c: 1364:             UCON = 0;
  4002  0033DE  0E00               	movlw	0
  4003  0033E0  6E60               	movwf	96,c	;volatile
  4004                           
  4005                           ;mcc_generated_files/usb/usb_device.c: 1367:             UIE = 0;
  4006  0033E2  0E00               	movlw	0
  4007  0033E4  6E64               	movwf	100,c	;volatile
  4008                           
  4009                           ;mcc_generated_files/usb/usb_device.c: 1371:             { UCFG = 0x10 | 0x00 | 0x04 | 0
      +                          x02; UEIE = 0x9F; UIE = 0x39 | 0x40 | 0x02; };
  4010  0033E6  0E16               	movlw	22
  4011  0033E8  6E62               	movwf	98,c	;volatile
  4012  0033EA  0E9F               	movlw	159
  4013  0033EC  6E66               	movwf	102,c	;volatile
  4014  0033EE  0E7B               	movlw	123
  4015  0033F0  6E64               	movwf	100,c	;volatile
  4016  0033F2                     
  4017                           ;mcc_generated_files/usb/usb_device.c: 1373:             {IPR3bits.USBIP = 1;PIE3bits.US
      +                          BIE = 1;};
  4018  0033F2  84A5               	bsf	165,2,c	;volatile
  4019  0033F4  84A3               	bsf	163,2,c	;volatile
  4020                           
  4021                           ;mcc_generated_files/usb/usb_device.c: 1376:             while(!UCONbits.USBEN){UCONbits
      +                          .USBEN = 1;}
  4022  0033F6  EFFE  F019         	goto	l407
  4023  0033FA                     l408:
  4024  0033FA  8660               	bsf	96,3,c	;volatile
  4025  0033FC                     l407:
  4026  0033FC  A660               	btfss	96,3,c	;volatile
  4027  0033FE  EF03  F01A         	goto	u5811
  4028  003402  EF05  F01A         	goto	u5810
  4029  003406                     u5811:
  4030  003406  EFFD  F019         	goto	l408
  4031  00340A                     u5810:
  4032  00340A                     
  4033                           ;mcc_generated_files/usb/usb_device.c: 1379:             USBDeviceState = ATTACHED_STATE
      +                          ;
  4034  00340A  0E01               	movlw	1
  4035  00340C  6E50               	movwf	_USBDeviceState^0,c	;volatile
  4036  00340E                     l410:
  4037  00340E  0012               	return		;funcret
  4038  003410                     __end_of_USBDeviceAttach:
  4039                           	callstack 0
  4040                           
  4041 ;; *************** function _PIN_MANAGER_Initialize *****************
  4042 ;; Defined at:
  4043 ;;		line 55 in file "mcc_generated_files/pin_manager.c"
  4044 ;; Parameters:    Size  Location     Type
  4045 ;;		None
  4046 ;; Auto vars:     Size  Location     Type
  4047 ;;		None
  4048 ;; Return value:  Size  Location     Type
  4049 ;;                  1    wreg      void 
  4050 ;; Registers used:
  4051 ;;		wreg, status,2
  4052 ;; Tracked objects:
  4053 ;;		On entry : 0/0
  4054 ;;		On exit  : 0/0
  4055 ;;		Unchanged: 0/0
  4056 ;; Data sizes:     COMRAM   BANK0   BANK1   BANK2   BANK3   BANK4   BANK5   BANK6   BANK7
  4057 ;;      Params:         0       0       0       0       0       0       0       0       0
  4058 ;;      Locals:         0       0       0       0       0       0       0       0       0
  4059 ;;      Temps:          0       0       0       0       0       0       0       0       0
  4060 ;;      Totals:         0       0       0       0       0       0       0       0       0
  4061 ;;Total ram usage:        0 bytes
  4062 ;; Hardware stack levels used: 1
  4063 ;; Hardware stack levels required when called: 10
  4064 ;; This function calls:
  4065 ;;		Nothing
  4066 ;; This function is called by:
  4067 ;;		_SYSTEM_Initialize
  4068 ;; This function uses a non-reentrant model
  4069 ;;
  4070                           
  4071                           	psect	text18
  4072  003452                     __ptext18:
  4073                           	callstack 0
  4074  003452                     _PIN_MANAGER_Initialize:
  4075                           	callstack 19
  4076  003452                     
  4077                           ;mcc_generated_files/pin_manager.c: 60:     LATE = 0x00;
  4078  003452  0E00               	movlw	0
  4079  003454  6E8D               	movwf	141,c	;volatile
  4080                           
  4081                           ;mcc_generated_files/pin_manager.c: 61:     LATD = 0x00;
  4082  003456  0E00               	movlw	0
  4083  003458  6E8C               	movwf	140,c	;volatile
  4084                           
  4085                           ;mcc_generated_files/pin_manager.c: 62:     LATA = 0x00;
  4086  00345A  0E00               	movlw	0
  4087  00345C  6E89               	movwf	137,c	;volatile
  4088                           
  4089                           ;mcc_generated_files/pin_manager.c: 63:     LATB = 0x00;
  4090  00345E  0E00               	movlw	0
  4091  003460  6E8A               	movwf	138,c	;volatile
  4092                           
  4093                           ;mcc_generated_files/pin_manager.c: 64:     LATC = 0x00;
  4094  003462  0E00               	movlw	0
  4095  003464  6E8B               	movwf	139,c	;volatile
  4096                           
  4097                           ;mcc_generated_files/pin_manager.c: 69:     TRISE = 0x07;
  4098  003466  0E07               	movlw	7
  4099  003468  6E96               	movwf	150,c	;volatile
  4100  00346A                     
  4101                           ;mcc_generated_files/pin_manager.c: 70:     TRISA = 0xFF;
  4102  00346A  6892               	setf	146,c	;volatile
  4103  00346C                     
  4104                           ;mcc_generated_files/pin_manager.c: 71:     TRISB = 0xFF;
  4105  00346C  6893               	setf	147,c	;volatile
  4106                           
  4107                           ;mcc_generated_files/pin_manager.c: 72:     TRISC = 0xC7;
  4108  00346E  0EC7               	movlw	199
  4109  003470  6E94               	movwf	148,c	;volatile
  4110  003472                     
  4111                           ;mcc_generated_files/pin_manager.c: 73:     TRISD = 0xFF;
  4112  003472  6895               	setf	149,c	;volatile
  4113  003474                     
  4114                           ;mcc_generated_files/pin_manager.c: 78:     ANSELD = 0xFF;
  4115  003474  010F               	movlb	15	; () banked
  4116  003476  695E               	setf	94,b	;volatile
  4117                           
  4118                           ;mcc_generated_files/pin_manager.c: 79:     ANSELC = 0xC4;
  4119  003478  0EC4               	movlw	196
  4120  00347A  6F5D               	movwf	93,b	;volatile
  4121                           
  4122                           ;mcc_generated_files/pin_manager.c: 80:     ANSELB = 0x3C;
  4123  00347C  0E3C               	movlw	60
  4124  00347E  6F5C               	movwf	92,b	;volatile
  4125                           
  4126                           ;mcc_generated_files/pin_manager.c: 81:     ANSELE = 0x07;
  4127  003480  0E07               	movlw	7
  4128  003482  6F5F               	movwf	95,b	;volatile
  4129                           
  4130                           ;mcc_generated_files/pin_manager.c: 82:     ANSELA = 0x2F;
  4131  003484  0E2F               	movlw	47
  4132  003486  6F5B               	movwf	91,b	;volatile
  4133                           
  4134                           ;mcc_generated_files/pin_manager.c: 87:     WPUB = 0x00;
  4135  003488  0E00               	movlw	0
  4136  00348A  6E85               	movwf	133,c	;volatile
  4137  00348C                     
  4138                           ; BSR set to: 15
  4139                           ;mcc_generated_files/pin_manager.c: 88:     INTCON2bits.nRBPU = 1;
  4140  00348C  8EF1               	bsf	241,7,c	;volatile
  4141  00348E                     
  4142                           ; BSR set to: 15
  4143  00348E  0012               	return		;funcret
  4144  003490                     __end_of_PIN_MANAGER_Initialize:
  4145                           	callstack 0
  4146                           
  4147 ;; *************** function _OSCILLATOR_Initialize *****************
  4148 ;; Defined at:
  4149 ;;		line 60 in file "mcc_generated_files/mcc.c"
  4150 ;; Parameters:    Size  Location     Type
  4151 ;;		None
  4152 ;; Auto vars:     Size  Location     Type
  4153 ;;		None
  4154 ;; Return value:  Size  Location     Type
  4155 ;;                  1    wreg      void 
  4156 ;; Registers used:
  4157 ;;		wreg, status,2
  4158 ;; Tracked objects:
  4159 ;;		On entry : 0/0
  4160 ;;		On exit  : 0/0
  4161 ;;		Unchanged: 0/0
  4162 ;; Data sizes:     COMRAM   BANK0   BANK1   BANK2   BANK3   BANK4   BANK5   BANK6   BANK7
  4163 ;;      Params:         0       0       0       0       0       0       0       0       0
  4164 ;;      Locals:         0       0       0       0       0       0       0       0       0
  4165 ;;      Temps:          0       0       0       0       0       0       0       0       0
  4166 ;;      Totals:         0       0       0       0       0       0       0       0       0
  4167 ;;Total ram usage:        0 bytes
  4168 ;; Hardware stack levels used: 1
  4169 ;; Hardware stack levels required when called: 10
  4170 ;; This function calls:
  4171 ;;		Nothing
  4172 ;; This function is called by:
  4173 ;;		_SYSTEM_Initialize
  4174 ;; This function uses a non-reentrant model
  4175 ;;
  4176                           
  4177                           	psect	text19
  4178  00355E                     __ptext19:
  4179                           	callstack 0
  4180  00355E                     _OSCILLATOR_Initialize:
  4181                           	callstack 19
  4182  00355E                     
  4183                           ;mcc_generated_files/mcc.c: 63:     OSCCON = 0x70;
  4184  00355E  0E70               	movlw	112
  4185  003560  6ED3               	movwf	211,c	;volatile
  4186                           
  4187                           ;mcc_generated_files/mcc.c: 65:     OSCCON2 = 0x00;
  4188  003562  0E00               	movlw	0
  4189  003564  6ED2               	movwf	210,c	;volatile
  4190                           
  4191                           ;mcc_generated_files/mcc.c: 67:     OSCTUNE = 0x80;
  4192  003566  0E80               	movlw	128
  4193  003568  6E9B               	movwf	155,c	;volatile
  4194                           
  4195                           ;mcc_generated_files/mcc.c: 69:     ACTCON = 0x00;
  4196  00356A  0E00               	movlw	0
  4197  00356C  6EB5               	movwf	181,c	;volatile
  4198  00356E                     l768:
  4199                           
  4200                           ;mcc_generated_files/mcc.c: 71:     while(PLLRDY == 0)
  4201  00356E  AED2               	btfss	4050,7,c	;volatile
  4202  003570  EFBC  F01A         	goto	u5821
  4203  003574  EFBE  F01A         	goto	u5820
  4204  003578                     u5821:
  4205  003578  EFB7  F01A         	goto	l768
  4206  00357C                     u5820:
  4207  00357C  0012               	return		;funcret
  4208  00357E                     __end_of_OSCILLATOR_Initialize:
  4209                           	callstack 0
  4210                           
  4211 ;; *************** function _INTERRUPT_Initialize *****************
  4212 ;; Defined at:
  4213 ;;		line 52 in file "mcc_generated_files/interrupt_manager.c"
  4214 ;; Parameters:    Size  Location     Type
  4215 ;;		None
  4216 ;; Auto vars:     Size  Location     Type
  4217 ;;		None
  4218 ;; Return value:  Size  Location     Type
  4219 ;;                  1    wreg      void 
  4220 ;; Registers used:
  4221 ;;		None
  4222 ;; Tracked objects:
  4223 ;;		On entry : 0/0
  4224 ;;		On exit  : 0/0
  4225 ;;		Unchanged: 0/0
  4226 ;; Data sizes:     COMRAM   BANK0   BANK1   BANK2   BANK3   BANK4   BANK5   BANK6   BANK7
  4227 ;;      Params:         0       0       0       0       0       0       0       0       0
  4228 ;;      Locals:         0       0       0       0       0       0       0       0       0
  4229 ;;      Temps:          0       0       0       0       0       0       0       0       0
  4230 ;;      Totals:         0       0       0       0       0       0       0       0       0
  4231 ;;Total ram usage:        0 bytes
  4232 ;; Hardware stack levels used: 1
  4233 ;; Hardware stack levels required when called: 10
  4234 ;; This function calls:
  4235 ;;		Nothing
  4236 ;; This function is called by:
  4237 ;;		_SYSTEM_Initialize
  4238 ;; This function uses a non-reentrant model
  4239 ;;
  4240                           
  4241                           	psect	text20
  4242  003594                     __ptext20:
  4243                           	callstack 0
  4244  003594                     _INTERRUPT_Initialize:
  4245                           	callstack 19
  4246  003594                     
  4247                           ;mcc_generated_files/interrupt_manager.c: 55:     RCONbits.IPEN = 0;
  4248  003594  9ED0               	bcf	208,7,c	;volatile
  4249  003596  0012               	return		;funcret
  4250  003598                     __end_of_INTERRUPT_Initialize:
  4251                           	callstack 0
  4252                           
  4253 ;; *************** function _CDCTxService *****************
  4254 ;; Defined at:
  4255 ;;		line 854 in file "mcc_generated_files/usb/usb_device_cdc.c"
  4256 ;; Parameters:    Size  Location     Type
  4257 ;;		None
  4258 ;; Auto vars:     Size  Location     Type
  4259 ;;  byte_to_send    1   12[BANK0 ] unsigned char 
  4260 ;;  i               1   11[BANK0 ] unsigned char 
  4261 ;; Return value:  Size  Location     Type
  4262 ;;                  1    wreg      void 
  4263 ;; Registers used:
  4264 ;;		wreg, fsr1l, fsr1h, fsr2l, fsr2h, status,2, status,0, prodl, prodh, cstack
  4265 ;; Tracked objects:
  4266 ;;		On entry : 0/0
  4267 ;;		On exit  : 0/0
  4268 ;;		Unchanged: 0/0
  4269 ;; Data sizes:     COMRAM   BANK0   BANK1   BANK2   BANK3   BANK4   BANK5   BANK6   BANK7
  4270 ;;      Params:         0       0       0       0       0       0       0       0       0
  4271 ;;      Locals:         0       2       0       0       0       0       0       0       0
  4272 ;;      Temps:          0       0       0       0       0       0       0       0       0
  4273 ;;      Totals:         0       2       0       0       0       0       0       0       0
  4274 ;;Total ram usage:        2 bytes
  4275 ;; Hardware stack levels used: 1
  4276 ;; Hardware stack levels required when called: 11
  4277 ;; This function calls:
  4278 ;;		_USBTransferOnePacket
  4279 ;; This function is called by:
  4280 ;;		_main
  4281 ;; This function uses a non-reentrant model
  4282 ;;
  4283                           
  4284                           	psect	text21
  4285  001300                     __ptext21:
  4286                           	callstack 0
  4287  001300                     _CDCTxService:
  4288                           	callstack 19
  4289  001300                     
  4290                           ;mcc_generated_files/usb/usb_device_cdc.c: 856:     uint8_t byte_to_send;;mcc_generated_
      +                          files/usb/usb_device_cdc.c: 857:     uint8_t i;;mcc_generated_files/usb/usb_device_cdc.c
      +                          : 859:     {PIE3bits.USBIE = 0;};
  4291  001300  94A3               	bcf	163,2,c	;volatile
  4292  001302                     
  4293                           ;mcc_generated_files/usb/usb_device_cdc.c: 861:     {};;mcc_generated_files/usb/usb_devi
      +                          ce_cdc.c: 863:     if(((CDCDataInHandle != 0x0000) && ((*(volatile uint8_t*)CDCDataInHan
      +                          dle & 0x80) != 0x00)))
  4294  001302  0100               	movlb	0	; () banked
  4295  001304  51F0               	movf	_CDCDataInHandle& (0+255),w,b
  4296  001306  11F1               	iorwf	(_CDCDataInHandle+1)& (0+255),w,b
  4297  001308  B4D8               	btfsc	status,2,c
  4298  00130A  EF89  F009         	goto	u5871
  4299  00130E  EF8B  F009         	goto	u5870
  4300  001312                     u5871:
  4301  001312  EF99  F009         	goto	l7384
  4302  001316                     u5870:
  4303  001316                     
  4304                           ; BSR set to: 0
  4305  001316  C0F0  FFD9         	movff	_CDCDataInHandle,fsr2l
  4306  00131A  C0F1  FFDA         	movff	_CDCDataInHandle+1,fsr2h
  4307  00131E  AEDF               	btfss	indf2,7,c
  4308  001320  EF94  F009         	goto	u5881
  4309  001324  EF96  F009         	goto	u5880
  4310  001328                     u5881:
  4311  001328  EF99  F009         	goto	l7384
  4312  00132C                     u5880:
  4313  00132C                     
  4314                           ; BSR set to: 0
  4315                           ;mcc_generated_files/usb/usb_device_cdc.c: 864:     {;mcc_generated_files/usb/usb_device
      +                          _cdc.c: 865:         {PIE3bits.USBIE = 1;};
  4316  00132C  84A3               	bsf	163,2,c	;volatile
  4317                           
  4318                           ;mcc_generated_files/usb/usb_device_cdc.c: 866:         return;
  4319  00132E  EF4B  F00A         	goto	l724
  4320  001332                     l7384:
  4321                           
  4322                           ; BSR set to: 0
  4323                           ;mcc_generated_files/usb/usb_device_cdc.c: 874:     if(cdc_trf_state == 3)
  4324  001332  0E03               	movlw	3
  4325  001334  1843               	xorwf	_cdc_trf_state^0,w,c
  4326  001336  A4D8               	btfss	status,2,c
  4327  001338  EFA0  F009         	goto	u5891
  4328  00133C  EFA2  F009         	goto	u5890
  4329  001340                     u5891:
  4330  001340  EFA4  F009         	goto	l725
  4331  001344                     u5890:
  4332  001344                     
  4333                           ; BSR set to: 0
  4334                           ;mcc_generated_files/usb/usb_device_cdc.c: 875:         cdc_trf_state = 0;
  4335  001344  0E00               	movlw	0
  4336  001346  6E43               	movwf	_cdc_trf_state^0,c
  4337  001348                     l725:
  4338                           
  4339                           ; BSR set to: 0
  4340                           ;mcc_generated_files/usb/usb_device_cdc.c: 880:     if(cdc_trf_state == 0)
  4341  001348  5043               	movf	_cdc_trf_state^0,w,c
  4342  00134A  A4D8               	btfss	status,2,c
  4343  00134C  EFAA  F009         	goto	u5901
  4344  001350  EFAC  F009         	goto	u5900
  4345  001354                     u5901:
  4346  001354  EFAF  F009         	goto	l7390
  4347  001358                     u5900:
  4348  001358                     
  4349                           ; BSR set to: 0
  4350                           ;mcc_generated_files/usb/usb_device_cdc.c: 881:     {;mcc_generated_files/usb/usb_device
      +                          _cdc.c: 882:         {PIE3bits.USBIE = 1;};
  4351  001358  84A3               	bsf	163,2,c	;volatile
  4352                           
  4353                           ;mcc_generated_files/usb/usb_device_cdc.c: 883:         return;
  4354  00135A  EF4B  F00A         	goto	l724
  4355  00135E                     l7390:
  4356                           
  4357                           ; BSR set to: 0
  4358                           ;mcc_generated_files/usb/usb_device_cdc.c: 889:     if(cdc_trf_state == 2)
  4359  00135E  0E02               	movlw	2
  4360  001360  1843               	xorwf	_cdc_trf_state^0,w,c
  4361  001362  A4D8               	btfss	status,2,c
  4362  001364  EFB6  F009         	goto	u5911
  4363  001368  EFB8  F009         	goto	u5910
  4364  00136C                     u5911:
  4365  00136C  EFCB  F009         	goto	l7396
  4366  001370                     u5910:
  4367  001370                     
  4368                           ; BSR set to: 0
  4369                           ;mcc_generated_files/usb/usb_device_cdc.c: 890:     {;mcc_generated_files/usb/usb_device
      +                          _cdc.c: 891:         CDCDataInHandle = USBTransferOnePacket(2,1,((void*)0),0);
  4370  001370  0E01               	movlw	1
  4371  001372  6F60               	movwf	USBTransferOnePacket@dir& (0+255),b
  4372  001374  0E00               	movlw	0
  4373  001376  6F61               	movwf	USBTransferOnePacket@data& (0+255),b
  4374  001378  0E00               	movlw	0
  4375  00137A  6F62               	movwf	(USBTransferOnePacket@data+1)& (0+255),b
  4376  00137C  0E00               	movlw	0
  4377  00137E  6F63               	movwf	USBTransferOnePacket@len& (0+255),b
  4378  001380  0E02               	movlw	2
  4379  001382  ECE3  F00F         	call	_USBTransferOnePacket
  4380  001386  C060  F0F0         	movff	?_USBTransferOnePacket,_CDCDataInHandle
  4381  00138A  C061  F0F1         	movff	?_USBTransferOnePacket+1,_CDCDataInHandle+1
  4382  00138E                     
  4383                           ;mcc_generated_files/usb/usb_device_cdc.c: 893:         cdc_trf_state = 3;
  4384  00138E  0E03               	movlw	3
  4385  001390  6E43               	movwf	_cdc_trf_state^0,c
  4386                           
  4387                           ;mcc_generated_files/usb/usb_device_cdc.c: 894:     }
  4388  001392  EF4A  F00A         	goto	l7440
  4389  001396                     l7396:
  4390                           
  4391                           ; BSR set to: 0
  4392  001396  0443               	decf	_cdc_trf_state^0,w,c
  4393  001398  A4D8               	btfss	status,2,c
  4394  00139A  EFD1  F009         	goto	u5921
  4395  00139E  EFD3  F009         	goto	u5920
  4396  0013A2                     u5921:
  4397  0013A2  EF4A  F00A         	goto	l7440
  4398  0013A6                     u5920:
  4399  0013A6                     
  4400                           ; BSR set to: 0
  4401                           ;mcc_generated_files/usb/usb_device_cdc.c: 896:     {;mcc_generated_files/usb/usb_device
      +                          _cdc.c: 900:      if(cdc_tx_len > sizeof(cdc_data_tx))
  4402  0013A6  0E40               	movlw	64
  4403  0013A8  65F3               	cpfsgt	_cdc_tx_len& (0+255),b
  4404  0013AA  EFD9  F009         	goto	u5931
  4405  0013AE  EFDB  F009         	goto	u5930
  4406  0013B2                     u5931:
  4407  0013B2  EFDF  F009         	goto	l730
  4408  0013B6                     u5930:
  4409  0013B6                     
  4410                           ; BSR set to: 0
  4411                           ;mcc_generated_files/usb/usb_device_cdc.c: 901:          byte_to_send = sizeof(cdc_data_
      +                          tx);
  4412  0013B6  0E40               	movlw	64
  4413  0013B8  6F6C               	movwf	CDCTxService@byte_to_send& (0+255),b
  4414  0013BA  EFE1  F009         	goto	l7402
  4415  0013BE                     l730:
  4416                           
  4417                           ; BSR set to: 0
  4418                           ;mcc_generated_files/usb/usb_device_cdc.c: 903:          byte_to_send = cdc_tx_len;
  4419  0013BE  C0F3  F06C         	movff	_cdc_tx_len,CDCTxService@byte_to_send
  4420  0013C2                     l7402:
  4421                           
  4422                           ; BSR set to: 0
  4423                           ;mcc_generated_files/usb/usb_device_cdc.c: 908:      cdc_tx_len = cdc_tx_len - byte_to_s
      +                          end;
  4424  0013C2  516C               	movf	CDCTxService@byte_to_send& (0+255),w,b
  4425  0013C4  5DF3               	subwf	_cdc_tx_len& (0+255),w,b
  4426  0013C6  6FF3               	movwf	_cdc_tx_len& (0+255),b
  4427                           
  4428                           ;mcc_generated_files/usb/usb_device_cdc.c: 910:         pCDCDst.bRam = (uint8_t*)&cdc_da
      +                          ta_tx;
  4429  0013C8  0E00               	movlw	0
  4430  0013CA  6E30               	movwf	_pCDCDst^0,c
  4431  0013CC  0E05               	movlw	5
  4432  0013CE  6E31               	movwf	(_pCDCDst+1)^0,c
  4433  0013D0                     
  4434                           ; BSR set to: 0
  4435                           ;mcc_generated_files/usb/usb_device_cdc.c: 912:         i = byte_to_send;
  4436  0013D0  C06C  F06B         	movff	CDCTxService@byte_to_send,CDCTxService@i
  4437  0013D4                     
  4438                           ; BSR set to: 0
  4439                           ;mcc_generated_files/usb/usb_device_cdc.c: 913:         if(cdc_mem_type == 0x00)
  4440  0013D4  51F2               	movf	_cdc_mem_type& (0+255),w,b
  4441  0013D6  A4D8               	btfss	status,2,c
  4442  0013D8  EFF0  F009         	goto	u5941
  4443  0013DC  EFF2  F009         	goto	u5940
  4444  0013E0                     u5941:
  4445  0013E0  EF1C  F00A         	goto	l7428
  4446  0013E4                     u5940:
  4447  0013E4  EF03  F00A         	goto	l7418
  4448  0013E8                     l7410:
  4449                           
  4450                           ; BSR set to: 0
  4451                           ;mcc_generated_files/usb/usb_device_cdc.c: 916:             {;mcc_generated_files/usb/us
      +                          b_device_cdc.c: 917:                 *pCDCDst.bRam = *pCDCSrc.bRom;
  4452  0013E8  C033  FFD9         	movff	_pCDCSrc,fsr2l
  4453  0013EC  C034  FFDA         	movff	_pCDCSrc+1,fsr2h
  4454  0013F0  C030  FFE1         	movff	_pCDCDst,fsr1l
  4455  0013F4  C031  FFE2         	movff	_pCDCDst+1,fsr1h
  4456  0013F8  CFDF FFE7          	movff	indf2,indf1
  4457  0013FC                     
  4458                           ; BSR set to: 0
  4459                           ;mcc_generated_files/usb/usb_device_cdc.c: 918:                 pCDCDst.bRam++;
  4460  0013FC  4A30               	infsnz	_pCDCDst^0,f,c
  4461  0013FE  2A31               	incf	(_pCDCDst+1)^0,f,c
  4462  001400                     
  4463                           ; BSR set to: 0
  4464                           ;mcc_generated_files/usb/usb_device_cdc.c: 919:                 pCDCSrc.bRom++;
  4465  001400  4A33               	infsnz	_pCDCSrc^0,f,c
  4466  001402  2A34               	incf	(_pCDCSrc+1)^0,f,c
  4467  001404                     
  4468                           ; BSR set to: 0
  4469                           ;mcc_generated_files/usb/usb_device_cdc.c: 920:                 i--;
  4470  001404  076B               	decf	CDCTxService@i& (0+255),f,b
  4471  001406                     l7418:
  4472                           
  4473                           ; BSR set to: 0
  4474                           ;mcc_generated_files/usb/usb_device_cdc.c: 915:             while(i)
  4475  001406  516B               	movf	CDCTxService@i& (0+255),w,b
  4476  001408  A4D8               	btfss	status,2,c
  4477  00140A  EF09  F00A         	goto	u5951
  4478  00140E  EF0B  F00A         	goto	u5950
  4479  001412                     u5951:
  4480  001412  EFF4  F009         	goto	l7410
  4481  001416                     u5950:
  4482  001416  EF24  F00A         	goto	l7430
  4483  00141A                     l7420:
  4484                           
  4485                           ; BSR set to: 0
  4486                           ;mcc_generated_files/usb/usb_device_cdc.c: 926:             {;mcc_generated_files/usb/us
      +                          b_device_cdc.c: 927:                 *pCDCDst.bRam = *pCDCSrc.bRam;
  4487  00141A  C033  FFD9         	movff	_pCDCSrc,fsr2l
  4488  00141E  C034  FFDA         	movff	_pCDCSrc+1,fsr2h
  4489  001422  C030  FFE1         	movff	_pCDCDst,fsr1l
  4490  001426  C031  FFE2         	movff	_pCDCDst+1,fsr1h
  4491  00142A  CFDF FFE7          	movff	indf2,indf1
  4492  00142E                     
  4493                           ; BSR set to: 0
  4494                           ;mcc_generated_files/usb/usb_device_cdc.c: 928:                 pCDCDst.bRam++;
  4495  00142E  4A30               	infsnz	_pCDCDst^0,f,c
  4496  001430  2A31               	incf	(_pCDCDst+1)^0,f,c
  4497  001432                     
  4498                           ; BSR set to: 0
  4499                           ;mcc_generated_files/usb/usb_device_cdc.c: 929:                 pCDCSrc.bRam++;
  4500  001432  4A33               	infsnz	_pCDCSrc^0,f,c
  4501  001434  2A34               	incf	(_pCDCSrc+1)^0,f,c
  4502  001436                     
  4503                           ; BSR set to: 0
  4504                           ;mcc_generated_files/usb/usb_device_cdc.c: 930:                 i--;
  4505  001436  076B               	decf	CDCTxService@i& (0+255),f,b
  4506  001438                     l7428:
  4507                           
  4508                           ; BSR set to: 0
  4509                           ;mcc_generated_files/usb/usb_device_cdc.c: 925:             while(i)
  4510  001438  516B               	movf	CDCTxService@i& (0+255),w,b
  4511  00143A  A4D8               	btfss	status,2,c
  4512  00143C  EF22  F00A         	goto	u5961
  4513  001440  EF24  F00A         	goto	u5960
  4514  001444                     u5961:
  4515  001444  EF0D  F00A         	goto	l7420
  4516  001448                     u5960:
  4517  001448                     l7430:
  4518                           
  4519                           ; BSR set to: 0
  4520                           ;mcc_generated_files/usb/usb_device_cdc.c: 938:         if(cdc_tx_len == 0)
  4521  001448  51F3               	movf	_cdc_tx_len& (0+255),w,b
  4522  00144A  A4D8               	btfss	status,2,c
  4523  00144C  EF2A  F00A         	goto	u5971
  4524  001450  EF2C  F00A         	goto	u5970
  4525  001454                     u5971:
  4526  001454  EF3B  F00A         	goto	l7438
  4527  001458                     u5970:
  4528  001458                     
  4529                           ; BSR set to: 0
  4530                           ;mcc_generated_files/usb/usb_device_cdc.c: 939:         {;mcc_generated_files/usb/usb_de
      +                          vice_cdc.c: 940:             if(byte_to_send == 64)
  4531  001458  0E40               	movlw	64
  4532  00145A  196C               	xorwf	CDCTxService@byte_to_send& (0+255),w,b
  4533  00145C  A4D8               	btfss	status,2,c
  4534  00145E  EF33  F00A         	goto	u5981
  4535  001462  EF35  F00A         	goto	u5980
  4536  001466                     u5981:
  4537  001466  EF39  F00A         	goto	l7436
  4538  00146A                     u5980:
  4539  00146A                     
  4540                           ; BSR set to: 0
  4541                           ;mcc_generated_files/usb/usb_device_cdc.c: 941:                 cdc_trf_state = 2;
  4542  00146A  0E02               	movlw	2
  4543  00146C  6E43               	movwf	_cdc_trf_state^0,c
  4544  00146E  EF3B  F00A         	goto	l7438
  4545  001472                     l7436:
  4546                           
  4547                           ; BSR set to: 0
  4548                           ;mcc_generated_files/usb/usb_device_cdc.c: 943:                 cdc_trf_state = 3;
  4549  001472  0E03               	movlw	3
  4550  001474  6E43               	movwf	_cdc_trf_state^0,c
  4551  001476                     l7438:
  4552                           
  4553                           ; BSR set to: 0
  4554                           ;mcc_generated_files/usb/usb_device_cdc.c: 945:         CDCDataInHandle = USBTransferOne
      +                          Packet(2,1,(uint8_t*)&cdc_data_tx,byte_to_send);
  4555  001476  0E01               	movlw	1
  4556  001478  6F60               	movwf	USBTransferOnePacket@dir& (0+255),b
  4557  00147A  0E00               	movlw	0
  4558  00147C  6F61               	movwf	USBTransferOnePacket@data& (0+255),b
  4559  00147E  0E05               	movlw	5
  4560  001480  6F62               	movwf	(USBTransferOnePacket@data+1)& (0+255),b
  4561  001482  C06C  F063         	movff	CDCTxService@byte_to_send,USBTransferOnePacket@len
  4562  001486  0E02               	movlw	2
  4563  001488  ECE3  F00F         	call	_USBTransferOnePacket
  4564  00148C  C060  F0F0         	movff	?_USBTransferOnePacket,_CDCDataInHandle
  4565  001490  C061  F0F1         	movff	?_USBTransferOnePacket+1,_CDCDataInHandle+1
  4566  001494                     l7440:
  4567                           
  4568                           ;mcc_generated_files/usb/usb_device_cdc.c: 949:     {PIE3bits.USBIE = 1;};
  4569  001494  84A3               	bsf	163,2,c	;volatile
  4570  001496                     l724:
  4571  001496  0012               	return		;funcret
  4572  001498                     __end_of_CDCTxService:
  4573                           	callstack 0
  4574                           
  4575 ;; *************** function _USBTransferOnePacket *****************
  4576 ;; Defined at:
  4577 ;;		line 999 in file "mcc_generated_files/usb/usb_device.c"
  4578 ;; Parameters:    Size  Location     Type
  4579 ;;  ep              1    wreg     unsigned char 
  4580 ;;  dir             1    0[BANK0 ] unsigned char 
  4581 ;;  data            2    1[BANK0 ] PTR unsigned char 
  4582 ;;		 -> cdc_data_tx(64), cdc_data_rx(64), NULL(0), 
  4583 ;;  len             1    3[BANK0 ] unsigned char 
  4584 ;; Auto vars:     Size  Location     Type
  4585 ;;  ep              1    8[BANK0 ] unsigned char 
  4586 ;;  handle          2    9[BANK0 ] PTR volatile struct __BD
  4587 ;;		 -> RAM(2047), BDT(48), NULL(0), 
  4588 ;; Return value:  Size  Location     Type
  4589 ;;                  2    0[BANK0 ] PTR void 
  4590 ;; Registers used:
  4591 ;;		wreg, fsr2l, fsr2h, status,2, status,0, prodl, prodh
  4592 ;; Tracked objects:
  4593 ;;		On entry : 0/0
  4594 ;;		On exit  : 0/0
  4595 ;;		Unchanged: 0/0
  4596 ;; Data sizes:     COMRAM   BANK0   BANK1   BANK2   BANK3   BANK4   BANK5   BANK6   BANK7
  4597 ;;      Params:         0       4       0       0       0       0       0       0       0
  4598 ;;      Locals:         0       3       0       0       0       0       0       0       0
  4599 ;;      Temps:          0       4       0       0       0       0       0       0       0
  4600 ;;      Totals:         0      11       0       0       0       0       0       0       0
  4601 ;;Total ram usage:       11 bytes
  4602 ;; Hardware stack levels used: 1
  4603 ;; Hardware stack levels required when called: 10
  4604 ;; This function calls:
  4605 ;;		Nothing
  4606 ;; This function is called by:
  4607 ;;		_CDCTxService
  4608 ;;		_USBCDCEventHandler
  4609 ;;		_getsUSBUSART
  4610 ;; This function uses a non-reentrant model
  4611 ;;
  4612                           
  4613                           	psect	text22
  4614  001FC6                     __ptext22:
  4615                           	callstack 0
  4616  001FC6                     _USBTransferOnePacket:
  4617                           	callstack 19
  4618                           
  4619                           ;incstack = 0
  4620                           ;USBTransferOnePacket@ep stored from wreg
  4621  001FC6  0100               	movlb	0	; () banked
  4622  001FC8  6F68               	movwf	USBTransferOnePacket@ep& (0+255),b
  4623  001FCA                     
  4624                           ;mcc_generated_files/usb/usb_device.c: 999: void* USBTransferOnePacket(uint8_t ep,uint8_
      +                          t dir,uint8_t* data,uint8_t len);mcc_generated_files/usb/usb_device.c: 1000: {;mcc_gener
      +                          ated_files/usb/usb_device.c: 1001:     volatile BDT_ENTRY* handle;;mcc_generated_files/u
      +                          sb/usb_device.c: 1004:     if(dir != 0)
  4625  001FCA  0100               	movlb	0	; () banked
  4626  001FCC  5160               	movf	USBTransferOnePacket@dir& (0+255),w,b
  4627  001FCE  B4D8               	btfsc	status,2,c
  4628  001FD0  EFEC  F00F         	goto	u5771
  4629  001FD4  EFEE  F00F         	goto	u5770
  4630  001FD8                     u5771:
  4631  001FD8  EFFC  F00F         	goto	l7288
  4632  001FDC                     u5770:
  4633  001FDC                     
  4634                           ; BSR set to: 0
  4635                           ;mcc_generated_files/usb/usb_device.c: 1005:     {;mcc_generated_files/usb/usb_device.c:
      +                           1007:         handle = pBDTEntryIn[ep];
  4636  001FDC  5168               	movf	USBTransferOnePacket@ep& (0+255),w,b
  4637  001FDE  0D02               	mullw	2
  4638  001FE0  0EDA               	movlw	low _pBDTEntryIn
  4639  001FE2  24F3               	addwf	243,w,c
  4640  001FE4  6ED9               	movwf	fsr2l,c
  4641  001FE6  0E00               	movlw	high _pBDTEntryIn
  4642  001FE8  20F4               	addwfc	prodh,w,c
  4643  001FEA  6EDA               	movwf	fsr2h,c
  4644  001FEC  CFDE F069          	movff	postinc2,USBTransferOnePacket@handle
  4645  001FF0  CFDD F06A          	movff	postdec2,USBTransferOnePacket@handle+1
  4646                           
  4647                           ;mcc_generated_files/usb/usb_device.c: 1008:     }
  4648  001FF4  EF08  F010         	goto	l7290
  4649  001FF8                     l7288:
  4650                           
  4651                           ; BSR set to: 0
  4652                           ;mcc_generated_files/usb/usb_device.c: 1010:     {;mcc_generated_files/usb/usb_device.c:
      +                           1012:         handle = pBDTEntryOut[ep];
  4653  001FF8  5168               	movf	USBTransferOnePacket@ep& (0+255),w,b
  4654  001FFA  0D02               	mullw	2
  4655  001FFC  0EE0               	movlw	low _pBDTEntryOut
  4656  001FFE  24F3               	addwf	243,w,c
  4657  002000  6ED9               	movwf	fsr2l,c
  4658  002002  0E00               	movlw	high _pBDTEntryOut
  4659  002004  20F4               	addwfc	prodh,w,c
  4660  002006  6EDA               	movwf	fsr2h,c
  4661  002008  CFDE F069          	movff	postinc2,USBTransferOnePacket@handle
  4662  00200C  CFDD F06A          	movff	postdec2,USBTransferOnePacket@handle+1
  4663  002010                     l7290:
  4664                           
  4665                           ; BSR set to: 0
  4666                           ;mcc_generated_files/usb/usb_device.c: 1017:     if(handle == 0)
  4667  002010  5169               	movf	USBTransferOnePacket@handle& (0+255),w,b
  4668  002012  116A               	iorwf	(USBTransferOnePacket@handle+1)& (0+255),w,b
  4669  002014  A4D8               	btfss	status,2,c
  4670  002016  EF0F  F010         	goto	u5781
  4671  00201A  EF11  F010         	goto	u5780
  4672  00201E                     u5781:
  4673  00201E  EF17  F010         	goto	l7296
  4674  002022                     u5780:
  4675  002022                     
  4676                           ; BSR set to: 0
  4677                           ;mcc_generated_files/usb/usb_device.c: 1018:     {;mcc_generated_files/usb/usb_device.c:
      +                           1019:         return 0;
  4678  002022  0E00               	movlw	0
  4679  002024  6F60               	movwf	?_USBTransferOnePacket& (0+255),b
  4680  002026  0E00               	movlw	0
  4681  002028  6F61               	movwf	(?_USBTransferOnePacket+1)& (0+255),b
  4682  00202A  EF83  F010         	goto	l388
  4683  00202E                     l7296:
  4684                           
  4685                           ; BSR set to: 0
  4686                           ;mcc_generated_files/usb/usb_device.c: 1033:     handle->ADR = ((uint16_t)(data));
  4687  00202E  EE20 F002          	lfsr	2,2
  4688  002032  5169               	movf	USBTransferOnePacket@handle& (0+255),w,b
  4689  002034  26D9               	addwf	fsr2l,f,c
  4690  002036  516A               	movf	(USBTransferOnePacket@handle+1)& (0+255),w,b
  4691  002038  22DA               	addwfc	fsr2h,f,c
  4692  00203A  C061  FFDE         	movff	USBTransferOnePacket@data,postinc2
  4693  00203E  C062  FFDD         	movff	USBTransferOnePacket@data+1,postdec2
  4694                           
  4695                           ;mcc_generated_files/usb/usb_device.c: 1034:     handle->CNT = len;
  4696  002042  EE20 F001          	lfsr	2,1
  4697  002046  5169               	movf	USBTransferOnePacket@handle& (0+255),w,b
  4698  002048  26D9               	addwf	fsr2l,f,c
  4699  00204A  516A               	movf	(USBTransferOnePacket@handle+1)& (0+255),w,b
  4700  00204C  22DA               	addwfc	fsr2h,f,c
  4701  00204E  C063  FFDF         	movff	USBTransferOnePacket@len,indf2
  4702  002052                     
  4703                           ; BSR set to: 0
  4704                           ;mcc_generated_files/usb/usb_device.c: 1035:     handle->STAT.Val &= 0x40;
  4705  002052  C069  FFD9         	movff	USBTransferOnePacket@handle,fsr2l
  4706  002056  C06A  FFDA         	movff	USBTransferOnePacket@handle+1,fsr2h
  4707  00205A  0E40               	movlw	64
  4708  00205C  16DF               	andwf	indf2,f,c
  4709  00205E                     
  4710                           ; BSR set to: 0
  4711                           ;mcc_generated_files/usb/usb_device.c: 1036:     handle->STAT.Val |= (0x08 & 0x08);
  4712  00205E  C069  FFD9         	movff	USBTransferOnePacket@handle,fsr2l
  4713  002062  C06A  FFDA         	movff	USBTransferOnePacket@handle+1,fsr2h
  4714  002066  0E00               	movlw	0
  4715  002068  86DB               	bsf	plusw2,3,c
  4716  00206A                     
  4717                           ; BSR set to: 0
  4718                           ;mcc_generated_files/usb/usb_device.c: 1037:     handle->STAT.Val |= 0x80;
  4719  00206A  C069  FFD9         	movff	USBTransferOnePacket@handle,fsr2l
  4720  00206E  C06A  FFDA         	movff	USBTransferOnePacket@handle+1,fsr2h
  4721  002072  0E00               	movlw	0
  4722  002074  8EDB               	bsf	plusw2,7,c
  4723  002076                     
  4724                           ; BSR set to: 0
  4725                           ;mcc_generated_files/usb/usb_device.c: 1040:     if(dir != 0)
  4726  002076  5160               	movf	USBTransferOnePacket@dir& (0+255),w,b
  4727  002078  B4D8               	btfsc	status,2,c
  4728  00207A  EF41  F010         	goto	u5791
  4729  00207E  EF43  F010         	goto	u5790
  4730  002082                     u5791:
  4731  002082  EF62  F010         	goto	l7308
  4732  002086                     u5790:
  4733  002086                     
  4734                           ; BSR set to: 0
  4735                           ;mcc_generated_files/usb/usb_device.c: 1041:     {;mcc_generated_files/usb/usb_device.c:
      +                           1043:         pBDTEntryIn[ep] = (BDT_ENTRY*)(((uint16_t)pBDTEntryIn[ep]) ^ 0x0004);
  4736  002086  5168               	movf	USBTransferOnePacket@ep& (0+255),w,b
  4737  002088  0D02               	mullw	2
  4738  00208A  0EDA               	movlw	low _pBDTEntryIn
  4739  00208C  24F3               	addwf	243,w,c
  4740  00208E  6ED9               	movwf	fsr2l,c
  4741  002090  0E00               	movlw	high _pBDTEntryIn
  4742  002092  20F4               	addwfc	prodh,w,c
  4743  002094  6EDA               	movwf	fsr2h,c
  4744  002096  CFDE F064          	movff	postinc2,??_USBTransferOnePacket
  4745  00209A  CFDD F065          	movff	postdec2,??_USBTransferOnePacket+1
  4746  00209E  0E04               	movlw	4
  4747  0020A0  1964               	xorwf	??_USBTransferOnePacket& (0+255),w,b
  4748  0020A2  6F66               	movwf	(??_USBTransferOnePacket+2)& (0+255),b
  4749  0020A4  5165               	movf	(??_USBTransferOnePacket+1)& (0+255),w,b
  4750  0020A6  6F67               	movwf	(??_USBTransferOnePacket+3)& (0+255),b
  4751  0020A8  5168               	movf	USBTransferOnePacket@ep& (0+255),w,b
  4752  0020AA  0D02               	mullw	2
  4753  0020AC  0EDA               	movlw	low _pBDTEntryIn
  4754  0020AE  24F3               	addwf	243,w,c
  4755  0020B0  6ED9               	movwf	fsr2l,c
  4756  0020B2  0E00               	movlw	high _pBDTEntryIn
  4757  0020B4  20F4               	addwfc	prodh,w,c
  4758  0020B6  6EDA               	movwf	fsr2h,c
  4759  0020B8  C066  FFDE         	movff	??_USBTransferOnePacket+2,postinc2
  4760  0020BC  C067  FFDD         	movff	??_USBTransferOnePacket+3,postdec2
  4761                           
  4762                           ;mcc_generated_files/usb/usb_device.c: 1044:     }
  4763  0020C0  EF7F  F010         	goto	l7310
  4764  0020C4                     l7308:
  4765                           
  4766                           ; BSR set to: 0
  4767                           ;mcc_generated_files/usb/usb_device.c: 1046:     {;mcc_generated_files/usb/usb_device.c:
      +                           1048:         pBDTEntryOut[ep] = (BDT_ENTRY*)(((uint16_t)pBDTEntryOut[ep]) ^ 0x0004);
  4768  0020C4  5168               	movf	USBTransferOnePacket@ep& (0+255),w,b
  4769  0020C6  0D02               	mullw	2
  4770  0020C8  0EE0               	movlw	low _pBDTEntryOut
  4771  0020CA  24F3               	addwf	243,w,c
  4772  0020CC  6ED9               	movwf	fsr2l,c
  4773  0020CE  0E00               	movlw	high _pBDTEntryOut
  4774  0020D0  20F4               	addwfc	prodh,w,c
  4775  0020D2  6EDA               	movwf	fsr2h,c
  4776  0020D4  CFDE F064          	movff	postinc2,??_USBTransferOnePacket
  4777  0020D8  CFDD F065          	movff	postdec2,??_USBTransferOnePacket+1
  4778  0020DC  0E04               	movlw	4
  4779  0020DE  1964               	xorwf	??_USBTransferOnePacket& (0+255),w,b
  4780  0020E0  6F66               	movwf	(??_USBTransferOnePacket+2)& (0+255),b
  4781  0020E2  5165               	movf	(??_USBTransferOnePacket+1)& (0+255),w,b
  4782  0020E4  6F67               	movwf	(??_USBTransferOnePacket+3)& (0+255),b
  4783  0020E6  5168               	movf	USBTransferOnePacket@ep& (0+255),w,b
  4784  0020E8  0D02               	mullw	2
  4785  0020EA  0EE0               	movlw	low _pBDTEntryOut
  4786  0020EC  24F3               	addwf	243,w,c
  4787  0020EE  6ED9               	movwf	fsr2l,c
  4788  0020F0  0E00               	movlw	high _pBDTEntryOut
  4789  0020F2  20F4               	addwfc	prodh,w,c
  4790  0020F4  6EDA               	movwf	fsr2h,c
  4791  0020F6  C066  FFDE         	movff	??_USBTransferOnePacket+2,postinc2
  4792  0020FA  C067  FFDD         	movff	??_USBTransferOnePacket+3,postdec2
  4793  0020FE                     l7310:
  4794                           
  4795                           ; BSR set to: 0
  4796                           ;mcc_generated_files/usb/usb_device.c: 1050:     return (void*)handle;
  4797  0020FE  C069  F060         	movff	USBTransferOnePacket@handle,?_USBTransferOnePacket
  4798  002102  C06A  F061         	movff	USBTransferOnePacket@handle+1,?_USBTransferOnePacket+1
  4799  002106                     l388:
  4800                           
  4801                           ; BSR set to: 0
  4802  002106  0012               	return		;funcret
  4803  002108                     __end_of_USBTransferOnePacket:
  4804                           	callstack 0
  4805                           
  4806 ;; *************** function _INTERRUPT_InterruptManager *****************
  4807 ;; Defined at:
  4808 ;;		line 58 in file "mcc_generated_files/interrupt_manager.c"
  4809 ;; Parameters:    Size  Location     Type
  4810 ;;		None
  4811 ;; Auto vars:     Size  Location     Type
  4812 ;;		None
  4813 ;; Return value:  Size  Location     Type
  4814 ;;                  1    wreg      void 
  4815 ;; Registers used:
  4816 ;;		wreg, fsr0l, fsr0h, fsr1l, fsr1h, fsr2l, fsr2h, status,2, status,0, tblptrl, tblptrh, tblptru, prodl, prodh, cstack
  4817 ;; Tracked objects:
  4818 ;;		On entry : 0/0
  4819 ;;		On exit  : 0/0
  4820 ;;		Unchanged: 0/0
  4821 ;; Data sizes:     COMRAM   BANK0   BANK1   BANK2   BANK3   BANK4   BANK5   BANK6   BANK7
  4822 ;;      Params:         0       0       0       0       0       0       0       0       0
  4823 ;;      Locals:         0       0       0       0       0       0       0       0       0
  4824 ;;      Temps:         12       0       0       0       0       0       0       0       0
  4825 ;;      Totals:        12       0       0       0       0       0       0       0       0
  4826 ;;Total ram usage:       12 bytes
  4827 ;; Hardware stack levels used: 1
  4828 ;; Hardware stack levels required when called: 9
  4829 ;; This function calls:
  4830 ;;		_USBDeviceTasks
  4831 ;; This function is called by:
  4832 ;;		Interrupt level 2
  4833 ;; This function uses a non-reentrant model
  4834 ;;
  4835                           
  4836                           	psect	intcode
  4837  000008                     __pintcode:
  4838                           	callstack 0
  4839  000008                     _INTERRUPT_InterruptManager:
  4840                           	callstack 13
  4841                           
  4842                           ; BSR set to: 0
  4843                           ;incstack = 0
  4844  000008  8255               	bsf	int$flags,1,c	;set compiler interrupt flag (level 2)
  4845  00000A  CFE9 F020          	movff	fsr0l,??_INTERRUPT_InterruptManager
  4846  00000E  CFEA F021          	movff	fsr0h,??_INTERRUPT_InterruptManager+1
  4847  000012  CFE1 F022          	movff	fsr1l,??_INTERRUPT_InterruptManager+2
  4848  000016  CFE2 F023          	movff	fsr1h,??_INTERRUPT_InterruptManager+3
  4849  00001A  CFD9 F024          	movff	fsr2l,??_INTERRUPT_InterruptManager+4
  4850  00001E  CFDA F025          	movff	fsr2h,??_INTERRUPT_InterruptManager+5
  4851  000022  CFF3 F026          	movff	prodl,??_INTERRUPT_InterruptManager+6
  4852  000026  CFF4 F027          	movff	prodh,??_INTERRUPT_InterruptManager+7
  4853  00002A  CFF6 F028          	movff	tblptrl,??_INTERRUPT_InterruptManager+8
  4854  00002E  CFF7 F029          	movff	tblptrh,??_INTERRUPT_InterruptManager+9
  4855  000032  CFF8 F02A          	movff	tblptru,??_INTERRUPT_InterruptManager+10
  4856  000036  CFF5 F02B          	movff	tablat,??_INTERRUPT_InterruptManager+11
  4857  00003A                     
  4858                           ;mcc_generated_files/interrupt_manager.c: 61:     if(INTCONbits.PEIE == 1)
  4859  00003A  ACF2               	btfss	242,6,c	;volatile
  4860  00003C  EF22  F000         	goto	i2u502_41
  4861  000040  EF24  F000         	goto	i2u502_40
  4862  000044                     i2u502_41:
  4863  000044  EF34  F000         	goto	i2l835
  4864  000048                     i2u502_40:
  4865  000048                     
  4866                           ;mcc_generated_files/interrupt_manager.c: 62:     {;mcc_generated_files/interrupt_manage
      +                          r.c: 63:         if(PIE3bits.USBIE == 1 && PIR3bits.USBIF == 1)
  4867  000048  A4A3               	btfss	163,2,c	;volatile
  4868  00004A  EF29  F000         	goto	i2u503_41
  4869  00004E  EF2B  F000         	goto	i2u503_40
  4870  000052                     i2u503_41:
  4871  000052  EF34  F000         	goto	i2l835
  4872  000056                     i2u503_40:
  4873  000056  A4A4               	btfss	164,2,c	;volatile
  4874  000058  EF30  F000         	goto	i2u504_41
  4875  00005C  EF32  F000         	goto	i2u504_40
  4876  000060                     i2u504_41:
  4877  000060  EF34  F000         	goto	i2l835
  4878  000064                     i2u504_40:
  4879  000064                     
  4880                           ;mcc_generated_files/interrupt_manager.c: 64:         {;mcc_generated_files/interrupt_ma
      +                          nager.c: 65:             USBDeviceTasks();
  4881  000064  EC90  F007         	call	_USBDeviceTasks	;wreg free
  4882  000068                     i2l835:
  4883  000068  C02B  FFF5         	movff	??_INTERRUPT_InterruptManager+11,tablat
  4884  00006C  C02A  FFF8         	movff	??_INTERRUPT_InterruptManager+10,tblptru
  4885  000070  C029  FFF7         	movff	??_INTERRUPT_InterruptManager+9,tblptrh
  4886  000074  C028  FFF6         	movff	??_INTERRUPT_InterruptManager+8,tblptrl
  4887  000078  C027  FFF4         	movff	??_INTERRUPT_InterruptManager+7,prodh
  4888  00007C  C026  FFF3         	movff	??_INTERRUPT_InterruptManager+6,prodl
  4889  000080  C025  FFDA         	movff	??_INTERRUPT_InterruptManager+5,fsr2h
  4890  000084  C024  FFD9         	movff	??_INTERRUPT_InterruptManager+4,fsr2l
  4891  000088  C023  FFE2         	movff	??_INTERRUPT_InterruptManager+3,fsr1h
  4892  00008C  C022  FFE1         	movff	??_INTERRUPT_InterruptManager+2,fsr1l
  4893  000090  C021  FFEA         	movff	??_INTERRUPT_InterruptManager+1,fsr0h
  4894  000094  C020  FFE9         	movff	??_INTERRUPT_InterruptManager,fsr0l
  4895  000098  9255               	bcf	int$flags,1,c	;clear compiler interrupt flag (level 2)
  4896  00009A  0011               	retfie		f
  4897  00009C                     __end_of_INTERRUPT_InterruptManager:
  4898                           	callstack 0
  4899                           
  4900 ;; *************** function _USBDeviceTasks *****************
  4901 ;; Defined at:
  4902 ;;		line 481 in file "mcc_generated_files/usb/usb_device.c"
  4903 ;; Parameters:    Size  Location     Type
  4904 ;;		None
  4905 ;; Auto vars:     Size  Location     Type
  4906 ;;  i               1   30[COMRAM] unsigned char 
  4907 ;; Return value:  Size  Location     Type
  4908 ;;                  1    wreg      void 
  4909 ;; Registers used:
  4910 ;;		wreg, fsr0l, fsr0h, fsr1l, fsr1h, fsr2l, fsr2h, status,2, status,0, tblptrl, tblptrh, tblptru, prodl, prodh, cstack
  4911 ;; Tracked objects:
  4912 ;;		On entry : 0/0
  4913 ;;		On exit  : 0/0
  4914 ;;		Unchanged: 0/0
  4915 ;; Data sizes:     COMRAM   BANK0   BANK1   BANK2   BANK3   BANK4   BANK5   BANK6   BANK7
  4916 ;;      Params:         0       0       0       0       0       0       0       0       0
  4917 ;;      Locals:         1       0       0       0       0       0       0       0       0
  4918 ;;      Temps:          0       0       0       0       0       0       0       0       0
  4919 ;;      Totals:         1       0       0       0       0       0       0       0       0
  4920 ;;Total ram usage:        1 bytes
  4921 ;; Hardware stack levels used: 1
  4922 ;; Hardware stack levels required when called: 8
  4923 ;; This function calls:
  4924 ;;		_USBCtrlEPAllowStatusStage
  4925 ;;		_USBCtrlEPService
  4926 ;;		_USBIncrement1msInternalTimers
  4927 ;;		_USBStallHandler
  4928 ;;		_USBSuspend
  4929 ;;		_USBWakeFromSuspend
  4930 ;;		_USER_USB_CALLBACK_EVENT_HANDLER
  4931 ;;		i2_USBDeviceInit
  4932 ;; This function is called by:
  4933 ;;		_INTERRUPT_InterruptManager
  4934 ;; This function uses a non-reentrant model
  4935 ;;
  4936                           
  4937                           	psect	text24
  4938  000F20                     __ptext24:
  4939                           	callstack 0
  4940  000F20                     _USBDeviceTasks:
  4941                           	callstack 13
  4942  000F20                     
  4943                           ;mcc_generated_files/usb/usb_device.c: 483:     uint8_t i;;mcc_generated_files/usb/usb_d
      +                          evice.c: 594:     if(USBDeviceState == ATTACHED_STATE)
  4944  000F20  0450               	decf	_USBDeviceState^0,w,c	;volatile
  4945  000F22  A4D8               	btfss	status,2,c
  4946  000F24  EF96  F007         	goto	i2u418_41
  4947  000F28  EF98  F007         	goto	i2u418_40
  4948  000F2C                     i2u418_41:
  4949  000F2C  EFA5  F007         	goto	i2l5842
  4950  000F30                     i2u418_40:
  4951  000F30                     
  4952                           ;mcc_generated_files/usb/usb_device.c: 595:     {;mcc_generated_files/usb/usb_device.c: 
      +                          605:         if(!UCONbits.SE0)
  4953  000F30  BA60               	btfsc	96,5,c	;volatile
  4954  000F32  EF9D  F007         	goto	i2u419_41
  4955  000F36  EF9F  F007         	goto	i2u419_40
  4956  000F3A                     i2u419_41:
  4957  000F3A  EFA5  F007         	goto	i2l5842
  4958  000F3E                     i2u419_40:
  4959  000F3E                     
  4960                           ;mcc_generated_files/usb/usb_device.c: 606:         {;mcc_generated_files/usb/usb_device
      +                          .c: 612:                 {UIR = 0;};
  4961  000F3E  0E00               	movlw	0
  4962  000F40  6E65               	movwf	101,c	;volatile
  4963  000F42                     
  4964                           ;mcc_generated_files/usb/usb_device.c: 618:             UIEbits.URSTIE = 1;
  4965  000F42  8064               	bsf	100,0,c	;volatile
  4966  000F44                     
  4967                           ;mcc_generated_files/usb/usb_device.c: 619:             UIEbits.IDLEIE = 1;
  4968  000F44  8864               	bsf	100,4,c	;volatile
  4969                           
  4970                           ;mcc_generated_files/usb/usb_device.c: 620:             USBDeviceState = POWERED_STATE;
  4971  000F46  0E02               	movlw	2
  4972  000F48  6E50               	movwf	_USBDeviceState^0,c	;volatile
  4973  000F4A                     i2l5842:
  4974                           
  4975                           ;mcc_generated_files/usb/usb_device.c: 638:     if(UIRbits.ACTVIF && UIEbits.ACTVIE)
  4976  000F4A  A465               	btfss	101,2,c	;volatile
  4977  000F4C  EFAA  F007         	goto	i2u420_41
  4978  000F50  EFAC  F007         	goto	i2u420_40
  4979  000F54                     i2u420_41:
  4980  000F54  EFB6  F007         	goto	i2l5850
  4981  000F58                     i2u420_40:
  4982  000F58  A464               	btfss	100,2,c	;volatile
  4983  000F5A  EFB1  F007         	goto	i2u421_41
  4984  000F5E  EFB3  F007         	goto	i2u421_40
  4985  000F62                     i2u421_41:
  4986  000F62  EFB6  F007         	goto	i2l5850
  4987  000F66                     i2u421_40:
  4988  000F66                     
  4989                           ;mcc_generated_files/usb/usb_device.c: 639:     {;mcc_generated_files/usb/usb_device.c: 
      +                          640:         (UIR &= 0xFB);
  4990  000F66  9465               	bcf	101,2,c	;volatile
  4991  000F68                     
  4992                           ;mcc_generated_files/usb/usb_device.c: 644:             USBWakeFromSuspend();
  4993  000F68  EC08  F01A         	call	_USBWakeFromSuspend	;wreg free
  4994  000F6C                     i2l5850:
  4995                           
  4996                           ;mcc_generated_files/usb/usb_device.c: 651:     if(UCONbits.SUSPND==1)
  4997  000F6C  A260               	btfss	96,1,c	;volatile
  4998  000F6E  EFBB  F007         	goto	i2u422_41
  4999  000F72  EFBD  F007         	goto	i2u422_40
  5000  000F76                     i2u422_41:
  5001  000F76  EFC0  F007         	goto	i2l358
  5002  000F7A                     i2u422_40:
  5003  000F7A                     
  5004                           ;mcc_generated_files/usb/usb_device.c: 652:     {;mcc_generated_files/usb/usb_device.c: 
      +                          653:         PIR3bits.USBIF = 0;;
  5005  000F7A  94A4               	bcf	164,2,c	;volatile
  5006                           
  5007                           ;mcc_generated_files/usb/usb_device.c: 654:         return;
  5008  000F7C  EFA3  F008         	goto	i2l359
  5009  000F80                     i2l358:
  5010                           
  5011                           ;mcc_generated_files/usb/usb_device.c: 667:     if(UIRbits.URSTIF && UIEbits.URSTIE)
  5012  000F80  A065               	btfss	101,0,c	;volatile
  5013  000F82  EFC5  F007         	goto	i2u423_41
  5014  000F86  EFC7  F007         	goto	i2u423_40
  5015  000F8A                     i2u423_41:
  5016  000F8A  EFD4  F007         	goto	i2l5864
  5017  000F8E                     i2u423_40:
  5018  000F8E  A064               	btfss	100,0,c	;volatile
  5019  000F90  EFCC  F007         	goto	i2u424_41
  5020  000F94  EFCE  F007         	goto	i2u424_40
  5021  000F98                     i2u424_41:
  5022  000F98  EFD4  F007         	goto	i2l5864
  5023  000F9C                     i2u424_40:
  5024  000F9C                     
  5025                           ;mcc_generated_files/usb/usb_device.c: 668:     {;mcc_generated_files/usb/usb_device.c: 
      +                          669:         USBDeviceInit();
  5026  000F9C  EC9B  F00E         	call	i2_USBDeviceInit	;wreg free
  5027  000FA0                     
  5028                           ;mcc_generated_files/usb/usb_device.c: 673:         {PIE3bits.USBIE = 1;};
  5029  000FA0  84A3               	bsf	163,2,c	;volatile
  5030  000FA2                     
  5031                           ;mcc_generated_files/usb/usb_device.c: 675:         USBDeviceState = DEFAULT_STATE;
  5032  000FA2  0E04               	movlw	4
  5033  000FA4  6E50               	movwf	_USBDeviceState^0,c	;volatile
  5034  000FA6                     
  5035                           ;mcc_generated_files/usb/usb_device.c: 685:         (UIR &= 0xFE);
  5036  000FA6  9065               	bcf	101,0,c	;volatile
  5037  000FA8                     i2l5864:
  5038                           
  5039                           ;mcc_generated_files/usb/usb_device.c: 691:     if(UIRbits.IDLEIF && UIEbits.IDLEIE)
  5040  000FA8  A865               	btfss	101,4,c	;volatile
  5041  000FAA  EFD9  F007         	goto	i2u425_41
  5042  000FAE  EFDB  F007         	goto	i2u425_40
  5043  000FB2                     i2u425_41:
  5044  000FB2  EFE4  F007         	goto	i2l5870
  5045  000FB6                     i2u425_40:
  5046  000FB6  A864               	btfss	100,4,c	;volatile
  5047  000FB8  EFE0  F007         	goto	i2u426_41
  5048  000FBC  EFE2  F007         	goto	i2u426_40
  5049  000FC0                     i2u426_41:
  5050  000FC0  EFE4  F007         	goto	i2l5870
  5051  000FC4                     i2u426_40:
  5052  000FC4                     
  5053                           ;mcc_generated_files/usb/usb_device.c: 692:     {;mcc_generated_files/usb/usb_device.c: 
      +                          698:             USBSuspend();
  5054  000FC4  EC98  F01A         	call	_USBSuspend	;wreg free
  5055  000FC8                     i2l5870:
  5056                           
  5057                           ;mcc_generated_files/usb/usb_device.c: 712:     if(UIRbits.SOFIF)
  5058  000FC8  AC65               	btfss	101,6,c	;volatile
  5059  000FCA  EFE9  F007         	goto	i2u427_41
  5060  000FCE  EFEB  F007         	goto	i2u427_40
  5061  000FD2                     i2u427_41:
  5062  000FD2  EF16  F008         	goto	i2l5888
  5063  000FD6                     i2u427_40:
  5064  000FD6                     
  5065                           ;mcc_generated_files/usb/usb_device.c: 713:     {;mcc_generated_files/usb/usb_device.c: 
      +                          715:         if(UIEbits.SOFIE)
  5066  000FD6  AC64               	btfss	100,6,c	;volatile
  5067  000FD8  EFF0  F007         	goto	i2u428_41
  5068  000FDC  EFF2  F007         	goto	i2u428_40
  5069  000FE0                     i2u428_41:
  5070  000FE0  EF00  F008         	goto	i2l5876
  5071  000FE4                     i2u428_40:
  5072  000FE4                     
  5073                           ;mcc_generated_files/usb/usb_device.c: 716:         {;mcc_generated_files/usb/usb_device
      +                          .c: 717:             USER_USB_CALLBACK_EVENT_HANDLER((USB_EVENT)EVENT_SOF,0,1);
  5074  000FE4  0E00               	movlw	0
  5075  000FE6  6E0E               	movwf	(USER_USB_CALLBACK_EVENT_HANDLER@event+1)^0,c
  5076  000FE8  0E73               	movlw	115
  5077  000FEA  6E0D               	movwf	USER_USB_CALLBACK_EVENT_HANDLER@event^0,c
  5078  000FEC  0E00               	movlw	0
  5079  000FEE  6E0F               	movwf	USER_USB_CALLBACK_EVENT_HANDLER@pdata^0,c
  5080  000FF0  0E00               	movlw	0
  5081  000FF2  6E10               	movwf	(USER_USB_CALLBACK_EVENT_HANDLER@pdata+1)^0,c
  5082  000FF4  0E00               	movlw	0
  5083  000FF6  6E12               	movwf	(USER_USB_CALLBACK_EVENT_HANDLER@size+1)^0,c
  5084  000FF8  0E01               	movlw	1
  5085  000FFA  6E11               	movwf	USER_USB_CALLBACK_EVENT_HANDLER@size^0,c
  5086  000FFC  ECE2  F017         	call	_USER_USB_CALLBACK_EVENT_HANDLER	;wreg free
  5087  001000                     i2l5876:
  5088                           
  5089                           ;mcc_generated_files/usb/usb_device.c: 719:         (UIR &= 0xBF);
  5090  001000  9C65               	bcf	101,6,c	;volatile
  5091  001002                     
  5092                           ;mcc_generated_files/usb/usb_device.c: 722:             USBIncrement1msInternalTimers();
  5093  001002  EC65  F01A         	call	_USBIncrement1msInternalTimers	;wreg free
  5094  001006                     
  5095                           ;mcc_generated_files/usb/usb_device.c: 739:             if(USBStatusStageTimeoutCounter 
      +                          != 0u)
  5096  001006  504A               	movf	_USBStatusStageTimeoutCounter^0,w,c	;volatile
  5097  001008  B4D8               	btfsc	status,2,c
  5098  00100A  EF09  F008         	goto	i2u429_41
  5099  00100E  EF0B  F008         	goto	i2u429_40
  5100  001012                     i2u429_41:
  5101  001012  EF0C  F008         	goto	i2l5884
  5102  001016                     i2u429_40:
  5103  001016                     
  5104                           ;mcc_generated_files/usb/usb_device.c: 740:             {;mcc_generated_files/usb/usb_de
      +                          vice.c: 741:                 USBStatusStageTimeoutCounter--;
  5105  001016  064A               	decf	_USBStatusStageTimeoutCounter^0,f,c	;volatile
  5106  001018                     i2l5884:
  5107                           
  5108                           ;mcc_generated_files/usb/usb_device.c: 748:             if(USBStatusStageTimeoutCounter 
      +                          == 0)
  5109  001018  504A               	movf	_USBStatusStageTimeoutCounter^0,w,c	;volatile
  5110  00101A  A4D8               	btfss	status,2,c
  5111  00101C  EF12  F008         	goto	i2u430_41
  5112  001020  EF14  F008         	goto	i2u430_40
  5113  001024                     i2u430_41:
  5114  001024  EF16  F008         	goto	i2l5888
  5115  001028                     i2u430_40:
  5116  001028                     
  5117                           ;mcc_generated_files/usb/usb_device.c: 749:             {;mcc_generated_files/usb/usb_de
      +                          vice.c: 750:                 USBCtrlEPAllowStatusStage();
  5118  001028  EC71  F014         	call	_USBCtrlEPAllowStatusStage	;wreg free
  5119  00102C                     i2l5888:
  5120                           
  5121                           ;mcc_generated_files/usb/usb_device.c: 755:     if(UIRbits.STALLIF && UIEbits.STALLIE)
  5122  00102C  AA65               	btfss	101,5,c	;volatile
  5123  00102E  EF1B  F008         	goto	i2u431_41
  5124  001032  EF1D  F008         	goto	i2u431_40
  5125  001036                     i2u431_41:
  5126  001036  EF26  F008         	goto	i2l5894
  5127  00103A                     i2u431_40:
  5128  00103A  AA64               	btfss	100,5,c	;volatile
  5129  00103C  EF22  F008         	goto	i2u432_41
  5130  001040  EF24  F008         	goto	i2u432_40
  5131  001044                     i2u432_41:
  5132  001044  EF26  F008         	goto	i2l5894
  5133  001048                     i2u432_40:
  5134  001048                     
  5135                           ;mcc_generated_files/usb/usb_device.c: 756:     {;mcc_generated_files/usb/usb_device.c: 
      +                          757:         USBStallHandler();
  5136  001048  ECFB  F018         	call	_USBStallHandler	;wreg free
  5137  00104C                     i2l5894:
  5138                           
  5139                           ;mcc_generated_files/usb/usb_device.c: 760:     if(UIRbits.UERRIF && UIEbits.UERRIE)
  5140  00104C  A265               	btfss	101,1,c	;volatile
  5141  00104E  EF2B  F008         	goto	i2u433_41
  5142  001052  EF2D  F008         	goto	i2u433_40
  5143  001056                     i2u433_41:
  5144  001056  EF43  F008         	goto	i2l5902
  5145  00105A                     i2u433_40:
  5146  00105A  A264               	btfss	100,1,c	;volatile
  5147  00105C  EF32  F008         	goto	i2u434_41
  5148  001060  EF34  F008         	goto	i2u434_40
  5149  001064                     i2u434_41:
  5150  001064  EF43  F008         	goto	i2l5902
  5151  001068                     i2u434_40:
  5152  001068                     
  5153                           ;mcc_generated_files/usb/usb_device.c: 761:     {;mcc_generated_files/usb/usb_device.c: 
      +                          762:         USER_USB_CALLBACK_EVENT_HANDLER((USB_EVENT)EVENT_BUS_ERROR,0,1);
  5154  001068  0E7F               	movlw	127
  5155  00106A  6E0E               	movwf	(USER_USB_CALLBACK_EVENT_HANDLER@event+1)^0,c
  5156  00106C  680D               	setf	USER_USB_CALLBACK_EVENT_HANDLER@event^0,c
  5157  00106E  0E00               	movlw	0
  5158  001070  6E0F               	movwf	USER_USB_CALLBACK_EVENT_HANDLER@pdata^0,c
  5159  001072  0E00               	movlw	0
  5160  001074  6E10               	movwf	(USER_USB_CALLBACK_EVENT_HANDLER@pdata+1)^0,c
  5161  001076  0E00               	movlw	0
  5162  001078  6E12               	movwf	(USER_USB_CALLBACK_EVENT_HANDLER@size+1)^0,c
  5163  00107A  0E01               	movlw	1
  5164  00107C  6E11               	movwf	USER_USB_CALLBACK_EVENT_HANDLER@size^0,c
  5165  00107E  ECE2  F017         	call	_USER_USB_CALLBACK_EVENT_HANDLER	;wreg free
  5166  001082                     
  5167                           ;mcc_generated_files/usb/usb_device.c: 763:         {UEIR = 0;};
  5168  001082  0E00               	movlw	0
  5169  001084  6E67               	movwf	103,c	;volatile
  5170  001086                     i2l5902:
  5171                           
  5172                           ;mcc_generated_files/usb/usb_device.c: 778:     if(USBDeviceState < DEFAULT_STATE)
  5173  001086  0E04               	movlw	4
  5174  001088  6050               	cpfslt	_USBDeviceState^0,c	;volatile
  5175  00108A  EF49  F008         	goto	i2u435_41
  5176  00108E  EF4B  F008         	goto	i2u435_40
  5177  001092                     i2u435_41:
  5178  001092  EF4E  F008         	goto	i2l368
  5179  001096                     i2u435_40:
  5180  001096                     
  5181                           ;mcc_generated_files/usb/usb_device.c: 779:     {;mcc_generated_files/usb/usb_device.c: 
      +                          780:         PIR3bits.USBIF = 0;;
  5182  001096  94A4               	bcf	164,2,c	;volatile
  5183                           
  5184                           ;mcc_generated_files/usb/usb_device.c: 781:         return;
  5185  001098  EFA3  F008         	goto	i2l359
  5186  00109C                     i2l368:
  5187                           
  5188                           ;mcc_generated_files/usb/usb_device.c: 787:     if(UIEbits.TRNIE)
  5189  00109C  A664               	btfss	100,3,c	;volatile
  5190  00109E  EF53  F008         	goto	i2u436_41
  5191  0010A2  EF55  F008         	goto	i2u436_40
  5192  0010A6                     i2u436_41:
  5193  0010A6  EFA2  F008         	goto	i2l369
  5194  0010AA                     i2u436_40:
  5195  0010AA                     
  5196                           ;mcc_generated_files/usb/usb_device.c: 788:     {;mcc_generated_files/usb/usb_device.c: 
      +                          789:         for(i = 0; i < 4u; i++)
  5197  0010AA  0E00               	movlw	0
  5198  0010AC  6E1F               	movwf	USBDeviceTasks@i^0,c
  5199  0010AE                     i2l370:
  5200                           
  5201                           ;mcc_generated_files/usb/usb_device.c: 790:         {;mcc_generated_files/usb/usb_device
      +                          .c: 791:             if(UIRbits.TRNIF)
  5202  0010AE  A665               	btfss	101,3,c	;volatile
  5203  0010B0  EF5C  F008         	goto	i2u437_41
  5204  0010B4  EF5E  F008         	goto	i2u437_40
  5205  0010B8                     i2u437_41:
  5206  0010B8  EFA2  F008         	goto	i2l369
  5207  0010BC                     i2u437_40:
  5208  0010BC                     
  5209                           ;mcc_generated_files/usb/usb_device.c: 792:             {;mcc_generated_files/usb/usb_de
      +                          vice.c: 794:                 USTATcopy.Val = USTAT;
  5210  0010BC  CF61 F053          	movff	3937,_USTATcopy	;volatile
  5211  0010C0                     
  5212                           ;mcc_generated_files/usb/usb_device.c: 795:                 endpoint_number = USTATcopy.
      +                          endpoint_number;
  5213  0010C0  3053               	rrcf	_USTATcopy^0,w,c	;volatile
  5214  0010C2  32E8               	rrcf	wreg,f,c
  5215  0010C4  32E8               	rrcf	wreg,f,c
  5216  0010C6  0B0F               	andlw	15
  5217  0010C8  6E4C               	movwf	_endpoint_number^0,c	;volatile
  5218  0010CA                     
  5219                           ;mcc_generated_files/usb/usb_device.c: 797:                 (UIR &= 0xF7);
  5220  0010CA  9665               	bcf	101,3,c	;volatile
  5221  0010CC                     
  5222                           ;mcc_generated_files/usb/usb_device.c: 802:                 if(USTATcopy.direction == 0)
  5223  0010CC  B453               	btfsc	_USTATcopy^0,2,c	;volatile
  5224  0010CE  EF6B  F008         	goto	i2u438_41
  5225  0010D2  EF6D  F008         	goto	i2u438_40
  5226  0010D6                     i2u438_41:
  5227  0010D6  EF77  F008         	goto	i2l5922
  5228  0010DA                     i2u438_40:
  5229  0010DA                     
  5230                           ;mcc_generated_files/usb/usb_device.c: 803:                 {;mcc_generated_files/usb/us
      +                          b_device.c: 804:                     ep_data_out[endpoint_number].bits.ping_pong_state ^
      +                          = 1;
  5231  0010DA  0EE6               	movlw	low _ep_data_out
  5232  0010DC  244C               	addwf	_endpoint_number^0,w,c	;volatile
  5233  0010DE  6ED9               	movwf	fsr2l,c
  5234  0010E0  6ADA               	clrf	fsr2h,c
  5235  0010E2  0E00               	movlw	high _ep_data_out
  5236  0010E4  22DA               	addwfc	fsr2h,f,c
  5237  0010E6  0100               	movlb	0	; () banked
  5238  0010E8  70DF               	btg	indf2,0,c
  5239                           
  5240                           ;mcc_generated_files/usb/usb_device.c: 805:                 }
  5241  0010EA  EF7F  F008         	goto	i2l5924
  5242  0010EE                     i2l5922:
  5243                           
  5244                           ;mcc_generated_files/usb/usb_device.c: 807:                 {;mcc_generated_files/usb/us
      +                          b_device.c: 808:                     ep_data_in[endpoint_number].bits.ping_pong_state ^=
      +                           1;
  5245  0010EE  0EE9               	movlw	low _ep_data_in
  5246  0010F0  244C               	addwf	_endpoint_number^0,w,c	;volatile
  5247  0010F2  6ED9               	movwf	fsr2l,c
  5248  0010F4  6ADA               	clrf	fsr2h,c
  5249  0010F6  0E00               	movlw	high _ep_data_in
  5250  0010F8  22DA               	addwfc	fsr2h,f,c
  5251  0010FA  0100               	movlb	0	; () banked
  5252  0010FC  70DF               	btg	indf2,0,c
  5253  0010FE                     i2l5924:
  5254                           
  5255                           ; BSR set to: 0
  5256                           ;mcc_generated_files/usb/usb_device.c: 814:                 if(endpoint_number == 0)
  5257  0010FE  504C               	movf	_endpoint_number^0,w,c	;volatile
  5258  001100  A4D8               	btfss	status,2,c
  5259  001102  EF85  F008         	goto	i2u439_41
  5260  001106  EF87  F008         	goto	i2u439_40
  5261  00110A                     i2u439_41:
  5262  00110A  EF8B  F008         	goto	i2l5928
  5263  00110E                     i2u439_40:
  5264  00110E                     
  5265                           ; BSR set to: 0
  5266                           ;mcc_generated_files/usb/usb_device.c: 815:                 {;mcc_generated_files/usb/us
      +                          b_device.c: 816:                     USBCtrlEPService();
  5267  00110E  EC8E  F016         	call	_USBCtrlEPService	;wreg free
  5268                           
  5269                           ;mcc_generated_files/usb/usb_device.c: 817:                 }
  5270  001112  EF99  F008         	goto	i2l5930
  5271  001116                     i2l5928:
  5272                           
  5273                           ; BSR set to: 0
  5274                           ;mcc_generated_files/usb/usb_device.c: 819:                 {;mcc_generated_files/usb/us
      +                          b_device.c: 820:                     USER_USB_CALLBACK_EVENT_HANDLER((USB_EVENT)EVENT_TR
      +                          ANSFER,(uint8_t*)&USTATcopy.Val,0);
  5275  001116  0E00               	movlw	0
  5276  001118  6E0E               	movwf	(USER_USB_CALLBACK_EVENT_HANDLER@event+1)^0,c
  5277  00111A  0E72               	movlw	114
  5278  00111C  6E0D               	movwf	USER_USB_CALLBACK_EVENT_HANDLER@event^0,c
  5279  00111E  0E53               	movlw	low _USTATcopy
  5280  001120  6E0F               	movwf	USER_USB_CALLBACK_EVENT_HANDLER@pdata^0,c
  5281  001122  0E00               	movlw	high _USTATcopy
  5282  001124  6E10               	movwf	(USER_USB_CALLBACK_EVENT_HANDLER@pdata+1)^0,c
  5283  001126  0E00               	movlw	0
  5284  001128  6E12               	movwf	(USER_USB_CALLBACK_EVENT_HANDLER@size+1)^0,c
  5285  00112A  0E00               	movlw	0
  5286  00112C  6E11               	movwf	USER_USB_CALLBACK_EVENT_HANDLER@size^0,c
  5287  00112E  ECE2  F017         	call	_USER_USB_CALLBACK_EVENT_HANDLER	;wreg free
  5288  001132                     i2l5930:
  5289                           
  5290                           ;mcc_generated_files/usb/usb_device.c: 827:         }
  5291  001132  2A1F               	incf	USBDeviceTasks@i^0,f,c
  5292  001134  0E03               	movlw	3
  5293  001136  641F               	cpfsgt	USBDeviceTasks@i^0,c
  5294  001138  EFA0  F008         	goto	i2u440_41
  5295  00113C  EFA2  F008         	goto	i2u440_40
  5296  001140                     i2u440_41:
  5297  001140  EF57  F008         	goto	i2l370
  5298  001144                     i2u440_40:
  5299  001144                     i2l369:
  5300                           
  5301                           ;mcc_generated_files/usb/usb_device.c: 830:     PIR3bits.USBIF = 0;;
  5302  001144  94A4               	bcf	164,2,c	;volatile
  5303  001146                     i2l359:
  5304  001146  0012               	return		;funcret
  5305  001148                     __end_of_USBDeviceTasks:
  5306                           	callstack 0
  5307                           
  5308 ;; *************** function i2_USBDeviceInit *****************
  5309 ;; Defined at:
  5310 ;;		line 281 in file "mcc_generated_files/usb/usb_device.c"
  5311 ;; Parameters:    Size  Location     Type
  5312 ;;		None
  5313 ;; Auto vars:     Size  Location     Type
  5314 ;;  i               1   12[COMRAM] unsigned char 
  5315 ;; Return value:  Size  Location     Type
  5316 ;;                  1    wreg      void 
  5317 ;; Registers used:
  5318 ;;		wreg, fsr2l, fsr2h, status,2, status,0, prodl, prodh, cstack
  5319 ;; Tracked objects:
  5320 ;;		On entry : 0/0
  5321 ;;		On exit  : 0/0
  5322 ;;		Unchanged: 0/0
  5323 ;; Data sizes:     COMRAM   BANK0   BANK1   BANK2   BANK3   BANK4   BANK5   BANK6   BANK7
  5324 ;;      Params:         0       0       0       0       0       0       0       0       0
  5325 ;;      Locals:         1       0       0       0       0       0       0       0       0
  5326 ;;      Temps:          0       0       0       0       0       0       0       0       0
  5327 ;;      Totals:         1       0       0       0       0       0       0       0       0
  5328 ;;Total ram usage:        1 bytes
  5329 ;; Hardware stack levels used: 1
  5330 ;; Hardware stack levels required when called: 1
  5331 ;; This function calls:
  5332 ;;		i2_memset
  5333 ;; This function is called by:
  5334 ;;		_USBDeviceTasks
  5335 ;; This function uses a non-reentrant model
  5336 ;;
  5337                           
  5338                           	psect	text25
  5339  001D36                     __ptext25:
  5340                           	callstack 0
  5341  001D36                     i2_USBDeviceInit:
  5342                           	callstack 19
  5343  001D36                     
  5344                           ;mcc_generated_files/usb/usb_device.c: 283:     uint8_t i;;mcc_generated_files/usb/usb_d
      +                          evice.c: 285:     {PIE3bits.USBIE = 0;};
  5345  001D36  94A3               	bcf	163,2,c	;volatile
  5346  001D38                     
  5347                           ;mcc_generated_files/usb/usb_device.c: 292:     {UEIR = 0;};
  5348  001D38  0E00               	movlw	0
  5349  001D3A  6E67               	movwf	103,c	;volatile
  5350                           
  5351                           ;mcc_generated_files/usb/usb_device.c: 295:     {UIR = 0;};
  5352  001D3C  0E00               	movlw	0
  5353  001D3E  6E65               	movwf	101,c	;volatile
  5354                           
  5355                           ;mcc_generated_files/usb/usb_device.c: 298:     UEP0 = 0;
  5356  001D40  0E00               	movlw	0
  5357  001D42  6E6A               	movwf	106,c	;volatile
  5358  001D44                     
  5359                           ;mcc_generated_files/usb/usb_device.c: 300:     memset((void*)&UEP1,0x00,(2));;
  5360  001D44  0E6B               	movlw	107
  5361  001D46  6E01               	movwf	i2memset@dest^0,c
  5362  001D48  0E0F               	movlw	15
  5363  001D4A  6E02               	movwf	(i2memset@dest+1)^0,c
  5364  001D4C  0E00               	movlw	0
  5365  001D4E  6E04               	movwf	(i2memset@c+1)^0,c
  5366  001D50  0E00               	movlw	0
  5367  001D52  6E03               	movwf	i2memset@c^0,c
  5368  001D54  0E00               	movlw	0
  5369  001D56  6E06               	movwf	(i2memset@n+1)^0,c
  5370  001D58  0E02               	movlw	2
  5371  001D5A  6E05               	movwf	i2memset@n^0,c
  5372  001D5C  ECCD  F00B         	call	i2_memset	;wreg free
  5373  001D60                     
  5374                           ;mcc_generated_files/usb/usb_device.c: 302:     { UCFG = 0x10 | 0x00 | 0x04 | 0x02; UEIE
      +                           = 0x9F; UIE = 0x39 | 0x40 | 0x02; };
  5375  001D60  0E16               	movlw	22
  5376  001D62  6E62               	movwf	98,c	;volatile
  5377  001D64  0E9F               	movlw	159
  5378  001D66  6E66               	movwf	102,c	;volatile
  5379  001D68  0E7B               	movlw	123
  5380  001D6A  6E64               	movwf	100,c	;volatile
  5381  001D6C                     
  5382                           ;mcc_generated_files/usb/usb_device.c: 311:     for(i = 0; i < (sizeof(BDT)/sizeof(BDT_E
      +                          NTRY)); i++)
  5383  001D6C  0E00               	movlw	0
  5384  001D6E  6E0D               	movwf	i2USBDeviceInit@i^0,c
  5385  001D70                     i2l5694:
  5386                           
  5387                           ;mcc_generated_files/usb/usb_device.c: 312:     {;mcc_generated_files/usb/usb_device.c: 
      +                          313:         BDT[i].Val = 0x00;
  5388  001D70  500D               	movf	i2USBDeviceInit@i^0,w,c
  5389  001D72  0D04               	mullw	4
  5390  001D74  0E00               	movlw	0
  5391  001D76  24F3               	addwf	243,w,c
  5392  001D78  6ED9               	movwf	fsr2l,c
  5393  001D7A  0E04               	movlw	4
  5394  001D7C  20F4               	addwfc	prodh,w,c
  5395  001D7E  6EDA               	movwf	fsr2h,c
  5396  001D80  6ADE               	clrf	postinc2,c
  5397  001D82  6ADE               	clrf	postinc2,c
  5398  001D84  6ADE               	clrf	postinc2,c
  5399  001D86  6ADD               	clrf	postdec2,c
  5400  001D88                     
  5401                           ;mcc_generated_files/usb/usb_device.c: 314:     }
  5402  001D88  2A0D               	incf	i2USBDeviceInit@i^0,f,c
  5403  001D8A  0E0B               	movlw	11
  5404  001D8C  640D               	cpfsgt	i2USBDeviceInit@i^0,c
  5405  001D8E  EFCB  F00E         	goto	i2u415_41
  5406  001D92  EFCD  F00E         	goto	i2u415_40
  5407  001D96                     i2u415_41:
  5408  001D96  EFB8  F00E         	goto	i2l5694
  5409  001D9A                     i2u415_40:
  5410  001D9A                     
  5411                           ;mcc_generated_files/usb/usb_device.c: 317:     UCONbits.PPBRST = 1;
  5412  001D9A  8C60               	bsf	96,6,c	;volatile
  5413  001D9C                     
  5414                           ;mcc_generated_files/usb/usb_device.c: 320:     UADDR = 0x00;
  5415  001D9C  0E00               	movlw	0
  5416  001D9E  6E63               	movwf	99,c	;volatile
  5417  001DA0                     
  5418                           ;mcc_generated_files/usb/usb_device.c: 323:     UCONbits.PKTDIS = 0;
  5419  001DA0  9860               	bcf	96,4,c	;volatile
  5420  001DA2                     
  5421                           ;mcc_generated_files/usb/usb_device.c: 326:     UCONbits.PPBRST = 0;
  5422  001DA2  9C60               	bcf	96,6,c	;volatile
  5423  001DA4                     i2l5706:
  5424                           
  5425                           ;mcc_generated_files/usb/usb_device.c: 330:     {;mcc_generated_files/usb/usb_device.c: 
      +                          331:         (UIR &= 0xF7);
  5426  001DA4  9665               	bcf	101,3,c	;volatile
  5427  001DA6                     
  5428                           ;mcc_generated_files/usb/usb_device.c: 333:         inPipes[0].info.Val = 0;
  5429  001DA6  0E00               	movlw	0
  5430  001DA8  0100               	movlb	0	; () banked
  5431  001DAA  6FD7               	movwf	(_inPipes+3)& (0+255),b	;volatile
  5432  001DAC                     
  5433                           ; BSR set to: 0
  5434                           ;mcc_generated_files/usb/usb_device.c: 334:         outPipes[0].info.Val = 0;
  5435  001DAC  0E00               	movlw	0
  5436  001DAE  6FCF               	movwf	(_outPipes+3)& (0+255),b	;volatile
  5437  001DB0                     
  5438                           ; BSR set to: 0
  5439                           ;mcc_generated_files/usb/usb_device.c: 335:         outPipes[0].wCount.Val = 0;
  5440  001DB0  0E00               	movlw	0
  5441  001DB2  6FD1               	movwf	(_outPipes+5)& (0+255),b	;volatile
  5442  001DB4  0E00               	movlw	0
  5443  001DB6  6FD0               	movwf	(_outPipes+4)& (0+255),b	;volatile
  5444  001DB8                     
  5445                           ; BSR set to: 0
  5446                           ;mcc_generated_files/usb/usb_device.c: 336:     }while(UIRbits.TRNIF == 1);
  5447  001DB8  B665               	btfsc	101,3,c	;volatile
  5448  001DBA  EFE1  F00E         	goto	i2u416_41
  5449  001DBE  EFE3  F00E         	goto	i2u416_40
  5450  001DC2                     i2u416_41:
  5451  001DC2  EFD2  F00E         	goto	i2l5706
  5452  001DC6                     i2u416_40:
  5453  001DC6                     
  5454                           ; BSR set to: 0
  5455                           ;mcc_generated_files/usb/usb_device.c: 340:     USBStatusStageEnabledFlag1 = 1;
  5456  001DC6  0E01               	movlw	1
  5457  001DC8  6E48               	movwf	_USBStatusStageEnabledFlag1^0,c	;volatile
  5458                           
  5459                           ;mcc_generated_files/usb/usb_device.c: 341:     USBStatusStageEnabledFlag2 = 1;
  5460  001DCA  0E01               	movlw	1
  5461  001DCC  6E47               	movwf	_USBStatusStageEnabledFlag2^0,c	;volatile
  5462                           
  5463                           ;mcc_generated_files/usb/usb_device.c: 343:     USBDeferINDataStagePackets = 0;
  5464  001DCE  0E00               	movlw	0
  5465  001DD0  6E46               	movwf	_USBDeferINDataStagePackets^0,c	;volatile
  5466                           
  5467                           ;mcc_generated_files/usb/usb_device.c: 344:     USBDeferOUTDataStagePackets = 0;
  5468  001DD2  0E00               	movlw	0
  5469  001DD4  6E45               	movwf	_USBDeferOUTDataStagePackets^0,c	;volatile
  5470                           
  5471                           ;mcc_generated_files/usb/usb_device.c: 345:     USBBusIsSuspended = 0;
  5472  001DD6  0E00               	movlw	0
  5473  001DD8  6FF5               	movwf	_USBBusIsSuspended& (0+255),b	;volatile
  5474                           
  5475                           ;mcc_generated_files/usb/usb_device.c: 349:     for(i = 0; i < (uint8_t)(2 +1u); i++)
  5476  001DDA  0E00               	movlw	0
  5477  001DDC  6E0D               	movwf	i2USBDeviceInit@i^0,c
  5478  001DDE                     i2l5722:
  5479                           
  5480                           ;mcc_generated_files/usb/usb_device.c: 350:     {;mcc_generated_files/usb/usb_device.c: 
      +                          351:         pBDTEntryIn[i] = 0u;
  5481  001DDE  500D               	movf	i2USBDeviceInit@i^0,w,c
  5482  001DE0  0D02               	mullw	2
  5483  001DE2  0EDA               	movlw	low _pBDTEntryIn
  5484  001DE4  24F3               	addwf	243,w,c
  5485  001DE6  6ED9               	movwf	fsr2l,c
  5486  001DE8  0E00               	movlw	high _pBDTEntryIn
  5487  001DEA  20F4               	addwfc	prodh,w,c
  5488  001DEC  6EDA               	movwf	fsr2h,c
  5489  001DEE  0E00               	movlw	0
  5490  001DF0  6EDE               	movwf	postinc2,c
  5491  001DF2  0E00               	movlw	0
  5492  001DF4  6EDD               	movwf	postdec2,c
  5493                           
  5494                           ;mcc_generated_files/usb/usb_device.c: 352:         pBDTEntryOut[i] = 0u;
  5495  001DF6  500D               	movf	i2USBDeviceInit@i^0,w,c
  5496  001DF8  0D02               	mullw	2
  5497  001DFA  0EE0               	movlw	low _pBDTEntryOut
  5498  001DFC  24F3               	addwf	243,w,c
  5499  001DFE  6ED9               	movwf	fsr2l,c
  5500  001E00  0E00               	movlw	high _pBDTEntryOut
  5501  001E02  20F4               	addwfc	prodh,w,c
  5502  001E04  6EDA               	movwf	fsr2h,c
  5503  001E06  0E00               	movlw	0
  5504  001E08  6EDE               	movwf	postinc2,c
  5505  001E0A  0E00               	movlw	0
  5506  001E0C  6EDD               	movwf	postdec2,c
  5507  001E0E                     
  5508                           ;mcc_generated_files/usb/usb_device.c: 353:         ep_data_in[i].Val = 0u;
  5509  001E0E  0EE9               	movlw	low _ep_data_in
  5510  001E10  240D               	addwf	i2USBDeviceInit@i^0,w,c
  5511  001E12  6ED9               	movwf	fsr2l,c
  5512  001E14  6ADA               	clrf	fsr2h,c
  5513  001E16  0E00               	movlw	high _ep_data_in
  5514  001E18  22DA               	addwfc	fsr2h,f,c
  5515  001E1A  0E00               	movlw	0
  5516  001E1C  6EDF               	movwf	indf2,c
  5517  001E1E                     
  5518                           ;mcc_generated_files/usb/usb_device.c: 354:         ep_data_out[i].Val = 0u;
  5519  001E1E  0EE6               	movlw	low _ep_data_out
  5520  001E20  240D               	addwf	i2USBDeviceInit@i^0,w,c
  5521  001E22  6ED9               	movwf	fsr2l,c
  5522  001E24  6ADA               	clrf	fsr2h,c
  5523  001E26  0E00               	movlw	high _ep_data_out
  5524  001E28  22DA               	addwfc	fsr2h,f,c
  5525  001E2A  0E00               	movlw	0
  5526  001E2C  6EDF               	movwf	indf2,c
  5527  001E2E                     
  5528                           ;mcc_generated_files/usb/usb_device.c: 355:     }
  5529  001E2E  2A0D               	incf	i2USBDeviceInit@i^0,f,c
  5530  001E30  0E02               	movlw	2
  5531  001E32  640D               	cpfsgt	i2USBDeviceInit@i^0,c
  5532  001E34  EF1E  F00F         	goto	i2u417_41
  5533  001E38  EF20  F00F         	goto	i2u417_40
  5534  001E3C                     i2u417_41:
  5535  001E3C  EFEF  F00E         	goto	i2l5722
  5536  001E40                     i2u417_40:
  5537  001E40                     
  5538                           ;mcc_generated_files/usb/usb_device.c: 358:     pBDTEntryIn[0] = (volatile BDT_ENTRY*)&B
      +                          DT[2];
  5539  001E40  0E08               	movlw	8
  5540  001E42  0100               	movlb	0	; () banked
  5541  001E44  6FDA               	movwf	_pBDTEntryIn& (0+255),b
  5542  001E46  0E04               	movlw	4
  5543  001E48  6FDB               	movwf	(_pBDTEntryIn+1)& (0+255),b
  5544  001E4A                     
  5545                           ; BSR set to: 0
  5546                           ;mcc_generated_files/usb/usb_device.c: 360:     UEP0 = 0x06|0x10;
  5547  001E4A  0E16               	movlw	22
  5548  001E4C  6E6A               	movwf	106,c	;volatile
  5549  001E4E                     
  5550                           ; BSR set to: 0
  5551                           ;mcc_generated_files/usb/usb_device.c: 362:     BDT[0].ADR = ((uint16_t)(&SetupPkt));
  5552  001E4E  0E04               	movlw	4
  5553  001E50  0104               	movlb	4	; () banked
  5554  001E52  6F03               	movwf	3,b	;volatile
  5555  001E54  0E30               	movlw	48
  5556  001E56  6F02               	movwf	2,b	;volatile
  5557  001E58                     
  5558                           ; BSR set to: 4
  5559                           ;mcc_generated_files/usb/usb_device.c: 363:     BDT[0].CNT = 8;
  5560  001E58  0E08               	movlw	8
  5561  001E5A  6F01               	movwf	1,b	;volatile
  5562  001E5C                     
  5563                           ; BSR set to: 4
  5564                           ;mcc_generated_files/usb/usb_device.c: 364:     BDT[0].STAT.Val = 0x00|0x04;
  5565  001E5C  0E04               	movlw	4
  5566  001E5E  6F00               	movwf	0,b	;volatile
  5567  001E60                     
  5568                           ; BSR set to: 4
  5569                           ;mcc_generated_files/usb/usb_device.c: 365:     BDT[0].STAT.Val |= 0x80;
  5570  001E60  8F00               	bsf	0,7,b	;volatile
  5571  001E62                     
  5572                           ; BSR set to: 4
  5573                           ;mcc_generated_files/usb/usb_device.c: 368:     USBActiveConfiguration = 0;
  5574  001E62  0E00               	movlw	0
  5575  001E64  6E54               	movwf	_USBActiveConfiguration^0,c	;volatile
  5576  001E66                     
  5577                           ; BSR set to: 4
  5578                           ;mcc_generated_files/usb/usb_device.c: 370:     USB1msTickCount = 0;
  5579  001E66  0E00               	movlw	0
  5580  001E68  6E2C               	movwf	_USB1msTickCount^0,c	;volatile
  5581  001E6A  0E00               	movlw	0
  5582  001E6C  6E2D               	movwf	(_USB1msTickCount+1)^0,c	;volatile
  5583  001E6E  0E00               	movlw	0
  5584  001E70  6E2E               	movwf	(_USB1msTickCount+2)^0,c	;volatile
  5585  001E72  0E00               	movlw	0
  5586  001E74  6E2F               	movwf	(_USB1msTickCount+3)^0,c	;volatile
  5587  001E76                     
  5588                           ; BSR set to: 4
  5589                           ;mcc_generated_files/usb/usb_device.c: 371:     USBTicksSinceSuspendEnd = 0;
  5590  001E76  0E00               	movlw	0
  5591  001E78  0100               	movlb	0	; () banked
  5592  001E7A  6FF4               	movwf	_USBTicksSinceSuspendEnd& (0+255),b	;volatile
  5593  001E7C                     
  5594                           ; BSR set to: 0
  5595                           ;mcc_generated_files/usb/usb_device.c: 374:     USBDeviceState = DETACHED_STATE;
  5596  001E7C  0E00               	movlw	0
  5597  001E7E  6E50               	movwf	_USBDeviceState^0,c	;volatile
  5598  001E80                     
  5599                           ; BSR set to: 0
  5600  001E80  0012               	return		;funcret
  5601  001E82                     __end_ofi2_USBDeviceInit:
  5602                           	callstack 0
  5603                           
  5604 ;; *************** function _USBWakeFromSuspend *****************
  5605 ;; Defined at:
  5606 ;;		line 2307 in file "mcc_generated_files/usb/usb_device.c"
  5607 ;; Parameters:    Size  Location     Type
  5608 ;;		None
  5609 ;; Auto vars:     Size  Location     Type
  5610 ;;		None
  5611 ;; Return value:  Size  Location     Type
  5612 ;;                  1    wreg      void 
  5613 ;; Registers used:
  5614 ;;		wreg, fsr2l, fsr2h, status,2, status,0, prodl, prodh, cstack
  5615 ;; Tracked objects:
  5616 ;;		On entry : 0/0
  5617 ;;		On exit  : 0/0
  5618 ;;		Unchanged: 0/0
  5619 ;; Data sizes:     COMRAM   BANK0   BANK1   BANK2   BANK3   BANK4   BANK5   BANK6   BANK7
  5620 ;;      Params:         0       0       0       0       0       0       0       0       0
  5621 ;;      Locals:         0       0       0       0       0       0       0       0       0
  5622 ;;      Temps:          0       0       0       0       0       0       0       0       0
  5623 ;;      Totals:         0       0       0       0       0       0       0       0       0
  5624 ;;Total ram usage:        0 bytes
  5625 ;; Hardware stack levels used: 1
  5626 ;; Hardware stack levels required when called: 4
  5627 ;; This function calls:
  5628 ;;		_USER_USB_CALLBACK_EVENT_HANDLER
  5629 ;; This function is called by:
  5630 ;;		_USBDeviceTasks
  5631 ;; This function uses a non-reentrant model
  5632 ;;
  5633                           
  5634                           	psect	text26
  5635  003410                     __ptext26:
  5636                           	callstack 0
  5637  003410                     _USBWakeFromSuspend:
  5638                           	callstack 16
  5639  003410                     
  5640                           ;mcc_generated_files/usb/usb_device.c: 2309:     USBBusIsSuspended = 0;
  5641  003410  0E00               	movlw	0
  5642  003412  0100               	movlb	0	; () banked
  5643  003414  6FF5               	movwf	_USBBusIsSuspended& (0+255),b	;volatile
  5644  003416                     
  5645                           ; BSR set to: 0
  5646                           ;mcc_generated_files/usb/usb_device.c: 2315:     USER_USB_CALLBACK_EVENT_HANDLER((USB_EV
      +                          ENT)EVENT_RESUME,0,0);
  5647  003416  0E00               	movlw	0
  5648  003418  6E0E               	movwf	(USER_USB_CALLBACK_EVENT_HANDLER@event+1)^0,c
  5649  00341A  0E74               	movlw	116
  5650  00341C  6E0D               	movwf	USER_USB_CALLBACK_EVENT_HANDLER@event^0,c
  5651  00341E  0E00               	movlw	0
  5652  003420  6E0F               	movwf	USER_USB_CALLBACK_EVENT_HANDLER@pdata^0,c
  5653  003422  0E00               	movlw	0
  5654  003424  6E10               	movwf	(USER_USB_CALLBACK_EVENT_HANDLER@pdata+1)^0,c
  5655  003426  0E00               	movlw	0
  5656  003428  6E12               	movwf	(USER_USB_CALLBACK_EVENT_HANDLER@size+1)^0,c
  5657  00342A  0E00               	movlw	0
  5658  00342C  6E11               	movwf	USER_USB_CALLBACK_EVENT_HANDLER@size^0,c
  5659  00342E  ECE2  F017         	call	_USER_USB_CALLBACK_EVENT_HANDLER	;wreg free
  5660  003432                     
  5661                           ;mcc_generated_files/usb/usb_device.c: 2322:         UCONbits.SUSPND = 0;
  5662  003432  9260               	bcf	96,1,c	;volatile
  5663  003434                     
  5664                           ;mcc_generated_files/usb/usb_device.c: 2327:     UIEbits.ACTVIE = 0;
  5665  003434  9464               	bcf	100,2,c	;volatile
  5666                           
  5667                           ;mcc_generated_files/usb/usb_device.c: 2345:     while(UIRbits.ACTVIF)
  5668  003436  EF1E  F01A         	goto	i2l5552
  5669  00343A                     i2l5550:
  5670                           
  5671                           ;mcc_generated_files/usb/usb_device.c: 2347:     {;mcc_generated_files/usb/usb_device.c:
      +                           2348:         (UIR &= 0xFB);
  5672  00343A  9465               	bcf	101,2,c	;volatile
  5673  00343C                     i2l5552:
  5674                           
  5675                           ;mcc_generated_files/usb/usb_device.c: 2345:     while(UIRbits.ACTVIF)
  5676  00343C  B465               	btfsc	101,2,c	;volatile
  5677  00343E  EF23  F01A         	goto	i2u399_41
  5678  003442  EF25  F01A         	goto	i2u399_40
  5679  003446                     i2u399_41:
  5680  003446  EF1D  F01A         	goto	i2l5550
  5681  00344A                     i2u399_40:
  5682  00344A                     
  5683                           ;mcc_generated_files/usb/usb_device.c: 2351:     USBTicksSinceSuspendEnd = 0;
  5684  00344A  0E00               	movlw	0
  5685  00344C  0100               	movlb	0	; () banked
  5686  00344E  6FF4               	movwf	_USBTicksSinceSuspendEnd& (0+255),b	;volatile
  5687  003450                     
  5688                           ; BSR set to: 0
  5689  003450  0012               	return		;funcret
  5690  003452                     __end_of_USBWakeFromSuspend:
  5691                           	callstack 0
  5692                           
  5693 ;; *************** function _USBSuspend *****************
  5694 ;; Defined at:
  5695 ;;		line 2249 in file "mcc_generated_files/usb/usb_device.c"
  5696 ;; Parameters:    Size  Location     Type
  5697 ;;		None
  5698 ;; Auto vars:     Size  Location     Type
  5699 ;;		None
  5700 ;; Return value:  Size  Location     Type
  5701 ;;                  1    wreg      void 
  5702 ;; Registers used:
  5703 ;;		wreg, fsr2l, fsr2h, status,2, status,0, prodl, prodh, cstack
  5704 ;; Tracked objects:
  5705 ;;		On entry : 0/0
  5706 ;;		On exit  : 0/0
  5707 ;;		Unchanged: 0/0
  5708 ;; Data sizes:     COMRAM   BANK0   BANK1   BANK2   BANK3   BANK4   BANK5   BANK6   BANK7
  5709 ;;      Params:         0       0       0       0       0       0       0       0       0
  5710 ;;      Locals:         0       0       0       0       0       0       0       0       0
  5711 ;;      Temps:          0       0       0       0       0       0       0       0       0
  5712 ;;      Totals:         0       0       0       0       0       0       0       0       0
  5713 ;;Total ram usage:        0 bytes
  5714 ;; Hardware stack levels used: 1
  5715 ;; Hardware stack levels required when called: 4
  5716 ;; This function calls:
  5717 ;;		_USER_USB_CALLBACK_EVENT_HANDLER
  5718 ;; This function is called by:
  5719 ;;		_USBDeviceTasks
  5720 ;; This function uses a non-reentrant model
  5721 ;;
  5722                           
  5723                           	psect	text27
  5724  003530                     __ptext27:
  5725                           	callstack 0
  5726  003530                     _USBSuspend:
  5727                           	callstack 16
  5728  003530                     
  5729                           ;mcc_generated_files/usb/usb_device.c: 2274:     UIEbits.ACTVIE = 1;
  5730  003530  8464               	bsf	100,2,c	;volatile
  5731  003532                     
  5732                           ;mcc_generated_files/usb/usb_device.c: 2275:     (UIR &= 0xEF);
  5733  003532  9865               	bcf	101,4,c	;volatile
  5734  003534                     
  5735                           ;mcc_generated_files/usb/usb_device.c: 2278:         UCONbits.SUSPND = 1;
  5736  003534  8260               	bsf	96,1,c	;volatile
  5737  003536                     
  5738                           ;mcc_generated_files/usb/usb_device.c: 2281:     USBBusIsSuspended = 1;
  5739  003536  0E01               	movlw	1
  5740  003538  0100               	movlb	0	; () banked
  5741  00353A  6FF5               	movwf	_USBBusIsSuspended& (0+255),b	;volatile
  5742  00353C                     
  5743                           ; BSR set to: 0
  5744                           ;mcc_generated_files/usb/usb_device.c: 2282:     USBTicksSinceSuspendEnd = 0;
  5745  00353C  0E00               	movlw	0
  5746  00353E  6FF4               	movwf	_USBTicksSinceSuspendEnd& (0+255),b	;volatile
  5747  003540                     
  5748                           ; BSR set to: 0
  5749                           ;mcc_generated_files/usb/usb_device.c: 2289:     USER_USB_CALLBACK_EVENT_HANDLER((USB_EV
      +                          ENT)EVENT_SUSPEND,0,0);
  5750  003540  0E00               	movlw	0
  5751  003542  6E0E               	movwf	(USER_USB_CALLBACK_EVENT_HANDLER@event+1)^0,c
  5752  003544  0E75               	movlw	117
  5753  003546  6E0D               	movwf	USER_USB_CALLBACK_EVENT_HANDLER@event^0,c
  5754  003548  0E00               	movlw	0
  5755  00354A  6E0F               	movwf	USER_USB_CALLBACK_EVENT_HANDLER@pdata^0,c
  5756  00354C  0E00               	movlw	0
  5757  00354E  6E10               	movwf	(USER_USB_CALLBACK_EVENT_HANDLER@pdata+1)^0,c
  5758  003550  0E00               	movlw	0
  5759  003552  6E12               	movwf	(USER_USB_CALLBACK_EVENT_HANDLER@size+1)^0,c
  5760  003554  0E00               	movlw	0
  5761  003556  6E11               	movwf	USER_USB_CALLBACK_EVENT_HANDLER@size^0,c
  5762  003558  ECE2  F017         	call	_USER_USB_CALLBACK_EVENT_HANDLER	;wreg free
  5763  00355C  0012               	return		;funcret
  5764  00355E                     __end_of_USBSuspend:
  5765                           	callstack 0
  5766                           
  5767 ;; *************** function _USBStallHandler *****************
  5768 ;; Defined at:
  5769 ;;		line 2206 in file "mcc_generated_files/usb/usb_device.c"
  5770 ;; Parameters:    Size  Location     Type
  5771 ;;		None
  5772 ;; Auto vars:     Size  Location     Type
  5773 ;;		None
  5774 ;; Return value:  Size  Location     Type
  5775 ;;                  1    wreg      void 
  5776 ;; Registers used:
  5777 ;;		wreg, fsr2l, fsr2h, status,2, status,0
  5778 ;; Tracked objects:
  5779 ;;		On entry : 0/0
  5780 ;;		On exit  : 0/0
  5781 ;;		Unchanged: 0/0
  5782 ;; Data sizes:     COMRAM   BANK0   BANK1   BANK2   BANK3   BANK4   BANK5   BANK6   BANK7
  5783 ;;      Params:         0       0       0       0       0       0       0       0       0
  5784 ;;      Locals:         0       0       0       0       0       0       0       0       0
  5785 ;;      Temps:          1       0       0       0       0       0       0       0       0
  5786 ;;      Totals:         1       0       0       0       0       0       0       0       0
  5787 ;;Total ram usage:        1 bytes
  5788 ;; Hardware stack levels used: 1
  5789 ;; This function calls:
  5790 ;;		Nothing
  5791 ;; This function is called by:
  5792 ;;		_USBDeviceTasks
  5793 ;; This function uses a non-reentrant model
  5794 ;;
  5795                           
  5796                           	psect	text28
  5797  0031F6                     __ptext28:
  5798                           	callstack 0
  5799  0031F6                     _USBStallHandler:
  5800                           	callstack 20
  5801  0031F6                     
  5802                           ;mcc_generated_files/usb/usb_device.c: 2218:     if(UEP0bits.EPSTALL == 1)
  5803  0031F6  A06A               	btfss	106,0,c	;volatile
  5804  0031F8  EF00  F019         	goto	i2u402_41
  5805  0031FC  EF02  F019         	goto	i2u402_40
  5806  003200                     i2u402_41:
  5807  003200  EF29  F019         	goto	i2l508
  5808  003204                     i2u402_40:
  5809  003204                     
  5810                           ;mcc_generated_files/usb/usb_device.c: 2219:     {;mcc_generated_files/usb/usb_device.c:
      +                           2221:         if((pBDTEntryEP0OutCurrent->STAT.Val == 0x80) && (pBDTEntryIn[0]->STAT.Va
      +                          l == (0x80|0x04)))
  5811  003204  C040  FFD9         	movff	_pBDTEntryEP0OutCurrent,fsr2l
  5812  003208  C041  FFDA         	movff	_pBDTEntryEP0OutCurrent+1,fsr2h
  5813  00320C  0E80               	movlw	128
  5814  00320E  18DE               	xorwf	postinc2,w,c
  5815  003210  A4D8               	btfss	status,2,c
  5816  003212  EF0D  F019         	goto	i2u403_41
  5817  003216  EF0F  F019         	goto	i2u403_40
  5818  00321A                     i2u403_41:
  5819  00321A  EF28  F019         	goto	i2l5588
  5820  00321E                     i2u403_40:
  5821  00321E  C0DA  FFD9         	movff	_pBDTEntryIn,fsr2l
  5822  003222  C0DB  FFDA         	movff	_pBDTEntryIn+1,fsr2h
  5823  003226  0E84               	movlw	132
  5824  003228  18DE               	xorwf	postinc2,w,c
  5825  00322A  A4D8               	btfss	status,2,c
  5826  00322C  EF1A  F019         	goto	i2u404_41
  5827  003230  EF1C  F019         	goto	i2u404_40
  5828  003234                     i2u404_41:
  5829  003234  EF28  F019         	goto	i2l5588
  5830  003238                     i2u404_40:
  5831  003238                     
  5832                           ;mcc_generated_files/usb/usb_device.c: 2222:         {;mcc_generated_files/usb/usb_devic
      +                          e.c: 2224:             pBDTEntryEP0OutCurrent->STAT.Val = 0x00|(0x08 & 0x08)|0x04;
  5833  003238  C040  FFD9         	movff	_pBDTEntryEP0OutCurrent,fsr2l
  5834  00323C  C041  FFDA         	movff	_pBDTEntryEP0OutCurrent+1,fsr2h
  5835  003240  0E0C               	movlw	12
  5836  003242  6EDF               	movwf	indf2,c
  5837  003244                     
  5838                           ;mcc_generated_files/usb/usb_device.c: 2225:             pBDTEntryEP0OutCurrent->STAT.Va
      +                          l |= 0x80;
  5839  003244  C040  FFD9         	movff	_pBDTEntryEP0OutCurrent,fsr2l
  5840  003248  C041  FFDA         	movff	_pBDTEntryEP0OutCurrent+1,fsr2h
  5841  00324C  0E00               	movlw	0
  5842  00324E  8EDB               	bsf	plusw2,7,c
  5843  003250                     i2l5588:
  5844                           
  5845                           ;mcc_generated_files/usb/usb_device.c: 2227:         UEP0bits.EPSTALL = 0;
  5846  003250  906A               	bcf	106,0,c	;volatile
  5847  003252                     i2l508:
  5848                           
  5849                           ;mcc_generated_files/usb/usb_device.c: 2230:     (UIR &= 0xDF);
  5850  003252  9A65               	bcf	101,5,c	;volatile
  5851  003254  0012               	return		;funcret
  5852  003256                     __end_of_USBStallHandler:
  5853                           	callstack 0
  5854                           
  5855 ;; *************** function _USBIncrement1msInternalTimers *****************
  5856 ;; Defined at:
  5857 ;;		line 3029 in file "mcc_generated_files/usb/usb_device.c"
  5858 ;; Parameters:    Size  Location     Type
  5859 ;;		None
  5860 ;; Auto vars:     Size  Location     Type
  5861 ;;		None
  5862 ;; Return value:  Size  Location     Type
  5863 ;;                  1    wreg      void 
  5864 ;; Registers used:
  5865 ;;		wreg, status,2, status,0
  5866 ;; Tracked objects:
  5867 ;;		On entry : 0/0
  5868 ;;		On exit  : 0/0
  5869 ;;		Unchanged: 0/0
  5870 ;; Data sizes:     COMRAM   BANK0   BANK1   BANK2   BANK3   BANK4   BANK5   BANK6   BANK7
  5871 ;;      Params:         0       0       0       0       0       0       0       0       0
  5872 ;;      Locals:         0       0       0       0       0       0       0       0       0
  5873 ;;      Temps:          0       0       0       0       0       0       0       0       0
  5874 ;;      Totals:         0       0       0       0       0       0       0       0       0
  5875 ;;Total ram usage:        0 bytes
  5876 ;; Hardware stack levels used: 1
  5877 ;; This function calls:
  5878 ;;		Nothing
  5879 ;; This function is called by:
  5880 ;;		_USBDeviceTasks
  5881 ;; This function uses a non-reentrant model
  5882 ;;
  5883                           
  5884                           	psect	text29
  5885  0034CA                     __ptext29:
  5886                           	callstack 0
  5887  0034CA                     _USBIncrement1msInternalTimers:
  5888                           	callstack 20
  5889  0034CA                     
  5890                           ;mcc_generated_files/usb/usb_device.c: 3037:     USB1msTickCount++;
  5891  0034CA  0E01               	movlw	1
  5892  0034CC  262C               	addwf	_USB1msTickCount^0,f,c	;volatile
  5893  0034CE  0E00               	movlw	0
  5894  0034D0  222D               	addwfc	(_USB1msTickCount+1)^0,f,c	;volatile
  5895  0034D2  222E               	addwfc	(_USB1msTickCount+2)^0,f,c	;volatile
  5896  0034D4  222F               	addwfc	(_USB1msTickCount+3)^0,f,c	;volatile
  5897  0034D6                     
  5898                           ;mcc_generated_files/usb/usb_device.c: 3038:     if(USBBusIsSuspended == 0)
  5899  0034D6  0100               	movlb	0	; () banked
  5900  0034D8  51F5               	movf	_USBBusIsSuspended& (0+255),w,b	;volatile
  5901  0034DA  A4D8               	btfss	status,2,c
  5902  0034DC  EF72  F01A         	goto	i2u400_41
  5903  0034E0  EF74  F01A         	goto	i2u400_40
  5904  0034E4                     i2u400_41:
  5905  0034E4  EF7E  F01A         	goto	i2l600
  5906  0034E8                     i2u400_40:
  5907  0034E8                     
  5908                           ; BSR set to: 0
  5909                           ;mcc_generated_files/usb/usb_device.c: 3039:     {;mcc_generated_files/usb/usb_device.c:
      +                           3040:         USBTicksSinceSuspendEnd++;
  5910  0034E8  2BF4               	incf	_USBTicksSinceSuspendEnd& (0+255),f,b	;volatile
  5911  0034EA                     
  5912                           ; BSR set to: 0
  5913                           ;mcc_generated_files/usb/usb_device.c: 3042:         if(USBTicksSinceSuspendEnd == 0)
  5914  0034EA  51F4               	movf	_USBTicksSinceSuspendEnd& (0+255),w,b	;volatile
  5915  0034EC  A4D8               	btfss	status,2,c
  5916  0034EE  EF7B  F01A         	goto	i2u401_41
  5917  0034F2  EF7D  F01A         	goto	i2u401_40
  5918  0034F6                     i2u401_41:
  5919  0034F6  EF7E  F01A         	goto	i2l600
  5920  0034FA                     i2u401_40:
  5921  0034FA                     
  5922                           ; BSR set to: 0
  5923                           ;mcc_generated_files/usb/usb_device.c: 3043:         {;mcc_generated_files/usb/usb_devic
      +                          e.c: 3044:             USBTicksSinceSuspendEnd = 255;
  5924  0034FA  69F4               	setf	_USBTicksSinceSuspendEnd& (0+255),b	;volatile
  5925  0034FC                     i2l600:
  5926                           
  5927                           ; BSR set to: 0
  5928  0034FC  0012               	return		;funcret
  5929  0034FE                     __end_of_USBIncrement1msInternalTimers:
  5930                           	callstack 0
  5931                           
  5932 ;; *************** function _USBCtrlEPService *****************
  5933 ;; Defined at:
  5934 ;;		line 2376 in file "mcc_generated_files/usb/usb_device.c"
  5935 ;; Parameters:    Size  Location     Type
  5936 ;;		None
  5937 ;; Auto vars:     Size  Location     Type
  5938 ;;		None
  5939 ;; Return value:  Size  Location     Type
  5940 ;;                  1    wreg      void 
  5941 ;; Registers used:
  5942 ;;		wreg, fsr0l, fsr0h, fsr1l, fsr1h, fsr2l, fsr2h, status,2, status,0, tblptrl, tblptrh, tblptru, prodl, prodh, cstack
  5943 ;; Tracked objects:
  5944 ;;		On entry : 0/0
  5945 ;;		On exit  : 0/0
  5946 ;;		Unchanged: 0/0
  5947 ;; Data sizes:     COMRAM   BANK0   BANK1   BANK2   BANK3   BANK4   BANK5   BANK6   BANK7
  5948 ;;      Params:         0       0       0       0       0       0       0       0       0
  5949 ;;      Locals:         0       0       0       0       0       0       0       0       0
  5950 ;;      Temps:          1       0       0       0       0       0       0       0       0
  5951 ;;      Totals:         1       0       0       0       0       0       0       0       0
  5952 ;;Total ram usage:        1 bytes
  5953 ;; Hardware stack levels used: 1
  5954 ;; Hardware stack levels required when called: 7
  5955 ;; This function calls:
  5956 ;;		_USBCtrlTrfInHandler
  5957 ;;		_USBCtrlTrfOutHandler
  5958 ;;		_USBCtrlTrfSetupHandler
  5959 ;;		_memcpy
  5960 ;; This function is called by:
  5961 ;;		_USBDeviceTasks
  5962 ;; This function uses a non-reentrant model
  5963 ;;
  5964                           
  5965                           	psect	text30
  5966  002D1C                     __ptext30:
  5967                           	callstack 0
  5968  002D1C                     _USBCtrlEPService:
  5969                           	callstack 13
  5970  002D1C                     
  5971                           ;mcc_generated_files/usb/usb_device.c: 2382:         USBStatusStageTimeoutCounter = (uin
      +                          t8_t)45;
  5972  002D1C  0E2D               	movlw	45
  5973  002D1E  6E4A               	movwf	_USBStatusStageTimeoutCounter^0,c	;volatile
  5974  002D20                     
  5975                           ;mcc_generated_files/usb/usb_device.c: 2386:     if((USTATcopy.Val & ~0x02) == 0x00)
  5976  002D20  C053  F01E         	movff	_USTATcopy,??_USBCtrlEPService	;volatile
  5977  002D24  0EFD               	movlw	253
  5978  002D26  161E               	andwf	??_USBCtrlEPService^0,f,c
  5979  002D28  A4D8               	btfss	status,2,c
  5980  002D2A  EF99  F016         	goto	i2u405_41
  5981  002D2E  EF9B  F016         	goto	i2u405_40
  5982  002D32                     i2u405_41:
  5983  002D32  EFDD  F016         	goto	i2l5608
  5984  002D36                     i2u405_40:
  5985  002D36                     
  5986                           ;mcc_generated_files/usb/usb_device.c: 2387:     {;mcc_generated_files/usb/usb_device.c:
      +                           2390:             pBDTEntryEP0OutCurrent = (volatile BDT_ENTRY*)&BDT[(USTATcopy.Val & 0
      +                          x7E)>>1];
  5987  002D36  C053  F01E         	movff	_USTATcopy,??_USBCtrlEPService	;volatile
  5988  002D3A  90D8               	bcf	status,0,c
  5989  002D3C  321E               	rrcf	??_USBCtrlEPService^0,f,c
  5990  002D3E  0E3F               	movlw	63
  5991  002D40  161E               	andwf	??_USBCtrlEPService^0,f,c
  5992  002D42  501E               	movf	??_USBCtrlEPService^0,w,c
  5993  002D44  0D04               	mullw	4
  5994  002D46  0E00               	movlw	0
  5995  002D48  24F3               	addwf	243,w,c
  5996  002D4A  6E40               	movwf	_pBDTEntryEP0OutCurrent^0,c
  5997  002D4C  0E04               	movlw	4
  5998  002D4E  20F4               	addwfc	prodh,w,c
  5999  002D50  6E41               	movwf	(_pBDTEntryEP0OutCurrent+1)^0,c
  6000  002D52                     
  6001                           ;mcc_generated_files/usb/usb_device.c: 2398:         pBDTEntryEP0OutNext = pBDTEntryEP0O
      +                          utCurrent;
  6002  002D52  C040  F03E         	movff	_pBDTEntryEP0OutCurrent,_pBDTEntryEP0OutNext
  6003  002D56  C041  F03F         	movff	_pBDTEntryEP0OutCurrent+1,_pBDTEntryEP0OutNext+1
  6004  002D5A                     
  6005                           ;mcc_generated_files/usb/usb_device.c: 2400:         pBDTEntryEP0OutNext = (volatile BDT
      +                          _ENTRY*)(((uint16_t)pBDTEntryEP0OutNext) ^ 0x0004);
  6006  002D5A  0E04               	movlw	4
  6007  002D5C  183E               	xorwf	_pBDTEntryEP0OutNext^0,w,c
  6008  002D5E  6E3E               	movwf	_pBDTEntryEP0OutNext^0,c
  6009  002D60  503F               	movf	(_pBDTEntryEP0OutNext+1)^0,w,c
  6010  002D62  6E3F               	movwf	(_pBDTEntryEP0OutNext+1)^0,c
  6011  002D64                     
  6012                           ;mcc_generated_files/usb/usb_device.c: 2403:         if(pBDTEntryEP0OutCurrent->STAT.PID
      +                           == 0xD)
  6013  002D64  C040  FFD9         	movff	_pBDTEntryEP0OutCurrent,fsr2l
  6014  002D68  C041  FFDA         	movff	_pBDTEntryEP0OutCurrent+1,fsr2h
  6015  002D6C  30DF               	rrcf	223,w,c
  6016  002D6E  32E8               	rrcf	wreg,f,c
  6017  002D70  0B0F               	andlw	15
  6018  002D72  0A0D               	xorlw	13
  6019  002D74  A4D8               	btfss	status,2,c
  6020  002D76  EFBF  F016         	goto	i2u406_41
  6021  002D7A  EFC1  F016         	goto	i2u406_40
  6022  002D7E                     i2u406_41:
  6023  002D7E  EFD9  F016         	goto	i2l5606
  6024  002D82                     i2u406_40:
  6025  002D82                     
  6026                           ;mcc_generated_files/usb/usb_device.c: 2404:         {;mcc_generated_files/usb/usb_devic
      +                          e.c: 2409:             memcpy((uint8_t*)&SetupPkt, (uint8_t*)((void *)(pBDTEntryEP0OutCu
      +                          rrent->ADR)), 8);
  6027  002D82  0E30               	movlw	48
  6028  002D84  6E01               	movwf	memcpy@d1^0,c
  6029  002D86  0E04               	movlw	4
  6030  002D88  6E02               	movwf	(memcpy@d1+1)^0,c
  6031  002D8A  EE20 F002          	lfsr	2,2
  6032  002D8E  5040               	movf	_pBDTEntryEP0OutCurrent^0,w,c
  6033  002D90  26D9               	addwf	fsr2l,f,c
  6034  002D92  5041               	movf	(_pBDTEntryEP0OutCurrent+1)^0,w,c
  6035  002D94  22DA               	addwfc	fsr2h,f,c
  6036  002D96  CFDE F003          	movff	postinc2,memcpy@s1
  6037  002D9A  CFDD F004          	movff	postdec2,memcpy@s1+1
  6038  002D9E  0E00               	movlw	0
  6039  002DA0  6E06               	movwf	(memcpy@n+1)^0,c
  6040  002DA2  0E08               	movlw	8
  6041  002DA4  6E05               	movwf	memcpy@n^0,c
  6042  002DA6  EC54  F019         	call	_memcpy	;wreg free
  6043  002DAA                     
  6044                           ;mcc_generated_files/usb/usb_device.c: 2412:             USBCtrlTrfSetupHandler();
  6045  002DAA  EC9A  F017         	call	_USBCtrlTrfSetupHandler	;wreg free
  6046                           
  6047                           ;mcc_generated_files/usb/usb_device.c: 2413:         }
  6048  002DAE  EFE9  F016         	goto	i2l527
  6049  002DB2                     i2l5606:
  6050                           
  6051                           ;mcc_generated_files/usb/usb_device.c: 2415:         {;mcc_generated_files/usb/usb_devic
      +                          e.c: 2417:             USBCtrlTrfOutHandler();
  6052  002DB2  EC26  F018         	call	_USBCtrlTrfOutHandler	;wreg free
  6053  002DB6  EFE9  F016         	goto	i2l527
  6054  002DBA                     i2l5608:
  6055  002DBA  5053               	movf	_USTATcopy^0,w,c	;volatile
  6056  002DBC  0BFD               	andlw	253
  6057  002DBE  0A04               	xorlw	4
  6058  002DC0  A4D8               	btfss	status,2,c
  6059  002DC2  EFE5  F016         	goto	i2u407_41
  6060  002DC6  EFE7  F016         	goto	i2u407_40
  6061  002DCA                     i2u407_41:
  6062  002DCA  EFE9  F016         	goto	i2l527
  6063  002DCE                     i2u407_40:
  6064  002DCE                     
  6065                           ;mcc_generated_files/usb/usb_device.c: 2421:     {;mcc_generated_files/usb/usb_device.c:
      +                           2424:         USBCtrlTrfInHandler();
  6066  002DCE  ECEC  F013         	call	_USBCtrlTrfInHandler	;wreg free
  6067  002DD2                     i2l527:
  6068  002DD2  0012               	return		;funcret
  6069  002DD4                     __end_of_USBCtrlEPService:
  6070                           	callstack 0
  6071                           
  6072 ;; *************** function _memcpy *****************
  6073 ;; Defined at:
  6074 ;;		line 4 in file "/Applications/microchip/xc8/v2.35/pic/sources/c99/common/memcpy.c"
  6075 ;; Parameters:    Size  Location     Type
  6076 ;;  d1              2    0[COMRAM] PTR void 
  6077 ;;		 -> SetupPkt(8), 
  6078 ;;  s1              2    2[COMRAM] PTR const void 
  6079 ;;		 -> CtrlTrfData(8), RAM(2047), SetupPkt(8), 
  6080 ;;  n               2    4[COMRAM] unsigned int 
  6081 ;; Auto vars:     Size  Location     Type
  6082 ;;  s               2    8[COMRAM] PTR const unsigned char 
  6083 ;;		 -> CtrlTrfData(8), RAM(2047), SetupPkt(8), 
  6084 ;;  d               2    6[COMRAM] PTR unsigned char 
  6085 ;;		 -> SetupPkt(8), 
  6086 ;;  tmp             1   10[COMRAM] unsigned char 
  6087 ;; Return value:  Size  Location     Type
  6088 ;;                  2    0[COMRAM] PTR void 
  6089 ;; Registers used:
  6090 ;;		wreg, fsr2l, fsr2h, status,2, status,0
  6091 ;; Tracked objects:
  6092 ;;		On entry : 0/0
  6093 ;;		On exit  : 0/0
  6094 ;;		Unchanged: 0/0
  6095 ;; Data sizes:     COMRAM   BANK0   BANK1   BANK2   BANK3   BANK4   BANK5   BANK6   BANK7
  6096 ;;      Params:         6       0       0       0       0       0       0       0       0
  6097 ;;      Locals:         5       0       0       0       0       0       0       0       0
  6098 ;;      Temps:          0       0       0       0       0       0       0       0       0
  6099 ;;      Totals:        11       0       0       0       0       0       0       0       0
  6100 ;;Total ram usage:       11 bytes
  6101 ;; Hardware stack levels used: 1
  6102 ;; This function calls:
  6103 ;;		Nothing
  6104 ;; This function is called by:
  6105 ;;		_USBCtrlEPService
  6106 ;; This function uses a non-reentrant model
  6107 ;;
  6108                           
  6109                           	psect	text31
  6110  0032A8                     __ptext31:
  6111                           	callstack 0
  6112  0032A8                     _memcpy:
  6113                           	callstack 19
  6114  0032A8  C003  F009         	movff	memcpy@s1,memcpy@s
  6115  0032AC  C004  F00A         	movff	memcpy@s1+1,memcpy@s+1
  6116  0032B0  C001  F007         	movff	memcpy@d1,memcpy@d
  6117  0032B4  C002  F008         	movff	memcpy@d1+1,memcpy@d+1
  6118  0032B8  EF6E  F019         	goto	i2l5326
  6119  0032BC                     i2l5318:
  6120  0032BC  C009  FFD9         	movff	memcpy@s,fsr2l
  6121  0032C0  C00A  FFDA         	movff	memcpy@s+1,fsr2h
  6122  0032C4  50DF               	movf	indf2,w,c
  6123  0032C6  6E0B               	movwf	memcpy@tmp^0,c
  6124  0032C8  4A09               	infsnz	memcpy@s^0,f,c
  6125  0032CA  2A0A               	incf	(memcpy@s+1)^0,f,c
  6126  0032CC  C007  FFD9         	movff	memcpy@d,fsr2l
  6127  0032D0  C008  FFDA         	movff	memcpy@d+1,fsr2h
  6128  0032D4  C00B  FFDF         	movff	memcpy@tmp,indf2
  6129  0032D8  4A07               	infsnz	memcpy@d^0,f,c
  6130  0032DA  2A08               	incf	(memcpy@d+1)^0,f,c
  6131  0032DC                     i2l5326:
  6132  0032DC  0605               	decf	memcpy@n^0,f,c
  6133  0032DE  A0D8               	btfss	status,0,c
  6134  0032E0  0606               	decf	(memcpy@n+1)^0,f,c
  6135  0032E2  2805               	incf	memcpy@n^0,w,c
  6136  0032E4  E106               	bnz	i2u381_41
  6137  0032E6  2806               	incf	(memcpy@n+1)^0,w,c
  6138  0032E8  A4D8               	btfss	status,2,c
  6139  0032EA  EF79  F019         	goto	i2u381_41
  6140  0032EE  EF7B  F019         	goto	i2u381_40
  6141  0032F2                     i2u381_41:
  6142  0032F2  EF5E  F019         	goto	i2l5318
  6143  0032F6                     i2u381_40:
  6144  0032F6  0012               	return		;funcret
  6145  0032F8                     __end_of_memcpy:
  6146                           	callstack 0
  6147                           
  6148 ;; *************** function _USBCtrlTrfSetupHandler *****************
  6149 ;; Defined at:
  6150 ;;		line 2469 in file "mcc_generated_files/usb/usb_device.c"
  6151 ;; Parameters:    Size  Location     Type
  6152 ;;		None
  6153 ;; Auto vars:     Size  Location     Type
  6154 ;;		None
  6155 ;; Return value:  Size  Location     Type
  6156 ;;                  1    wreg      void 
  6157 ;; Registers used:
  6158 ;;		wreg, fsr0l, fsr0h, fsr2l, fsr2h, status,2, status,0, tblptrl, tblptrh, tblptru, prodl, prodh, cstack
  6159 ;; Tracked objects:
  6160 ;;		On entry : 0/0
  6161 ;;		On exit  : 0/0
  6162 ;;		Unchanged: 0/0
  6163 ;; Data sizes:     COMRAM   BANK0   BANK1   BANK2   BANK3   BANK4   BANK5   BANK6   BANK7
  6164 ;;      Params:         0       0       0       0       0       0       0       0       0
  6165 ;;      Locals:         0       0       0       0       0       0       0       0       0
  6166 ;;      Temps:          0       0       0       0       0       0       0       0       0
  6167 ;;      Totals:         0       0       0       0       0       0       0       0       0
  6168 ;;Total ram usage:        0 bytes
  6169 ;; Hardware stack levels used: 1
  6170 ;; Hardware stack levels required when called: 6
  6171 ;; This function calls:
  6172 ;;		_USBCheckStdRequest
  6173 ;;		_USBCtrlEPServiceComplete
  6174 ;;		_USER_USB_CALLBACK_EVENT_HANDLER
  6175 ;; This function is called by:
  6176 ;;		_USBCtrlEPService
  6177 ;; This function uses a non-reentrant model
  6178 ;;
  6179                           
  6180                           	psect	text32
  6181  002F34                     __ptext32:
  6182                           	callstack 0
  6183  002F34                     _USBCtrlTrfSetupHandler:
  6184                           	callstack 13
  6185  002F34                     
  6186                           ;mcc_generated_files/usb/usb_device.c: 2474:     shortPacketStatus = 0;
  6187  002F34  0E00               	movlw	0
  6188  002F36  6E4F               	movwf	_shortPacketStatus^0,c	;volatile
  6189                           
  6190                           ;mcc_generated_files/usb/usb_device.c: 2475:     USBDeferStatusStagePacket = 0;
  6191  002F38  0E00               	movlw	0
  6192  002F3A  6E49               	movwf	_USBDeferStatusStagePacket^0,c	;volatile
  6193                           
  6194                           ;mcc_generated_files/usb/usb_device.c: 2476:     USBDeferINDataStagePackets = 0;
  6195  002F3C  0E00               	movlw	0
  6196  002F3E  6E46               	movwf	_USBDeferINDataStagePackets^0,c	;volatile
  6197                           
  6198                           ;mcc_generated_files/usb/usb_device.c: 2477:     USBDeferOUTDataStagePackets = 0;
  6199  002F40  0E00               	movlw	0
  6200  002F42  6E45               	movwf	_USBDeferOUTDataStagePackets^0,c	;volatile
  6201                           
  6202                           ;mcc_generated_files/usb/usb_device.c: 2478:     BothEP0OutUOWNsSet = 0;
  6203  002F44  0E00               	movlw	0
  6204  002F46  6E4B               	movwf	_BothEP0OutUOWNsSet^0,c	;volatile
  6205                           
  6206                           ;mcc_generated_files/usb/usb_device.c: 2479:     controlTransferState = 0;
  6207  002F48  0E00               	movlw	0
  6208  002F4A  6E4E               	movwf	_controlTransferState^0,c	;volatile
  6209  002F4C                     
  6210                           ;mcc_generated_files/usb/usb_device.c: 2488:     pBDTEntryIn[0]->STAT.Val &= ~(0x80);
  6211  002F4C  C0DA  FFD9         	movff	_pBDTEntryIn,fsr2l
  6212  002F50  C0DB  FFDA         	movff	_pBDTEntryIn+1,fsr2h
  6213  002F54  0E7F               	movlw	127
  6214  002F56  16DF               	andwf	indf2,f,c
  6215  002F58                     
  6216                           ;mcc_generated_files/usb/usb_device.c: 2490:     pBDTEntryIn[0] = (volatile BDT_ENTRY*)(
      +                          ((uint16_t)pBDTEntryIn[0]) ^ 0x0004);
  6217  002F58  0E04               	movlw	4
  6218  002F5A  0100               	movlb	0	; () banked
  6219  002F5C  19DA               	xorwf	_pBDTEntryIn& (0+255),w,b
  6220  002F5E  6FDA               	movwf	_pBDTEntryIn& (0+255),b
  6221  002F60  51DB               	movf	(_pBDTEntryIn+1)& (0+255),w,b
  6222  002F62  6FDB               	movwf	(_pBDTEntryIn+1)& (0+255),b
  6223  002F64                     
  6224                           ; BSR set to: 0
  6225                           ;mcc_generated_files/usb/usb_device.c: 2491:     pBDTEntryIn[0]->STAT.Val &= ~(0x80);
  6226  002F64  C0DA  FFD9         	movff	_pBDTEntryIn,fsr2l
  6227  002F68  C0DB  FFDA         	movff	_pBDTEntryIn+1,fsr2h
  6228  002F6C  0E7F               	movlw	127
  6229  002F6E  16DF               	andwf	indf2,f,c
  6230  002F70                     
  6231                           ; BSR set to: 0
  6232                           ;mcc_generated_files/usb/usb_device.c: 2492:     pBDTEntryIn[0] = (volatile BDT_ENTRY*)(
      +                          ((uint16_t)pBDTEntryIn[0]) ^ 0x0004);
  6233  002F70  0E04               	movlw	4
  6234  002F72  19DA               	xorwf	_pBDTEntryIn& (0+255),w,b
  6235  002F74  6FDA               	movwf	_pBDTEntryIn& (0+255),b
  6236  002F76  51DB               	movf	(_pBDTEntryIn+1)& (0+255),w,b
  6237  002F78  6FDB               	movwf	(_pBDTEntryIn+1)& (0+255),b
  6238  002F7A                     
  6239                           ; BSR set to: 0
  6240                           ;mcc_generated_files/usb/usb_device.c: 2493:     pBDTEntryEP0OutNext->STAT.Val &= ~(0x80
      +                          );
  6241  002F7A  C03E  FFD9         	movff	_pBDTEntryEP0OutNext,fsr2l
  6242  002F7E  C03F  FFDA         	movff	_pBDTEntryEP0OutNext+1,fsr2h
  6243  002F82  0E7F               	movlw	127
  6244  002F84  16DF               	andwf	indf2,f,c
  6245  002F86                     
  6246                           ; BSR set to: 0
  6247                           ;mcc_generated_files/usb/usb_device.c: 2495:     inPipes[0].info.Val = 0;
  6248  002F86  0E00               	movlw	0
  6249  002F88  6FD7               	movwf	(_inPipes+3)& (0+255),b	;volatile
  6250  002F8A                     
  6251                           ; BSR set to: 0
  6252                           ;mcc_generated_files/usb/usb_device.c: 2496:     inPipes[0].wCount.Val = 0;
  6253  002F8A  0E00               	movlw	0
  6254  002F8C  6FD9               	movwf	(_inPipes+5)& (0+255),b	;volatile
  6255  002F8E  0E00               	movlw	0
  6256  002F90  6FD8               	movwf	(_inPipes+4)& (0+255),b	;volatile
  6257  002F92                     
  6258                           ; BSR set to: 0
  6259                           ;mcc_generated_files/usb/usb_device.c: 2497:     outPipes[0].info.Val = 0;
  6260  002F92  0E00               	movlw	0
  6261  002F94  6FCF               	movwf	(_outPipes+3)& (0+255),b	;volatile
  6262  002F96                     
  6263                           ; BSR set to: 0
  6264                           ;mcc_generated_files/usb/usb_device.c: 2498:     outPipes[0].wCount.Val = 0;
  6265  002F96  0E00               	movlw	0
  6266  002F98  6FD1               	movwf	(_outPipes+5)& (0+255),b	;volatile
  6267  002F9A  0E00               	movlw	0
  6268  002F9C  6FD0               	movwf	(_outPipes+4)& (0+255),b	;volatile
  6269  002F9E                     
  6270                           ; BSR set to: 0
  6271                           ;mcc_generated_files/usb/usb_device.c: 2504:     USBCheckStdRequest();
  6272  002F9E  ECC4  F011         	call	_USBCheckStdRequest	;wreg free
  6273  002FA2                     
  6274                           ;mcc_generated_files/usb/usb_device.c: 2505:     USER_USB_CALLBACK_EVENT_HANDLER((USB_EV
      +                          ENT)EVENT_EP0_REQUEST,0,0);
  6275  002FA2  0E00               	movlw	0
  6276  002FA4  6E0E               	movwf	(USER_USB_CALLBACK_EVENT_HANDLER@event+1)^0,c
  6277  002FA6  0E03               	movlw	3
  6278  002FA8  6E0D               	movwf	USER_USB_CALLBACK_EVENT_HANDLER@event^0,c
  6279  002FAA  0E00               	movlw	0
  6280  002FAC  6E0F               	movwf	USER_USB_CALLBACK_EVENT_HANDLER@pdata^0,c
  6281  002FAE  0E00               	movlw	0
  6282  002FB0  6E10               	movwf	(USER_USB_CALLBACK_EVENT_HANDLER@pdata+1)^0,c
  6283  002FB2  0E00               	movlw	0
  6284  002FB4  6E12               	movwf	(USER_USB_CALLBACK_EVENT_HANDLER@size+1)^0,c
  6285  002FB6  0E00               	movlw	0
  6286  002FB8  6E11               	movwf	USER_USB_CALLBACK_EVENT_HANDLER@size^0,c
  6287  002FBA  ECE2  F017         	call	_USER_USB_CALLBACK_EVENT_HANDLER	;wreg free
  6288  002FBE                     
  6289                           ;mcc_generated_files/usb/usb_device.c: 2518:     USBCtrlEPServiceComplete();
  6290  002FBE  EC84  F010         	call	_USBCtrlEPServiceComplete	;wreg free
  6291  002FC2  0012               	return		;funcret
  6292  002FC4                     __end_of_USBCtrlTrfSetupHandler:
  6293                           	callstack 0
  6294                           
  6295 ;; *************** function _USBCtrlEPServiceComplete *****************
  6296 ;; Defined at:
  6297 ;;		line 1620 in file "mcc_generated_files/usb/usb_device.c"
  6298 ;; Parameters:    Size  Location     Type
  6299 ;;		None
  6300 ;; Auto vars:     Size  Location     Type
  6301 ;;		None
  6302 ;; Return value:  Size  Location     Type
  6303 ;;                  1    wreg      void 
  6304 ;; Registers used:
  6305 ;;		wreg, fsr0l, fsr0h, fsr2l, fsr2h, status,2, status,0, tblptrl, tblptrh, tblptru, cstack
  6306 ;; Tracked objects:
  6307 ;;		On entry : 0/0
  6308 ;;		On exit  : 0/0
  6309 ;;		Unchanged: 0/0
  6310 ;; Data sizes:     COMRAM   BANK0   BANK1   BANK2   BANK3   BANK4   BANK5   BANK6   BANK7
  6311 ;;      Params:         0       0       0       0       0       0       0       0       0
  6312 ;;      Locals:         0       0       0       0       0       0       0       0       0
  6313 ;;      Temps:          0       0       0       0       0       0       0       0       0
  6314 ;;      Totals:         0       0       0       0       0       0       0       0       0
  6315 ;;Total ram usage:        0 bytes
  6316 ;; Hardware stack levels used: 1
  6317 ;; Hardware stack levels required when called: 2
  6318 ;; This function calls:
  6319 ;;		_USBCtrlEPAllowDataStage
  6320 ;;		_USBCtrlEPAllowStatusStage
  6321 ;; This function is called by:
  6322 ;;		_USBCtrlTrfSetupHandler
  6323 ;; This function uses a non-reentrant model
  6324 ;;
  6325                           
  6326                           	psect	text33
  6327  002108                     __ptext33:
  6328                           	callstack 0
  6329  002108                     _USBCtrlEPServiceComplete:
  6330                           	callstack 16
  6331  002108                     
  6332                           ;mcc_generated_files/usb/usb_device.c: 1626:     UCONbits.PKTDIS = 0;
  6333  002108  9860               	bcf	96,4,c	;volatile
  6334                           
  6335                           ;mcc_generated_files/usb/usb_device.c: 1632:     if(inPipes[0].info.bits.busy == 0)
  6336  00210A  0100               	movlb	0	; () banked
  6337  00210C  BFD7               	btfsc	(_inPipes+3)& (0+255),7,b	;volatile
  6338  00210E  EF8B  F010         	goto	i2u348_41
  6339  002112  EF8D  F010         	goto	i2u348_40
  6340  002116                     i2u348_41:
  6341  002116  EFD2  F010         	goto	i2l432
  6342  00211A                     i2u348_40:
  6343  00211A                     
  6344                           ; BSR set to: 0
  6345                           ;mcc_generated_files/usb/usb_device.c: 1633:     {;mcc_generated_files/usb/usb_device.c:
      +                           1634:         if(outPipes[0].info.bits.busy == 1)
  6346  00211A  AFCF               	btfss	(_outPipes+3)& (0+255),7,b	;volatile
  6347  00211C  EF92  F010         	goto	i2u349_41
  6348  002120  EF94  F010         	goto	i2u349_40
  6349  002124                     i2u349_41:
  6350  002124  EFA6  F010         	goto	i2l5096
  6351  002128                     i2u349_40:
  6352  002128                     
  6353                           ; BSR set to: 0
  6354                           ;mcc_generated_files/usb/usb_device.c: 1635:         {;mcc_generated_files/usb/usb_devic
      +                          e.c: 1636:             controlTransferState = 2;
  6355  002128  0E02               	movlw	2
  6356  00212A  6E4E               	movwf	_controlTransferState^0,c	;volatile
  6357                           
  6358                           ;mcc_generated_files/usb/usb_device.c: 1647:             if(USBDeferOUTDataStagePackets 
      +                          == 0)
  6359  00212C  5045               	movf	_USBDeferOUTDataStagePackets^0,w,c	;volatile
  6360  00212E  A4D8               	btfss	status,2,c
  6361  002130  EF9C  F010         	goto	i2u350_41
  6362  002134  EF9E  F010         	goto	i2u350_40
  6363  002138                     i2u350_41:
  6364  002138  EFA0  F010         	goto	i2l5092
  6365  00213C                     i2u350_40:
  6366  00213C                     
  6367                           ; BSR set to: 0
  6368                           ;mcc_generated_files/usb/usb_device.c: 1648:             {;mcc_generated_files/usb/usb_d
      +                          evice.c: 1649:                 USBCtrlEPAllowDataStage();
  6369  00213C  ECEA  F016         	call	_USBCtrlEPAllowDataStage	;wreg free
  6370  002140                     i2l5092:
  6371                           
  6372                           ;mcc_generated_files/usb/usb_device.c: 1654:             USBStatusStageEnabledFlag2 = 0;
  6373  002140  0E00               	movlw	0
  6374  002142  6E47               	movwf	_USBStatusStageEnabledFlag2^0,c	;volatile
  6375  002144                     
  6376                           ;mcc_generated_files/usb/usb_device.c: 1655:             USBStatusStageEnabledFlag1 = 0;
  6377  002144  0E00               	movlw	0
  6378  002146  6E48               	movwf	_USBStatusStageEnabledFlag1^0,c	;volatile
  6379                           
  6380                           ;mcc_generated_files/usb/usb_device.c: 1656:         }
  6381  002148  EF24  F011         	goto	i2l442
  6382  00214C                     i2l5096:
  6383                           
  6384                           ; BSR set to: 0
  6385                           ;mcc_generated_files/usb/usb_device.c: 1658:         {;mcc_generated_files/usb/usb_devic
      +                          e.c: 1663:             pBDTEntryEP0OutNext->CNT = 8;
  6386  00214C  EE20 F001          	lfsr	2,1
  6387  002150  503E               	movf	_pBDTEntryEP0OutNext^0,w,c
  6388  002152  26D9               	addwf	fsr2l,f,c
  6389  002154  503F               	movf	(_pBDTEntryEP0OutNext+1)^0,w,c
  6390  002156  22DA               	addwfc	fsr2h,f,c
  6391  002158  0E08               	movlw	8
  6392  00215A  6EDF               	movwf	indf2,c
  6393                           
  6394                           ;mcc_generated_files/usb/usb_device.c: 1664:             pBDTEntryEP0OutNext->ADR = ((ui
      +                          nt16_t)(&SetupPkt));
  6395  00215C  EE20 F002          	lfsr	2,2
  6396  002160  503E               	movf	_pBDTEntryEP0OutNext^0,w,c
  6397  002162  26D9               	addwf	fsr2l,f,c
  6398  002164  503F               	movf	(_pBDTEntryEP0OutNext+1)^0,w,c
  6399  002166  22DA               	addwfc	fsr2h,f,c
  6400  002168  0E30               	movlw	48
  6401  00216A  6EDE               	movwf	postinc2,c
  6402  00216C  0E04               	movlw	4
  6403  00216E  6EDD               	movwf	postdec2,c
  6404  002170                     
  6405                           ; BSR set to: 0
  6406                           ;mcc_generated_files/usb/usb_device.c: 1665:             pBDTEntryEP0OutNext->STAT.Val =
      +                           0x00|(0x08 & 0x08)|0x04;
  6407  002170  C03E  FFD9         	movff	_pBDTEntryEP0OutNext,fsr2l
  6408  002174  C03F  FFDA         	movff	_pBDTEntryEP0OutNext+1,fsr2h
  6409  002178  0E0C               	movlw	12
  6410  00217A  6EDF               	movwf	indf2,c
  6411  00217C                     
  6412                           ; BSR set to: 0
  6413                           ;mcc_generated_files/usb/usb_device.c: 1666:             pBDTEntryEP0OutNext->STAT.Val |
      +                          = 0x80;
  6414  00217C  C03E  FFD9         	movff	_pBDTEntryEP0OutNext,fsr2l
  6415  002180  C03F  FFDA         	movff	_pBDTEntryEP0OutNext+1,fsr2h
  6416  002184  0E00               	movlw	0
  6417  002186  8EDB               	bsf	plusw2,7,c
  6418                           
  6419                           ;mcc_generated_files/usb/usb_device.c: 1667:             pBDTEntryIn[0]->STAT.Val = 0x04
      +                          ;
  6420  002188  C0DA  FFD9         	movff	_pBDTEntryIn,fsr2l
  6421  00218C  C0DB  FFDA         	movff	_pBDTEntryIn+1,fsr2h
  6422  002190  0E04               	movlw	4
  6423  002192  6EDF               	movwf	indf2,c
  6424  002194                     
  6425                           ; BSR set to: 0
  6426                           ;mcc_generated_files/usb/usb_device.c: 1668:             pBDTEntryIn[0]->STAT.Val |= 0x8
      +                          0;
  6427  002194  C0DA  FFD9         	movff	_pBDTEntryIn,fsr2l
  6428  002198  C0DB  FFDA         	movff	_pBDTEntryIn+1,fsr2h
  6429  00219C  0E00               	movlw	0
  6430  00219E  8EDB               	bsf	plusw2,7,c
  6431  0021A0  EF24  F011         	goto	i2l442
  6432  0021A4                     i2l432:
  6433                           
  6434                           ; BSR set to: 0
  6435                           ;mcc_generated_files/usb/usb_device.c: 1672:     {;mcc_generated_files/usb/usb_device.c:
      +                           1673:   if(SetupPkt.DataDir == (0x80>>7))
  6436  0021A4  0104               	movlb	4	; () banked
  6437  0021A6  AF30               	btfss	48,7,b	;volatile
  6438  0021A8  EFD8  F010         	goto	i2u351_41
  6439  0021AC  EFDA  F010         	goto	i2u351_40
  6440  0021B0                     i2u351_41:
  6441  0021B0  EFF6  F010         	goto	i2l5116
  6442  0021B4                     i2u351_40:
  6443  0021B4                     
  6444                           ; BSR set to: 4
  6445                           ;mcc_generated_files/usb/usb_device.c: 1674:   {;mcc_generated_files/usb/usb_device.c: 1
      +                          675:    controlTransferState = 1;
  6446  0021B4  0E01               	movlw	1
  6447  0021B6  6E4E               	movwf	_controlTransferState^0,c	;volatile
  6448                           
  6449                           ;mcc_generated_files/usb/usb_device.c: 1689:    if(USBDeferINDataStagePackets == 0)
  6450  0021B8  5046               	movf	_USBDeferINDataStagePackets^0,w,c	;volatile
  6451  0021BA  A4D8               	btfss	status,2,c
  6452  0021BC  EFE2  F010         	goto	i2u352_41
  6453  0021C0  EFE4  F010         	goto	i2u352_40
  6454  0021C4                     i2u352_41:
  6455  0021C4  EFE6  F010         	goto	i2l5108
  6456  0021C8                     i2u352_40:
  6457  0021C8                     
  6458                           ; BSR set to: 4
  6459                           ;mcc_generated_files/usb/usb_device.c: 1690:             {;mcc_generated_files/usb/usb_d
      +                          evice.c: 1691:                 USBCtrlEPAllowDataStage();
  6460  0021C8  ECEA  F016         	call	_USBCtrlEPAllowDataStage	;wreg free
  6461  0021CC                     i2l5108:
  6462                           
  6463                           ;mcc_generated_files/usb/usb_device.c: 1714:             USBStatusStageEnabledFlag2 = 0;
  6464  0021CC  0E00               	movlw	0
  6465  0021CE  6E47               	movwf	_USBStatusStageEnabledFlag2^0,c	;volatile
  6466  0021D0                     
  6467                           ;mcc_generated_files/usb/usb_device.c: 1715:             USBStatusStageEnabledFlag1 = 0;
  6468  0021D0  0E00               	movlw	0
  6469  0021D2  6E48               	movwf	_USBStatusStageEnabledFlag1^0,c	;volatile
  6470  0021D4                     
  6471                           ;mcc_generated_files/usb/usb_device.c: 1716:             if(USBDeferStatusStagePacket ==
      +                           0)
  6472  0021D4  5049               	movf	_USBDeferStatusStagePacket^0,w,c	;volatile
  6473  0021D6  A4D8               	btfss	status,2,c
  6474  0021D8  EFF0  F010         	goto	i2u353_41
  6475  0021DC  EFF2  F010         	goto	i2u353_40
  6476  0021E0                     i2u353_41:
  6477  0021E0  EF24  F011         	goto	i2l442
  6478  0021E4                     i2u353_40:
  6479  0021E4                     i2l5114:
  6480                           
  6481                           ;mcc_generated_files/usb/usb_device.c: 1717:             {;mcc_generated_files/usb/usb_d
      +                          evice.c: 1718:                 USBCtrlEPAllowStatusStage();
  6482  0021E4  EC71  F014         	call	_USBCtrlEPAllowStatusStage	;wreg free
  6483  0021E8  EF24  F011         	goto	i2l442
  6484  0021EC                     i2l5116:
  6485                           
  6486                           ; BSR set to: 4
  6487                           ;mcc_generated_files/usb/usb_device.c: 1722:   {;mcc_generated_files/usb/usb_device.c: 1
      +                          733:    controlTransferState = 2;
  6488  0021EC  0E02               	movlw	2
  6489  0021EE  6E4E               	movwf	_controlTransferState^0,c	;volatile
  6490  0021F0                     
  6491                           ; BSR set to: 4
  6492                           ;mcc_generated_files/usb/usb_device.c: 1736:    pBDTEntryEP0OutNext->CNT = 8;
  6493  0021F0  EE20 F001          	lfsr	2,1
  6494  0021F4  503E               	movf	_pBDTEntryEP0OutNext^0,w,c
  6495  0021F6  26D9               	addwf	fsr2l,f,c
  6496  0021F8  503F               	movf	(_pBDTEntryEP0OutNext+1)^0,w,c
  6497  0021FA  22DA               	addwfc	fsr2h,f,c
  6498  0021FC  0E08               	movlw	8
  6499  0021FE  6EDF               	movwf	indf2,c
  6500  002200                     
  6501                           ; BSR set to: 4
  6502                           ;mcc_generated_files/usb/usb_device.c: 1737:    pBDTEntryEP0OutNext->ADR = ((uint16_t)(&
      +                          SetupPkt));
  6503  002200  EE20 F002          	lfsr	2,2
  6504  002204  503E               	movf	_pBDTEntryEP0OutNext^0,w,c
  6505  002206  26D9               	addwf	fsr2l,f,c
  6506  002208  503F               	movf	(_pBDTEntryEP0OutNext+1)^0,w,c
  6507  00220A  22DA               	addwfc	fsr2h,f,c
  6508  00220C  0E30               	movlw	48
  6509  00220E  6EDE               	movwf	postinc2,c
  6510  002210  0E04               	movlw	4
  6511  002212  6EDD               	movwf	postdec2,c
  6512  002214                     
  6513                           ; BSR set to: 4
  6514                           ;mcc_generated_files/usb/usb_device.c: 1738:    pBDTEntryEP0OutNext->STAT.Val = 0x04;
  6515  002214  C03E  FFD9         	movff	_pBDTEntryEP0OutNext,fsr2l
  6516  002218  C03F  FFDA         	movff	_pBDTEntryEP0OutNext+1,fsr2h
  6517  00221C  0E04               	movlw	4
  6518  00221E  6EDF               	movwf	indf2,c
  6519  002220                     
  6520                           ; BSR set to: 4
  6521                           ;mcc_generated_files/usb/usb_device.c: 1739:             pBDTEntryEP0OutNext->STAT.Val |
      +                          = 0x80;
  6522  002220  C03E  FFD9         	movff	_pBDTEntryEP0OutNext,fsr2l
  6523  002224  C03F  FFDA         	movff	_pBDTEntryEP0OutNext+1,fsr2h
  6524  002228  0E00               	movlw	0
  6525  00222A  8EDB               	bsf	plusw2,7,c
  6526  00222C                     
  6527                           ; BSR set to: 4
  6528                           ;mcc_generated_files/usb/usb_device.c: 1742:             USBStatusStageEnabledFlag2 = 0;
  6529  00222C  0E00               	movlw	0
  6530  00222E  6E47               	movwf	_USBStatusStageEnabledFlag2^0,c	;volatile
  6531  002230                     
  6532                           ; BSR set to: 4
  6533                           ;mcc_generated_files/usb/usb_device.c: 1743:             USBStatusStageEnabledFlag1 = 0;
  6534  002230  0E00               	movlw	0
  6535  002232  6E48               	movwf	_USBStatusStageEnabledFlag1^0,c	;volatile
  6536  002234                     
  6537                           ; BSR set to: 4
  6538                           ;mcc_generated_files/usb/usb_device.c: 1744:    if(USBDeferStatusStagePacket == 0)
  6539  002234  5049               	movf	_USBDeferStatusStagePacket^0,w,c	;volatile
  6540  002236  A4D8               	btfss	status,2,c
  6541  002238  EF20  F011         	goto	i2u354_41
  6542  00223C  EF22  F011         	goto	i2u354_40
  6543  002240                     i2u354_41:
  6544  002240  EF24  F011         	goto	i2l442
  6545  002244                     i2u354_40:
  6546  002244  EFF2  F010         	goto	i2l5114
  6547  002248                     i2l442:
  6548  002248  0012               	return		;funcret
  6549  00224A                     __end_of_USBCtrlEPServiceComplete:
  6550                           	callstack 0
  6551                           
  6552 ;; *************** function _USBCtrlEPAllowDataStage *****************
  6553 ;; Defined at:
  6554 ;;		line 1492 in file "mcc_generated_files/usb/usb_device.c"
  6555 ;; Parameters:    Size  Location     Type
  6556 ;;		None
  6557 ;; Auto vars:     Size  Location     Type
  6558 ;;		None
  6559 ;; Return value:  Size  Location     Type
  6560 ;;                  1    wreg      void 
  6561 ;; Registers used:
  6562 ;;		wreg, fsr0l, fsr0h, fsr2l, fsr2h, status,2, status,0, tblptrl, tblptrh, tblptru, cstack
  6563 ;; Tracked objects:
  6564 ;;		On entry : 0/0
  6565 ;;		On exit  : 0/0
  6566 ;;		Unchanged: 0/0
  6567 ;; Data sizes:     COMRAM   BANK0   BANK1   BANK2   BANK3   BANK4   BANK5   BANK6   BANK7
  6568 ;;      Params:         0       0       0       0       0       0       0       0       0
  6569 ;;      Locals:         0       0       0       0       0       0       0       0       0
  6570 ;;      Temps:          0       0       0       0       0       0       0       0       0
  6571 ;;      Totals:         0       0       0       0       0       0       0       0       0
  6572 ;;Total ram usage:        0 bytes
  6573 ;; Hardware stack levels used: 1
  6574 ;; Hardware stack levels required when called: 1
  6575 ;; This function calls:
  6576 ;;		_USBCtrlTrfTxService
  6577 ;; This function is called by:
  6578 ;;		_USBCtrlEPServiceComplete
  6579 ;; This function uses a non-reentrant model
  6580 ;;
  6581                           
  6582                           	psect	text34
  6583  002DD4                     __ptext34:
  6584                           	callstack 0
  6585  002DD4                     _USBCtrlEPAllowDataStage:
  6586                           	callstack 16
  6587  002DD4                     
  6588                           ;mcc_generated_files/usb/usb_device.c: 1494:     USBDeferINDataStagePackets = 0;
  6589  002DD4  0E00               	movlw	0
  6590  002DD6  6E46               	movwf	_USBDeferINDataStagePackets^0,c	;volatile
  6591                           
  6592                           ;mcc_generated_files/usb/usb_device.c: 1495:     USBDeferOUTDataStagePackets = 0;
  6593  002DD8  0E00               	movlw	0
  6594  002DDA  6E45               	movwf	_USBDeferOUTDataStagePackets^0,c	;volatile
  6595  002DDC                     
  6596                           ;mcc_generated_files/usb/usb_device.c: 1497:     if(controlTransferState == 2)
  6597  002DDC  0E02               	movlw	2
  6598  002DDE  184E               	xorwf	_controlTransferState^0,w,c	;volatile
  6599  002DE0  A4D8               	btfss	status,2,c
  6600  002DE2  EFF5  F016         	goto	i2u297_41
  6601  002DE6  EFF7  F016         	goto	i2u297_40
  6602  002DEA                     i2u297_41:
  6603  002DEA  EF17  F017         	goto	i2l4776
  6604  002DEE                     i2u297_40:
  6605  002DEE                     
  6606                           ;mcc_generated_files/usb/usb_device.c: 1498:     {;mcc_generated_files/usb/usb_device.c:
      +                           1500:         pBDTEntryEP0OutNext->CNT = 8;
  6607  002DEE  EE20 F001          	lfsr	2,1
  6608  002DF2  503E               	movf	_pBDTEntryEP0OutNext^0,w,c
  6609  002DF4  26D9               	addwf	fsr2l,f,c
  6610  002DF6  503F               	movf	(_pBDTEntryEP0OutNext+1)^0,w,c
  6611  002DF8  22DA               	addwfc	fsr2h,f,c
  6612  002DFA  0E08               	movlw	8
  6613  002DFC  6EDF               	movwf	indf2,c
  6614                           
  6615                           ;mcc_generated_files/usb/usb_device.c: 1501:         pBDTEntryEP0OutNext->ADR = ((uint16
      +                          _t)(&CtrlTrfData));
  6616  002DFE  EE20 F002          	lfsr	2,2
  6617  002E02  503E               	movf	_pBDTEntryEP0OutNext^0,w,c
  6618  002E04  26D9               	addwf	fsr2l,f,c
  6619  002E06  503F               	movf	(_pBDTEntryEP0OutNext+1)^0,w,c
  6620  002E08  22DA               	addwfc	fsr2h,f,c
  6621  002E0A  0E38               	movlw	56
  6622  002E0C  6EDE               	movwf	postinc2,c
  6623  002E0E  0E04               	movlw	4
  6624  002E10  6EDD               	movwf	postdec2,c
  6625  002E12                     
  6626                           ;mcc_generated_files/usb/usb_device.c: 1502:         pBDTEntryEP0OutNext->STAT.Val = 0x4
      +                          0|(0x08 & 0x08);
  6627  002E12  C03E  FFD9         	movff	_pBDTEntryEP0OutNext,fsr2l
  6628  002E16  C03F  FFDA         	movff	_pBDTEntryEP0OutNext+1,fsr2h
  6629  002E1A  0E48               	movlw	72
  6630  002E1C  6EDF               	movwf	indf2,c
  6631  002E1E                     
  6632                           ;mcc_generated_files/usb/usb_device.c: 1503:         pBDTEntryEP0OutNext->STAT.Val |= 0x
      +                          80;
  6633  002E1E  C03E  FFD9         	movff	_pBDTEntryEP0OutNext,fsr2l
  6634  002E22  C03F  FFDA         	movff	_pBDTEntryEP0OutNext+1,fsr2h
  6635  002E26  0E00               	movlw	0
  6636  002E28  8EDB               	bsf	plusw2,7,c
  6637                           
  6638                           ;mcc_generated_files/usb/usb_device.c: 1504:     }
  6639  002E2A  EF43  F017         	goto	i2l424
  6640  002E2E                     i2l4776:
  6641                           
  6642                           ;mcc_generated_files/usb/usb_device.c: 1506:     {;mcc_generated_files/usb/usb_device.c:
      +                           1509:   if(SetupPkt.wLength < inPipes[0].wCount.Val)
  6643  002E2E  0100               	movlb	0	; () banked
  6644  002E30  51D8               	movf	(_inPipes+4)& (0+255),w,b	;volatile
  6645  002E32  0104               	movlb	4	; () banked
  6646  002E34  5D36               	subwf	54,w,b	;volatile
  6647  002E36  0100               	movlb	0	; () banked
  6648  002E38  51D9               	movf	(_inPipes+5)& (0+255),w,b	;volatile
  6649  002E3A  0104               	movlb	4	; () banked
  6650  002E3C  5937               	subwfb	55,w,b	;volatile
  6651  002E3E  B0D8               	btfsc	status,0,c
  6652  002E40  EF24  F017         	goto	i2u298_41
  6653  002E44  EF26  F017         	goto	i2u298_40
  6654  002E48                     i2u298_41:
  6655  002E48  EF2A  F017         	goto	i2l4780
  6656  002E4C                     i2u298_40:
  6657  002E4C                     
  6658                           ; BSR set to: 4
  6659                           ;mcc_generated_files/usb/usb_device.c: 1510:   {;mcc_generated_files/usb/usb_device.c: 1
      +                          511:    inPipes[0].wCount.Val = SetupPkt.wLength;
  6660  002E4C  C436 F0D8          	movff	1078,_inPipes+4	;volatile
  6661  002E50  C437 F0D9          	movff	1079,_inPipes+5	;volatile
  6662  002E54                     i2l4780:
  6663                           
  6664                           ; BSR set to: 4
  6665                           ;mcc_generated_files/usb/usb_device.c: 1513:   USBCtrlTrfTxService();
  6666  002E54  EC57  F012         	call	_USBCtrlTrfTxService	;wreg free
  6667  002E58                     
  6668                           ;mcc_generated_files/usb/usb_device.c: 1518:   pBDTEntryIn[0]->ADR = ((uint16_t)(&CtrlTr
      +                          fData));
  6669  002E58  0100               	movlb	0	; () banked
  6670  002E5A  EE20 F002          	lfsr	2,2
  6671  002E5E  51DA               	movf	_pBDTEntryIn& (0+255),w,b
  6672  002E60  26D9               	addwf	fsr2l,f,c
  6673  002E62  51DB               	movf	(_pBDTEntryIn+1)& (0+255),w,b
  6674  002E64  22DA               	addwfc	fsr2h,f,c
  6675  002E66  0E38               	movlw	56
  6676  002E68  6EDE               	movwf	postinc2,c
  6677  002E6A  0E04               	movlw	4
  6678  002E6C  6EDD               	movwf	postdec2,c
  6679  002E6E                     
  6680                           ; BSR set to: 0
  6681                           ;mcc_generated_files/usb/usb_device.c: 1519:   pBDTEntryIn[0]->STAT.Val = 0x40|(0x08 & 0
      +                          x08);
  6682  002E6E  C0DA  FFD9         	movff	_pBDTEntryIn,fsr2l
  6683  002E72  C0DB  FFDA         	movff	_pBDTEntryIn+1,fsr2h
  6684  002E76  0E48               	movlw	72
  6685  002E78  6EDF               	movwf	indf2,c
  6686  002E7A                     
  6687                           ; BSR set to: 0
  6688                           ;mcc_generated_files/usb/usb_device.c: 1520:         pBDTEntryIn[0]->STAT.Val |= 0x80;
  6689  002E7A  C0DA  FFD9         	movff	_pBDTEntryIn,fsr2l
  6690  002E7E  C0DB  FFDA         	movff	_pBDTEntryIn+1,fsr2h
  6691  002E82  0E00               	movlw	0
  6692  002E84  8EDB               	bsf	plusw2,7,c
  6693  002E86                     i2l424:
  6694  002E86  0012               	return		;funcret
  6695  002E88                     __end_of_USBCtrlEPAllowDataStage:
  6696                           	callstack 0
  6697                           
  6698 ;; *************** function _USBCheckStdRequest *****************
  6699 ;; Defined at:
  6700 ;;		line 2690 in file "mcc_generated_files/usb/usb_device.c"
  6701 ;; Parameters:    Size  Location     Type
  6702 ;;		None
  6703 ;; Auto vars:     Size  Location     Type
  6704 ;;		None
  6705 ;; Return value:  Size  Location     Type
  6706 ;;                  1    wreg      void 
  6707 ;; Registers used:
  6708 ;;		wreg, fsr0l, fsr0h, fsr2l, fsr2h, status,2, status,0, tblptrl, tblptrh, tblptru, prodl, prodh, cstack
  6709 ;; Tracked objects:
  6710 ;;		On entry : 0/0
  6711 ;;		On exit  : 0/0
  6712 ;;		Unchanged: 0/0
  6713 ;; Data sizes:     COMRAM   BANK0   BANK1   BANK2   BANK3   BANK4   BANK5   BANK6   BANK7
  6714 ;;      Params:         0       0       0       0       0       0       0       0       0
  6715 ;;      Locals:         0       0       0       0       0       0       0       0       0
  6716 ;;      Temps:          2       0       0       0       0       0       0       0       0
  6717 ;;      Totals:         2       0       0       0       0       0       0       0       0
  6718 ;;Total ram usage:        2 bytes
  6719 ;; Hardware stack levels used: 1
  6720 ;; Hardware stack levels required when called: 5
  6721 ;; This function calls:
  6722 ;;		_USBStdFeatureReqHandler
  6723 ;;		_USBStdGetDscHandler
  6724 ;;		_USBStdGetStatusHandler
  6725 ;;		_USBStdSetCfgHandler
  6726 ;;		_USER_USB_CALLBACK_EVENT_HANDLER
  6727 ;; This function is called by:
  6728 ;;		_USBCtrlTrfSetupHandler
  6729 ;; This function uses a non-reentrant model
  6730 ;;
  6731                           
  6732                           	psect	text35
  6733  002388                     __ptext35:
  6734                           	callstack 0
  6735  002388                     _USBCheckStdRequest:
  6736                           	callstack 13
  6737  002388                     
  6738                           ;mcc_generated_files/usb/usb_device.c: 2692:     if(SetupPkt.RequestType != (0x00>>5)) r
      +                          eturn;
  6739  002388  0104               	movlb	4	; () banked
  6740  00238A  3930               	swapf	48,w,b	;volatile
  6741  00238C  32E8               	rrcf	wreg,f,c
  6742  00238E  0B03               	andlw	3
  6743  002390  0900               	iorlw	0
  6744  002392  B4D8               	btfsc	status,2,c
  6745  002394  EFCE  F011         	goto	i2u360_41
  6746  002398  EFD0  F011         	goto	i2u360_40
  6747  00239C                     i2u360_41:
  6748  00239C  EF1D  F012         	goto	i2l5214
  6749  0023A0                     i2u360_40:
  6750  0023A0  EF56  F012         	goto	i2l555
  6751  0023A4                     i2l557:
  6752                           
  6753                           ; BSR set to: 4
  6754                           ;mcc_generated_files/usb/usb_device.c: 2697:             inPipes[0].info.bits.busy = 1;
  6755  0023A4  0100               	movlb	0	; () banked
  6756  0023A6  8FD7               	bsf	(_inPipes+3)& (0+255),7,b	;volatile
  6757  0023A8                     
  6758                           ; BSR set to: 0
  6759                           ;mcc_generated_files/usb/usb_device.c: 2698:             USBDeviceState = ADR_PENDING_ST
      +                          ATE;
  6760  0023A8  0E08               	movlw	8
  6761  0023AA  6E50               	movwf	_USBDeviceState^0,c	;volatile
  6762                           
  6763                           ;mcc_generated_files/usb/usb_device.c: 2700:             break;
  6764  0023AC  EF56  F012         	goto	i2l555
  6765  0023B0                     i2l5184:
  6766                           
  6767                           ; BSR set to: 4
  6768                           ;mcc_generated_files/usb/usb_device.c: 2702:             USBStdGetDscHandler();
  6769  0023B0  EC88  F00C         	call	_USBStdGetDscHandler	;wreg free
  6770                           
  6771                           ;mcc_generated_files/usb/usb_device.c: 2703:             break;
  6772  0023B4  EF56  F012         	goto	i2l555
  6773  0023B8                     i2l5186:
  6774                           
  6775                           ; BSR set to: 4
  6776                           ;mcc_generated_files/usb/usb_device.c: 2705:             USBStdSetCfgHandler();
  6777  0023B8  ECEA  F014         	call	_USBStdSetCfgHandler	;wreg free
  6778                           
  6779                           ;mcc_generated_files/usb/usb_device.c: 2706:             break;
  6780  0023BC  EF56  F012         	goto	i2l555
  6781  0023C0                     i2l5188:
  6782                           
  6783                           ; BSR set to: 4
  6784                           ;mcc_generated_files/usb/usb_device.c: 2708:             inPipes[0].pSrc.bRam = (uint8_t
      +                          *)&USBActiveConfiguration;
  6785  0023C0  0E54               	movlw	low _USBActiveConfiguration
  6786  0023C2  0100               	movlb	0	; () banked
  6787  0023C4  6FD4               	movwf	_inPipes& (0+255),b	;volatile
  6788  0023C6  0E00               	movlw	high _USBActiveConfiguration
  6789  0023C8  6FD5               	movwf	(_inPipes+1)& (0+255),b	;volatile
  6790  0023CA                     
  6791                           ; BSR set to: 0
  6792                           ;mcc_generated_files/usb/usb_device.c: 2709:             inPipes[0].info.bits.ctrl_trf_m
      +                          em = 0x01;
  6793  0023CA  81D7               	bsf	(_inPipes+3)& (0+255),0,b	;volatile
  6794  0023CC                     
  6795                           ; BSR set to: 0
  6796                           ;mcc_generated_files/usb/usb_device.c: 2710:             inPipes[0].wCount.v[0] = 1;
  6797  0023CC  0E01               	movlw	1
  6798  0023CE  6FD8               	movwf	(_inPipes+4)& (0+255),b	;volatile
  6799  0023D0                     
  6800                           ; BSR set to: 0
  6801                           ;mcc_generated_files/usb/usb_device.c: 2711:             inPipes[0].info.bits.busy = 1;
  6802  0023D0  8FD7               	bsf	(_inPipes+3)& (0+255),7,b	;volatile
  6803                           
  6804                           ;mcc_generated_files/usb/usb_device.c: 2712:             break;
  6805  0023D2  EF56  F012         	goto	i2l555
  6806  0023D6                     i2l5196:
  6807                           
  6808                           ; BSR set to: 4
  6809                           ;mcc_generated_files/usb/usb_device.c: 2714:             USBStdGetStatusHandler();
  6810  0023D6  ECDF  F012         	call	_USBStdGetStatusHandler	;wreg free
  6811                           
  6812                           ;mcc_generated_files/usb/usb_device.c: 2715:             break;
  6813  0023DA  EF56  F012         	goto	i2l555
  6814  0023DE                     i2l5198:
  6815                           
  6816                           ; BSR set to: 4
  6817                           ;mcc_generated_files/usb/usb_device.c: 2718:             USBStdFeatureReqHandler();
  6818  0023DE  EC70  F004         	call	_USBStdFeatureReqHandler	;wreg free
  6819                           
  6820                           ;mcc_generated_files/usb/usb_device.c: 2719:             break;
  6821  0023E2  EF56  F012         	goto	i2l555
  6822  0023E6                     i2l5200:
  6823                           
  6824                           ; BSR set to: 4
  6825                           ;mcc_generated_files/usb/usb_device.c: 2721:             inPipes[0].pSrc.bRam = (uint8_t
      +                          *)&USBAlternateInterface[SetupPkt.bIntfID];
  6826  0023E6  0E51               	movlw	low _USBAlternateInterface
  6827  0023E8  2534               	addwf	52,w,b	;volatile
  6828  0023EA  0100               	movlb	0	; () banked
  6829  0023EC  6FD4               	movwf	_inPipes& (0+255),b	;volatile
  6830  0023EE  6BD5               	clrf	(_inPipes+1)& (0+255),b	;volatile
  6831  0023F0  0E00               	movlw	high _USBAlternateInterface
  6832  0023F2  23D5               	addwfc	(_inPipes+1)& (0+255),f,b	;volatile
  6833  0023F4                     
  6834                           ; BSR set to: 0
  6835                           ;mcc_generated_files/usb/usb_device.c: 2722:             inPipes[0].info.bits.ctrl_trf_m
      +                          em = 0x01;
  6836  0023F4  81D7               	bsf	(_inPipes+3)& (0+255),0,b	;volatile
  6837  0023F6                     
  6838                           ; BSR set to: 0
  6839                           ;mcc_generated_files/usb/usb_device.c: 2723:             inPipes[0].wCount.v[0] = 1;
  6840  0023F6  0E01               	movlw	1
  6841  0023F8  6FD8               	movwf	(_inPipes+4)& (0+255),b	;volatile
  6842  0023FA                     
  6843                           ; BSR set to: 0
  6844                           ;mcc_generated_files/usb/usb_device.c: 2724:             inPipes[0].info.bits.busy = 1;
  6845  0023FA  8FD7               	bsf	(_inPipes+3)& (0+255),7,b	;volatile
  6846                           
  6847                           ;mcc_generated_files/usb/usb_device.c: 2725:             break;
  6848  0023FC  EF56  F012         	goto	i2l555
  6849  002400                     i2l566:
  6850                           
  6851                           ; BSR set to: 4
  6852                           ;mcc_generated_files/usb/usb_device.c: 2727:             inPipes[0].info.bits.busy = 1;
  6853  002400  0100               	movlb	0	; () banked
  6854  002402  8FD7               	bsf	(_inPipes+3)& (0+255),7,b	;volatile
  6855  002404                     
  6856                           ; BSR set to: 0
  6857                           ;mcc_generated_files/usb/usb_device.c: 2728:             USBAlternateInterface[SetupPkt.
      +                          bIntfID] = SetupPkt.bAltID;
  6858  002404  0E51               	movlw	low _USBAlternateInterface
  6859  002406  0104               	movlb	4	; () banked
  6860  002408  2534               	addwf	52,w,b	;volatile
  6861  00240A  6ED9               	movwf	fsr2l,c
  6862  00240C  6ADA               	clrf	fsr2h,c
  6863  00240E  0E00               	movlw	high _USBAlternateInterface
  6864  002410  22DA               	addwfc	fsr2h,f,c
  6865  002412  C432 FFDF          	movff	1074,indf2	;volatile
  6866                           
  6867                           ;mcc_generated_files/usb/usb_device.c: 2729:             break;
  6868  002416  EF56  F012         	goto	i2l555
  6869  00241A                     i2l5210:
  6870                           
  6871                           ; BSR set to: 4
  6872                           ;mcc_generated_files/usb/usb_device.c: 2731:             USER_USB_CALLBACK_EVENT_HANDLER
      +                          ((USB_EVENT)EVENT_SET_DESCRIPTOR,0,0);
  6873  00241A  0E00               	movlw	0
  6874  00241C  6E0E               	movwf	(USER_USB_CALLBACK_EVENT_HANDLER@event+1)^0,c
  6875  00241E  0E02               	movlw	2
  6876  002420  6E0D               	movwf	USER_USB_CALLBACK_EVENT_HANDLER@event^0,c
  6877  002422  0E00               	movlw	0
  6878  002424  6E0F               	movwf	USER_USB_CALLBACK_EVENT_HANDLER@pdata^0,c
  6879  002426  0E00               	movlw	0
  6880  002428  6E10               	movwf	(USER_USB_CALLBACK_EVENT_HANDLER@pdata+1)^0,c
  6881  00242A  0E00               	movlw	0
  6882  00242C  6E12               	movwf	(USER_USB_CALLBACK_EVENT_HANDLER@size+1)^0,c
  6883  00242E  0E00               	movlw	0
  6884  002430  6E11               	movwf	USER_USB_CALLBACK_EVENT_HANDLER@size^0,c
  6885  002432  ECE2  F017         	call	_USER_USB_CALLBACK_EVENT_HANDLER	;wreg free
  6886                           
  6887                           ;mcc_generated_files/usb/usb_device.c: 2732:             break;
  6888  002436  EF56  F012         	goto	i2l555
  6889  00243A                     i2l5214:
  6890                           
  6891                           ; BSR set to: 4
  6892  00243A  5131               	movf	49,w,b	;volatile
  6893  00243C  6E1C               	movwf	??_USBCheckStdRequest^0,c
  6894  00243E  6A1D               	clrf	(??_USBCheckStdRequest+1)^0,c
  6895                           
  6896                           ; Switch on 2 bytes has been partitioned into a top level switch of size 1, and 1 sub-sw
      +                          itches
  6897                           ; Switch size 1, requested type "simple"
  6898                           ; Number of cases is 1, Range of values is 0 to 0
  6899                           ; switch strategies available:
  6900                           ; Name         Instructions Cycles
  6901                           ; simple_byte            4     3 (average)
  6902                           ;	Chosen strategy is simple_byte
  6903  002440  501D               	movf	(??_USBCheckStdRequest+1)^0,w,c
  6904  002442  0A00               	xorlw	0	; case 0
  6905  002444  B4D8               	btfsc	status,2,c
  6906  002446  EF27  F012         	goto	i2l7672
  6907  00244A  EF56  F012         	goto	i2l555
  6908  00244E                     i2l7672:
  6909                           
  6910                           ; BSR set to: 4
  6911                           ; Switch size 1, requested type "simple"
  6912                           ; Number of cases is 11, Range of values is 0 to 12
  6913                           ; switch strategies available:
  6914                           ; Name         Instructions Cycles
  6915                           ; simple_byte           34    18 (average)
  6916                           ;	Chosen strategy is simple_byte
  6917  00244E  501C               	movf	??_USBCheckStdRequest^0,w,c
  6918  002450  0A00               	xorlw	0	; case 0
  6919  002452  B4D8               	btfsc	status,2,c
  6920  002454  EFEB  F011         	goto	i2l5196
  6921  002458  0A01               	xorlw	1	; case 1
  6922  00245A  B4D8               	btfsc	status,2,c
  6923  00245C  EFEF  F011         	goto	i2l5198
  6924  002460  0A02               	xorlw	2	; case 3
  6925  002462  B4D8               	btfsc	status,2,c
  6926  002464  EFEF  F011         	goto	i2l5198
  6927  002468  0A06               	xorlw	6	; case 5
  6928  00246A  B4D8               	btfsc	status,2,c
  6929  00246C  EFD2  F011         	goto	i2l557
  6930  002470  0A03               	xorlw	3	; case 6
  6931  002472  B4D8               	btfsc	status,2,c
  6932  002474  EFD8  F011         	goto	i2l5184
  6933  002478  0A01               	xorlw	1	; case 7
  6934  00247A  B4D8               	btfsc	status,2,c
  6935  00247C  EF0D  F012         	goto	i2l5210
  6936  002480  0A0F               	xorlw	15	; case 8
  6937  002482  B4D8               	btfsc	status,2,c
  6938  002484  EFE0  F011         	goto	i2l5188
  6939  002488  0A01               	xorlw	1	; case 9
  6940  00248A  B4D8               	btfsc	status,2,c
  6941  00248C  EFDC  F011         	goto	i2l5186
  6942  002490  0A03               	xorlw	3	; case 10
  6943  002492  B4D8               	btfsc	status,2,c
  6944  002494  EFF3  F011         	goto	i2l5200
  6945  002498  0A01               	xorlw	1	; case 11
  6946  00249A  B4D8               	btfsc	status,2,c
  6947  00249C  EF00  F012         	goto	i2l566
  6948  0024A0  0A07               	xorlw	7	; case 12
  6949  0024A2  B4D8               	btfsc	status,2,c
  6950  0024A4  EF56  F012         	goto	i2l555
  6951  0024A8  EF56  F012         	goto	i2l555
  6952  0024AC                     i2l555:
  6953  0024AC  0012               	return		;funcret
  6954  0024AE                     __end_of_USBCheckStdRequest:
  6955                           	callstack 0
  6956                           
  6957 ;; *************** function _USBStdSetCfgHandler *****************
  6958 ;; Defined at:
  6959 ;;		line 1972 in file "mcc_generated_files/usb/usb_device.c"
  6960 ;; Parameters:    Size  Location     Type
  6961 ;;		None
  6962 ;; Auto vars:     Size  Location     Type
  6963 ;;  i               1   20[COMRAM] unsigned char 
  6964 ;; Return value:  Size  Location     Type
  6965 ;;                  1    wreg      void 
  6966 ;; Registers used:
  6967 ;;		wreg, fsr2l, fsr2h, status,2, status,0, prodl, prodh, cstack
  6968 ;; Tracked objects:
  6969 ;;		On entry : 0/0
  6970 ;;		On exit  : 0/0
  6971 ;;		Unchanged: 0/0
  6972 ;; Data sizes:     COMRAM   BANK0   BANK1   BANK2   BANK3   BANK4   BANK5   BANK6   BANK7
  6973 ;;      Params:         0       0       0       0       0       0       0       0       0
  6974 ;;      Locals:         1       0       0       0       0       0       0       0       0
  6975 ;;      Temps:          0       0       0       0       0       0       0       0       0
  6976 ;;      Totals:         1       0       0       0       0       0       0       0       0
  6977 ;;Total ram usage:        1 bytes
  6978 ;; Hardware stack levels used: 1
  6979 ;; Hardware stack levels required when called: 4
  6980 ;; This function calls:
  6981 ;;		_USER_USB_CALLBACK_EVENT_HANDLER
  6982 ;;		i2_memset
  6983 ;; This function is called by:
  6984 ;;		_USBCheckStdRequest
  6985 ;; This function uses a non-reentrant model
  6986 ;;
  6987                           
  6988                           	psect	text36
  6989  0029D4                     __ptext36:
  6990                           	callstack 0
  6991  0029D4                     _USBStdSetCfgHandler:
  6992                           	callstack 13
  6993  0029D4                     
  6994                           ;mcc_generated_files/usb/usb_device.c: 1974:     uint8_t i;;mcc_generated_files/usb/usb_
      +                          device.c: 1977:     inPipes[0].info.bits.busy = 1;
  6995  0029D4  0100               	movlb	0	; () banked
  6996  0029D6  8FD7               	bsf	(_inPipes+3)& (0+255),7,b	;volatile
  6997  0029D8                     
  6998                           ; BSR set to: 0
  6999                           ;mcc_generated_files/usb/usb_device.c: 1980:     memset((void*)&UEP1,0x00,(2));;
  7000  0029D8  0E6B               	movlw	107
  7001  0029DA  6E01               	movwf	i2memset@dest^0,c
  7002  0029DC  0E0F               	movlw	15
  7003  0029DE  6E02               	movwf	(i2memset@dest+1)^0,c
  7004  0029E0  0E00               	movlw	0
  7005  0029E2  6E04               	movwf	(i2memset@c+1)^0,c
  7006  0029E4  0E00               	movlw	0
  7007  0029E6  6E03               	movwf	i2memset@c^0,c
  7008  0029E8  0E00               	movlw	0
  7009  0029EA  6E06               	movwf	(i2memset@n+1)^0,c
  7010  0029EC  0E02               	movlw	2
  7011  0029EE  6E05               	movwf	i2memset@n^0,c
  7012  0029F0  ECCD  F00B         	call	i2_memset	;wreg free
  7013                           
  7014                           ;mcc_generated_files/usb/usb_device.c: 1983:     memset((void*)&BDT[0], 0x00, sizeof(BDT
      +                          ));
  7015  0029F4  0E00               	movlw	0
  7016  0029F6  6E01               	movwf	i2memset@dest^0,c
  7017  0029F8  0E04               	movlw	4
  7018  0029FA  6E02               	movwf	(i2memset@dest+1)^0,c
  7019  0029FC  0E00               	movlw	0
  7020  0029FE  6E04               	movwf	(i2memset@c+1)^0,c
  7021  002A00  0E00               	movlw	0
  7022  002A02  6E03               	movwf	i2memset@c^0,c
  7023  002A04  0E00               	movlw	0
  7024  002A06  6E06               	movwf	(i2memset@n+1)^0,c
  7025  002A08  0E30               	movlw	48
  7026  002A0A  6E05               	movwf	i2memset@n^0,c
  7027  002A0C  ECCD  F00B         	call	i2_memset	;wreg free
  7028  002A10                     
  7029                           ;mcc_generated_files/usb/usb_device.c: 1986:     UCONbits.PPBRST = 1;
  7030  002A10  8C60               	bsf	96,6,c	;volatile
  7031  002A12                     
  7032                           ;mcc_generated_files/usb/usb_device.c: 1991:  for(i = 0; i < (uint8_t)(2 +1u); i++)
  7033  002A12  0E00               	movlw	0
  7034  002A14  6E15               	movwf	USBStdSetCfgHandler@i^0,c
  7035  002A16                     i2l4800:
  7036                           
  7037                           ;mcc_generated_files/usb/usb_device.c: 1992:  {;mcc_generated_files/usb/usb_device.c: 19
      +                          93:   ep_data_in[i].Val = 0u;
  7038  002A16  0EE9               	movlw	low _ep_data_in
  7039  002A18  2415               	addwf	USBStdSetCfgHandler@i^0,w,c
  7040  002A1A  6ED9               	movwf	fsr2l,c
  7041  002A1C  6ADA               	clrf	fsr2h,c
  7042  002A1E  0E00               	movlw	high _ep_data_in
  7043  002A20  22DA               	addwfc	fsr2h,f,c
  7044  002A22  0E00               	movlw	0
  7045  002A24  6EDF               	movwf	indf2,c
  7046                           
  7047                           ;mcc_generated_files/usb/usb_device.c: 1994:         ep_data_out[i].Val = 0u;
  7048  002A26  0EE6               	movlw	low _ep_data_out
  7049  002A28  2415               	addwf	USBStdSetCfgHandler@i^0,w,c
  7050  002A2A  6ED9               	movwf	fsr2l,c
  7051  002A2C  6ADA               	clrf	fsr2h,c
  7052  002A2E  0E00               	movlw	high _ep_data_out
  7053  002A30  22DA               	addwfc	fsr2h,f,c
  7054  002A32  0E00               	movlw	0
  7055  002A34  6EDF               	movwf	indf2,c
  7056  002A36                     
  7057                           ;mcc_generated_files/usb/usb_device.c: 1995:  }
  7058  002A36  2A15               	incf	USBStdSetCfgHandler@i^0,f,c
  7059  002A38  0E02               	movlw	2
  7060  002A3A  6415               	cpfsgt	USBStdSetCfgHandler@i^0,c
  7061  002A3C  EF22  F015         	goto	i2u299_41
  7062  002A40  EF24  F015         	goto	i2u299_40
  7063  002A44                     i2u299_41:
  7064  002A44  EF0B  F015         	goto	i2l4800
  7065  002A48                     i2u299_40:
  7066  002A48                     
  7067                           ;mcc_generated_files/usb/usb_device.c: 1998:     memset((void*)&USBAlternateInterface,0x
      +                          00,2);
  7068  002A48  0E51               	movlw	low _USBAlternateInterface
  7069  002A4A  6E01               	movwf	i2memset@dest^0,c
  7070  002A4C  0E00               	movlw	high _USBAlternateInterface
  7071  002A4E  6E02               	movwf	(i2memset@dest+1)^0,c
  7072  002A50  0E00               	movlw	0
  7073  002A52  6E04               	movwf	(i2memset@c+1)^0,c
  7074  002A54  0E00               	movlw	0
  7075  002A56  6E03               	movwf	i2memset@c^0,c
  7076  002A58  0E00               	movlw	0
  7077  002A5A  6E06               	movwf	(i2memset@n+1)^0,c
  7078  002A5C  0E02               	movlw	2
  7079  002A5E  6E05               	movwf	i2memset@n^0,c
  7080  002A60  ECCD  F00B         	call	i2_memset	;wreg free
  7081  002A64                     
  7082                           ;mcc_generated_files/usb/usb_device.c: 2001:     UCONbits.PPBRST = 0;
  7083  002A64  9C60               	bcf	96,6,c	;volatile
  7084  002A66                     
  7085                           ;mcc_generated_files/usb/usb_device.c: 2003:     pBDTEntryIn[0] = (volatile BDT_ENTRY*)&
      +                          BDT[2];
  7086  002A66  0E08               	movlw	8
  7087  002A68  0100               	movlb	0	; () banked
  7088  002A6A  6FDA               	movwf	_pBDTEntryIn& (0+255),b
  7089  002A6C  0E04               	movlw	4
  7090  002A6E  6FDB               	movwf	(_pBDTEntryIn+1)& (0+255),b
  7091  002A70                     
  7092                           ; BSR set to: 0
  7093                           ;mcc_generated_files/usb/usb_device.c: 2006:     pBDTEntryEP0OutCurrent = (volatile BDT_
      +                          ENTRY*)&BDT[0];
  7094  002A70  0E00               	movlw	0
  7095  002A72  6E40               	movwf	_pBDTEntryEP0OutCurrent^0,c
  7096  002A74  0E04               	movlw	4
  7097  002A76  6E41               	movwf	(_pBDTEntryEP0OutCurrent+1)^0,c
  7098  002A78                     
  7099                           ; BSR set to: 0
  7100                           ;mcc_generated_files/usb/usb_device.c: 2007:     pBDTEntryEP0OutNext = pBDTEntryEP0OutCu
      +                          rrent;
  7101  002A78  C040  F03E         	movff	_pBDTEntryEP0OutCurrent,_pBDTEntryEP0OutNext
  7102  002A7C  C041  F03F         	movff	_pBDTEntryEP0OutCurrent+1,_pBDTEntryEP0OutNext+1
  7103  002A80                     
  7104                           ; BSR set to: 0
  7105                           ;mcc_generated_files/usb/usb_device.c: 2010:     USBActiveConfiguration = SetupPkt.bConf
      +                          igurationValue;
  7106  002A80  C432 F054          	movff	1074,_USBActiveConfiguration	;volatile
  7107  002A84                     
  7108                           ; BSR set to: 0
  7109                           ;mcc_generated_files/usb/usb_device.c: 2013:     if(USBActiveConfiguration == 0)
  7110  002A84  5054               	movf	_USBActiveConfiguration^0,w,c	;volatile
  7111  002A86  A4D8               	btfss	status,2,c
  7112  002A88  EF48  F015         	goto	i2u300_41
  7113  002A8C  EF4A  F015         	goto	i2u300_40
  7114  002A90                     i2u300_41:
  7115  002A90  EF4E  F015         	goto	i2l4822
  7116  002A94                     i2u300_40:
  7117  002A94                     
  7118                           ; BSR set to: 0
  7119                           ;mcc_generated_files/usb/usb_device.c: 2014:     {;mcc_generated_files/usb/usb_device.c:
      +                           2016:         USBDeviceState = ADDRESS_STATE;
  7120  002A94  0E10               	movlw	16
  7121  002A96  6E50               	movwf	_USBDeviceState^0,c	;volatile
  7122                           
  7123                           ;mcc_generated_files/usb/usb_device.c: 2017:     }
  7124  002A98  EF5E  F015         	goto	i2l477
  7125  002A9C                     i2l4822:
  7126                           
  7127                           ; BSR set to: 0
  7128                           ;mcc_generated_files/usb/usb_device.c: 2019:     {;mcc_generated_files/usb/usb_device.c:
      +                           2021:         USER_USB_CALLBACK_EVENT_HANDLER((USB_EVENT)EVENT_CONFIGURED,(void*)&USBAc
      +                          tiveConfiguration,1);
  7129  002A9C  0E00               	movlw	0
  7130  002A9E  6E0E               	movwf	(USER_USB_CALLBACK_EVENT_HANDLER@event+1)^0,c
  7131  002AA0  0E01               	movlw	1
  7132  002AA2  6E0D               	movwf	USER_USB_CALLBACK_EVENT_HANDLER@event^0,c
  7133  002AA4  0E54               	movlw	low _USBActiveConfiguration
  7134  002AA6  6E0F               	movwf	USER_USB_CALLBACK_EVENT_HANDLER@pdata^0,c
  7135  002AA8  0E00               	movlw	high _USBActiveConfiguration
  7136  002AAA  6E10               	movwf	(USER_USB_CALLBACK_EVENT_HANDLER@pdata+1)^0,c
  7137  002AAC  0E00               	movlw	0
  7138  002AAE  6E12               	movwf	(USER_USB_CALLBACK_EVENT_HANDLER@size+1)^0,c
  7139  002AB0  0E01               	movlw	1
  7140  002AB2  6E11               	movwf	USER_USB_CALLBACK_EVENT_HANDLER@size^0,c
  7141  002AB4  ECE2  F017         	call	_USER_USB_CALLBACK_EVENT_HANDLER	;wreg free
  7142  002AB8                     
  7143                           ;mcc_generated_files/usb/usb_device.c: 2026:         USBDeviceState = CONFIGURED_STATE;
  7144  002AB8  0E20               	movlw	32
  7145  002ABA  6E50               	movwf	_USBDeviceState^0,c	;volatile
  7146  002ABC                     i2l477:
  7147  002ABC  0012               	return		;funcret
  7148  002ABE                     __end_of_USBStdSetCfgHandler:
  7149                           	callstack 0
  7150                           
  7151 ;; *************** function i2_memset *****************
  7152 ;; Defined at:
  7153 ;;		line 4 in file "/Applications/microchip/xc8/v2.35/pic/sources/c99/common/memset.c"
  7154 ;; Parameters:    Size  Location     Type
  7155 ;;  dest            2    0[COMRAM] PTR void 
  7156 ;;		 -> USBAlternateInterface(2), BDT(48), UEP1(1), 
  7157 ;;  c               2    2[COMRAM] int 
  7158 ;;  n               2    4[COMRAM] unsigned int 
  7159 ;; Auto vars:     Size  Location     Type
  7160 ;;  s               2   10[COMRAM] PTR unsigned char 
  7161 ;;		 -> USBAlternateInterface(2), BDT(48), UEP1(1), 
  7162 ;;  k               2    8[COMRAM] unsigned int 
  7163 ;; Return value:  Size  Location     Type
  7164 ;;                  2    0[COMRAM] PTR void 
  7165 ;; Registers used:
  7166 ;;		wreg, fsr2l, fsr2h, status,2, status,0
  7167 ;; Tracked objects:
  7168 ;;		On entry : 0/0
  7169 ;;		On exit  : 0/0
  7170 ;;		Unchanged: 0/0
  7171 ;; Data sizes:     COMRAM   BANK0   BANK1   BANK2   BANK3   BANK4   BANK5   BANK6   BANK7
  7172 ;;      Params:         6       0       0       0       0       0       0       0       0
  7173 ;;      Locals:         4       0       0       0       0       0       0       0       0
  7174 ;;      Temps:          2       0       0       0       0       0       0       0       0
  7175 ;;      Totals:        12       0       0       0       0       0       0       0       0
  7176 ;;Total ram usage:       12 bytes
  7177 ;; Hardware stack levels used: 1
  7178 ;; This function calls:
  7179 ;;		Nothing
  7180 ;; This function is called by:
  7181 ;;		_USBStdSetCfgHandler
  7182 ;;		i2_USBDeviceInit
  7183 ;; This function uses a non-reentrant model
  7184 ;;
  7185                           
  7186                           	psect	text37
  7187  00179A                     __ptext37:
  7188                           	callstack 0
  7189  00179A                     i2_memset:
  7190                           	callstack 19
  7191  00179A  C001  F00B         	movff	i2memset@dest,i2memset@s
  7192  00179E  C002  F00C         	movff	i2memset@dest+1,i2memset@s+1
  7193  0017A2  5005               	movf	i2memset@n^0,w,c
  7194  0017A4  1006               	iorwf	(i2memset@n+1)^0,w,c
  7195  0017A6  A4D8               	btfss	status,2,c
  7196  0017A8  EFD8  F00B         	goto	i2u288_41
  7197  0017AC  EFDA  F00B         	goto	i2u288_40
  7198  0017B0                     i2u288_41:
  7199  0017B0  EFDC  F00B         	goto	i2l4704
  7200  0017B4                     i2u288_40:
  7201  0017B4  EF87  F00C         	goto	i2l1885
  7202  0017B8                     i2l4704:
  7203  0017B8  C00B  FFD9         	movff	i2memset@s,fsr2l
  7204  0017BC  C00C  FFDA         	movff	i2memset@s+1,fsr2h
  7205  0017C0  C003  FFDF         	movff	i2memset@c,indf2
  7206  0017C4  5005               	movf	i2memset@n^0,w,c
  7207  0017C6  240B               	addwf	i2memset@s^0,w,c
  7208  0017C8  6E07               	movwf	??i2_memset^0,c
  7209  0017CA  5006               	movf	(i2memset@n+1)^0,w,c
  7210  0017CC  200C               	addwfc	(i2memset@s+1)^0,w,c
  7211  0017CE  6E08               	movwf	(??i2_memset+1)^0,c
  7212  0017D0  0EFF               	movlw	255
  7213  0017D2  2407               	addwf	??i2_memset^0,w,c
  7214  0017D4  6ED9               	movwf	fsr2l,c
  7215  0017D6  0EFF               	movlw	255
  7216  0017D8  2008               	addwfc	(??i2_memset+1)^0,w,c
  7217  0017DA  6EDA               	movwf	fsr2h,c
  7218  0017DC  C003  FFDF         	movff	i2memset@c,indf2
  7219  0017E0  5006               	movf	(i2memset@n+1)^0,w,c
  7220  0017E2  E107               	bnz	i2u289_41
  7221  0017E4  0E03               	movlw	3
  7222  0017E6  5C05               	subwf	i2memset@n^0,w,c
  7223  0017E8  B0D8               	btfsc	status,0,c
  7224  0017EA  EFF9  F00B         	goto	i2u289_41
  7225  0017EE  EFFB  F00B         	goto	i2u289_40
  7226  0017F2                     i2u289_41:
  7227  0017F2  EFFD  F00B         	goto	i2l4710
  7228  0017F6                     i2u289_40:
  7229  0017F6  EF87  F00C         	goto	i2l1885
  7230  0017FA                     i2l4710:
  7231  0017FA  EE20 F001          	lfsr	2,1
  7232  0017FE  500B               	movf	i2memset@s^0,w,c
  7233  001800  26D9               	addwf	fsr2l,f,c
  7234  001802  500C               	movf	(i2memset@s+1)^0,w,c
  7235  001804  22DA               	addwfc	fsr2h,f,c
  7236  001806  C003  FFDF         	movff	i2memset@c,indf2
  7237  00180A  EE20 F002          	lfsr	2,2
  7238  00180E  500B               	movf	i2memset@s^0,w,c
  7239  001810  26D9               	addwf	fsr2l,f,c
  7240  001812  500C               	movf	(i2memset@s+1)^0,w,c
  7241  001814  22DA               	addwfc	fsr2h,f,c
  7242  001816  C003  FFDF         	movff	i2memset@c,indf2
  7243  00181A  5005               	movf	i2memset@n^0,w,c
  7244  00181C  240B               	addwf	i2memset@s^0,w,c
  7245  00181E  6E07               	movwf	??i2_memset^0,c
  7246  001820  5006               	movf	(i2memset@n+1)^0,w,c
  7247  001822  200C               	addwfc	(i2memset@s+1)^0,w,c
  7248  001824  6E08               	movwf	(??i2_memset+1)^0,c
  7249  001826  0EFE               	movlw	254
  7250  001828  2407               	addwf	??i2_memset^0,w,c
  7251  00182A  6ED9               	movwf	fsr2l,c
  7252  00182C  0EFF               	movlw	255
  7253  00182E  2008               	addwfc	(??i2_memset+1)^0,w,c
  7254  001830  6EDA               	movwf	fsr2h,c
  7255  001832  C003  FFDF         	movff	i2memset@c,indf2
  7256  001836  5005               	movf	i2memset@n^0,w,c
  7257  001838  240B               	addwf	i2memset@s^0,w,c
  7258  00183A  6E07               	movwf	??i2_memset^0,c
  7259  00183C  5006               	movf	(i2memset@n+1)^0,w,c
  7260  00183E  200C               	addwfc	(i2memset@s+1)^0,w,c
  7261  001840  6E08               	movwf	(??i2_memset+1)^0,c
  7262  001842  0EFD               	movlw	253
  7263  001844  2407               	addwf	??i2_memset^0,w,c
  7264  001846  6ED9               	movwf	fsr2l,c
  7265  001848  0EFF               	movlw	255
  7266  00184A  2008               	addwfc	(??i2_memset+1)^0,w,c
  7267  00184C  6EDA               	movwf	fsr2h,c
  7268  00184E  C003  FFDF         	movff	i2memset@c,indf2
  7269  001852  5006               	movf	(i2memset@n+1)^0,w,c
  7270  001854  E107               	bnz	i2u290_41
  7271  001856  0E07               	movlw	7
  7272  001858  5C05               	subwf	i2memset@n^0,w,c
  7273  00185A  B0D8               	btfsc	status,0,c
  7274  00185C  EF32  F00C         	goto	i2u290_41
  7275  001860  EF34  F00C         	goto	i2u290_40
  7276  001864                     i2u290_41:
  7277  001864  EF36  F00C         	goto	i2l4716
  7278  001868                     i2u290_40:
  7279  001868  EF87  F00C         	goto	i2l1885
  7280  00186C                     i2l4716:
  7281  00186C  EE20 F003          	lfsr	2,3
  7282  001870  500B               	movf	i2memset@s^0,w,c
  7283  001872  26D9               	addwf	fsr2l,f,c
  7284  001874  500C               	movf	(i2memset@s+1)^0,w,c
  7285  001876  22DA               	addwfc	fsr2h,f,c
  7286  001878  C003  FFDF         	movff	i2memset@c,indf2
  7287  00187C  5005               	movf	i2memset@n^0,w,c
  7288  00187E  240B               	addwf	i2memset@s^0,w,c
  7289  001880  6E07               	movwf	??i2_memset^0,c
  7290  001882  5006               	movf	(i2memset@n+1)^0,w,c
  7291  001884  200C               	addwfc	(i2memset@s+1)^0,w,c
  7292  001886  6E08               	movwf	(??i2_memset+1)^0,c
  7293  001888  0EFC               	movlw	252
  7294  00188A  2407               	addwf	??i2_memset^0,w,c
  7295  00188C  6ED9               	movwf	fsr2l,c
  7296  00188E  0EFF               	movlw	255
  7297  001890  2008               	addwfc	(??i2_memset+1)^0,w,c
  7298  001892  6EDA               	movwf	fsr2h,c
  7299  001894  C003  FFDF         	movff	i2memset@c,indf2
  7300  001898  5006               	movf	(i2memset@n+1)^0,w,c
  7301  00189A  E107               	bnz	i2u291_41
  7302  00189C  0E09               	movlw	9
  7303  00189E  5C05               	subwf	i2memset@n^0,w,c
  7304  0018A0  B0D8               	btfsc	status,0,c
  7305  0018A2  EF55  F00C         	goto	i2u291_41
  7306  0018A6  EF57  F00C         	goto	i2u291_40
  7307  0018AA                     i2u291_41:
  7308  0018AA  EF59  F00C         	goto	i2l4722
  7309  0018AE                     i2u291_40:
  7310  0018AE  EF87  F00C         	goto	i2l1885
  7311  0018B2                     i2l4722:
  7312  0018B2  C00B  F007         	movff	i2memset@s,??i2_memset
  7313  0018B6  C00C  F008         	movff	i2memset@s+1,??i2_memset+1
  7314  0018BA  1E07               	comf	??i2_memset^0,f,c
  7315  0018BC  1E08               	comf	(??i2_memset+1)^0,f,c
  7316  0018BE  4A07               	infsnz	??i2_memset^0,f,c
  7317  0018C0  2A08               	incf	(??i2_memset+1)^0,f,c
  7318  0018C2  0E03               	movlw	3
  7319  0018C4  1407               	andwf	??i2_memset^0,w,c
  7320  0018C6  6E09               	movwf	i2memset@k^0,c
  7321  0018C8  6A0A               	clrf	(i2memset@k+1)^0,c
  7322  0018CA  5009               	movf	i2memset@k^0,w,c
  7323  0018CC  260B               	addwf	i2memset@s^0,f,c
  7324  0018CE  500A               	movf	(i2memset@k+1)^0,w,c
  7325  0018D0  220C               	addwfc	(i2memset@s+1)^0,f,c
  7326  0018D2  5009               	movf	i2memset@k^0,w,c
  7327  0018D4  5E05               	subwf	i2memset@n^0,f,c
  7328  0018D6  500A               	movf	(i2memset@k+1)^0,w,c
  7329  0018D8  5A06               	subwfb	(i2memset@n+1)^0,f,c
  7330  0018DA  0EFC               	movlw	252
  7331  0018DC  1605               	andwf	i2memset@n^0,f,c
  7332  0018DE  0EFF               	movlw	255
  7333  0018E0  1606               	andwf	(i2memset@n+1)^0,f,c
  7334  0018E2  EF7E  F00C         	goto	i2l4730
  7335  0018E6                     i2l4724:
  7336  0018E6  C00B  FFD9         	movff	i2memset@s,fsr2l
  7337  0018EA  C00C  FFDA         	movff	i2memset@s+1,fsr2h
  7338  0018EE  C003  FFDF         	movff	i2memset@c,indf2
  7339  0018F2  0605               	decf	i2memset@n^0,f,c
  7340  0018F4  A0D8               	btfss	status,0,c
  7341  0018F6  0606               	decf	(i2memset@n+1)^0,f,c
  7342  0018F8  4A0B               	infsnz	i2memset@s^0,f,c
  7343  0018FA  2A0C               	incf	(i2memset@s+1)^0,f,c
  7344  0018FC                     i2l4730:
  7345  0018FC  5005               	movf	i2memset@n^0,w,c
  7346  0018FE  1006               	iorwf	(i2memset@n+1)^0,w,c
  7347  001900  A4D8               	btfss	status,2,c
  7348  001902  EF85  F00C         	goto	i2u292_41
  7349  001906  EF87  F00C         	goto	i2u292_40
  7350  00190A                     i2u292_41:
  7351  00190A  EF73  F00C         	goto	i2l4724
  7352  00190E                     i2u292_40:
  7353  00190E                     i2l1885:
  7354  00190E  0012               	return		;funcret
  7355  001910                     __end_ofi2_memset:
  7356                           	callstack 0
  7357                           
  7358 ;; *************** function _USBStdGetStatusHandler *****************
  7359 ;; Defined at:
  7360 ;;		line 2133 in file "mcc_generated_files/usb/usb_device.c"
  7361 ;; Parameters:    Size  Location     Type
  7362 ;;		None
  7363 ;; Auto vars:     Size  Location     Type
  7364 ;;  p               2    2[COMRAM] PTR struct __BDT
  7365 ;;		 -> RAM(2047), BDT(48), NULL(0), 
  7366 ;; Return value:  Size  Location     Type
  7367 ;;                  1    wreg      void 
  7368 ;; Registers used:
  7369 ;;		wreg, fsr2l, fsr2h, status,2, status,0, prodl, prodh
  7370 ;; Tracked objects:
  7371 ;;		On entry : 0/0
  7372 ;;		On exit  : 0/0
  7373 ;;		Unchanged: 0/0
  7374 ;; Data sizes:     COMRAM   BANK0   BANK1   BANK2   BANK3   BANK4   BANK5   BANK6   BANK7
  7375 ;;      Params:         0       0       0       0       0       0       0       0       0
  7376 ;;      Locals:         2       0       0       0       0       0       0       0       0
  7377 ;;      Temps:          2       0       0       0       0       0       0       0       0
  7378 ;;      Totals:         4       0       0       0       0       0       0       0       0
  7379 ;;Total ram usage:        4 bytes
  7380 ;; Hardware stack levels used: 1
  7381 ;; This function calls:
  7382 ;;		Nothing
  7383 ;; This function is called by:
  7384 ;;		_USBCheckStdRequest
  7385 ;; This function uses a non-reentrant model
  7386 ;;
  7387                           
  7388                           	psect	text38
  7389  0025BE                     __ptext38:
  7390                           	callstack 0
  7391  0025BE                     _USBStdGetStatusHandler:
  7392                           	callstack 17
  7393  0025BE                     
  7394                           ;mcc_generated_files/usb/usb_device.c: 2135:     CtrlTrfData[0] = 0;
  7395  0025BE  0E00               	movlw	0
  7396  0025C0  0104               	movlb	4	; () banked
  7397  0025C2  6F38               	movwf	56,b	;volatile
  7398                           
  7399                           ;mcc_generated_files/usb/usb_device.c: 2136:     CtrlTrfData[1] = 0;
  7400  0025C4  0E00               	movlw	0
  7401  0025C6  6F39               	movwf	57,b	;volatile
  7402                           
  7403                           ;mcc_generated_files/usb/usb_device.c: 2138:     switch(SetupPkt.Recipient)
  7404  0025C8  EF3C  F013         	goto	i2l4882
  7405  0025CC                     i2l495:
  7406                           
  7407                           ; BSR set to: 4
  7408                           ;mcc_generated_files/usb/usb_device.c: 2141:             inPipes[0].info.bits.busy = 1;
  7409  0025CC  0100               	movlb	0	; () banked
  7410  0025CE  8FD7               	bsf	(_inPipes+3)& (0+255),7,b	;volatile
  7411  0025D0                     
  7412                           ; BSR set to: 0
  7413                           ;mcc_generated_files/usb/usb_device.c: 2151:             if(RemoteWakeup == 1)
  7414  0025D0  044D               	decf	_RemoteWakeup^0,w,c	;volatile
  7415  0025D2  A4D8               	btfss	status,2,c
  7416  0025D4  EFEE  F012         	goto	i2u307_41
  7417  0025D8  EFF0  F012         	goto	i2u307_40
  7418  0025DC                     i2u307_41:
  7419  0025DC  EF56  F013         	goto	i2l498
  7420  0025E0                     i2u307_40:
  7421  0025E0                     
  7422                           ; BSR set to: 0
  7423                           ;mcc_generated_files/usb/usb_device.c: 2152:             {;mcc_generated_files/usb/usb_d
      +                          evice.c: 2153:                 CtrlTrfData[0]|=0x02;
  7424  0025E0  0104               	movlb	4	; () banked
  7425  0025E2  8338               	bsf	56,1,b	;volatile
  7426  0025E4  EF56  F013         	goto	i2l498
  7427  0025E8                     i2l499:
  7428                           
  7429                           ; BSR set to: 4
  7430                           ;mcc_generated_files/usb/usb_device.c: 2157:             inPipes[0].info.bits.busy = 1;
  7431  0025E8  0100               	movlb	0	; () banked
  7432  0025EA  8FD7               	bsf	(_inPipes+3)& (0+255),7,b	;volatile
  7433                           
  7434                           ;mcc_generated_files/usb/usb_device.c: 2158:             break;
  7435  0025EC  EF56  F013         	goto	i2l498
  7436  0025F0                     i2l500:
  7437                           
  7438                           ; BSR set to: 4
  7439                           ;mcc_generated_files/usb/usb_device.c: 2160:             inPipes[0].info.bits.busy = 1;
  7440  0025F0  0100               	movlb	0	; () banked
  7441  0025F2  8FD7               	bsf	(_inPipes+3)& (0+255),7,b	;volatile
  7442                           
  7443                           ;mcc_generated_files/usb/usb_device.c: 2164:             {;mcc_generated_files/usb/usb_d
      +                          evice.c: 2165:                 BDT_ENTRY *p;;mcc_generated_files/usb/usb_device.c: 2167:
      +                                           if(SetupPkt.EPDir == 0)
  7444  0025F4  0104               	movlb	4	; () banked
  7445  0025F6  BF34               	btfsc	52,7,b	;volatile
  7446  0025F8  EF00  F013         	goto	i2u308_41
  7447  0025FC  EF02  F013         	goto	i2u308_40
  7448  002600                     i2u308_41:
  7449  002600  EF13  F013         	goto	i2l4872
  7450  002604                     i2u308_40:
  7451  002604                     
  7452                           ; BSR set to: 4
  7453                           ;mcc_generated_files/usb/usb_device.c: 2168:                 {;mcc_generated_files/usb/u
      +                          sb_device.c: 2169:                     p = (BDT_ENTRY*)pBDTEntryOut[SetupPkt.EPNum];
  7454  002604  5134               	movf	52,w,b	;volatile
  7455  002606  0B0F               	andlw	15
  7456  002608  6E01               	movwf	??_USBStdGetStatusHandler^0,c
  7457  00260A  5001               	movf	??_USBStdGetStatusHandler^0,w,c
  7458  00260C  0D02               	mullw	2
  7459  00260E  0EE0               	movlw	low _pBDTEntryOut
  7460  002610  24F3               	addwf	243,w,c
  7461  002612  6ED9               	movwf	fsr2l,c
  7462  002614  0E00               	movlw	high _pBDTEntryOut
  7463  002616  20F4               	addwfc	prodh,w,c
  7464  002618  6EDA               	movwf	fsr2h,c
  7465  00261A  CFDE F003          	movff	postinc2,USBStdGetStatusHandler@p
  7466  00261E  CFDD F004          	movff	postdec2,USBStdGetStatusHandler@p+1
  7467                           
  7468                           ;mcc_generated_files/usb/usb_device.c: 2170:                 }
  7469  002622  EF22  F013         	goto	i2l4874
  7470  002626                     i2l4872:
  7471                           
  7472                           ; BSR set to: 4
  7473                           ;mcc_generated_files/usb/usb_device.c: 2172:                 {;mcc_generated_files/usb/u
      +                          sb_device.c: 2173:                     p = (BDT_ENTRY*)pBDTEntryIn[SetupPkt.EPNum];
  7474  002626  5134               	movf	52,w,b	;volatile
  7475  002628  0B0F               	andlw	15
  7476  00262A  6E01               	movwf	??_USBStdGetStatusHandler^0,c
  7477  00262C  5001               	movf	??_USBStdGetStatusHandler^0,w,c
  7478  00262E  0D02               	mullw	2
  7479  002630  0EDA               	movlw	low _pBDTEntryIn
  7480  002632  24F3               	addwf	243,w,c
  7481  002634  6ED9               	movwf	fsr2l,c
  7482  002636  0E00               	movlw	high _pBDTEntryIn
  7483  002638  20F4               	addwfc	prodh,w,c
  7484  00263A  6EDA               	movwf	fsr2h,c
  7485  00263C  CFDE F003          	movff	postinc2,USBStdGetStatusHandler@p
  7486  002640  CFDD F004          	movff	postdec2,USBStdGetStatusHandler@p+1
  7487  002644                     i2l4874:
  7488                           
  7489                           ; BSR set to: 4
  7490                           ;mcc_generated_files/usb/usb_device.c: 2176:                 if((p->STAT.UOWN == 1) && (
      +                          p->STAT.BSTALL == 1))
  7491  002644  C003  FFD9         	movff	USBStdGetStatusHandler@p,fsr2l
  7492  002648  C004  FFDA         	movff	USBStdGetStatusHandler@p+1,fsr2h
  7493  00264C  AEDF               	btfss	indf2,7,c
  7494  00264E  EF2B  F013         	goto	i2u309_41
  7495  002652  EF2D  F013         	goto	i2u309_40
  7496  002656                     i2u309_41:
  7497  002656  EF56  F013         	goto	i2l498
  7498  00265A                     i2u309_40:
  7499  00265A                     
  7500                           ; BSR set to: 4
  7501  00265A  C003  FFD9         	movff	USBStdGetStatusHandler@p,fsr2l
  7502  00265E  C004  FFDA         	movff	USBStdGetStatusHandler@p+1,fsr2h
  7503  002662  A4DF               	btfss	indf2,2,c
  7504  002664  EF36  F013         	goto	i2u310_41
  7505  002668  EF38  F013         	goto	i2u310_40
  7506  00266C                     i2u310_41:
  7507  00266C  EF56  F013         	goto	i2l498
  7508  002670                     i2u310_40:
  7509  002670                     
  7510                           ; BSR set to: 4
  7511                           ;mcc_generated_files/usb/usb_device.c: 2177:                     CtrlTrfData[0]=0x01;
  7512  002670  0E01               	movlw	1
  7513  002672  6F38               	movwf	56,b	;volatile
  7514  002674  EF56  F013         	goto	i2l498
  7515  002678                     i2l4882:
  7516                           
  7517                           ; BSR set to: 4
  7518  002678  5130               	movf	48,w,b	;volatile
  7519  00267A  0B1F               	andlw	31
  7520  00267C  6E01               	movwf	??_USBStdGetStatusHandler^0,c
  7521  00267E  6A02               	clrf	(??_USBStdGetStatusHandler+1)^0,c
  7522                           
  7523                           ; Switch on 2 bytes has been partitioned into a top level switch of size 1, and 1 sub-sw
      +                          itches
  7524                           ; Switch size 1, requested type "simple"
  7525                           ; Number of cases is 1, Range of values is 0 to 0
  7526                           ; switch strategies available:
  7527                           ; Name         Instructions Cycles
  7528                           ; simple_byte            4     3 (average)
  7529                           ;	Chosen strategy is simple_byte
  7530  002680  5002               	movf	(??_USBStdGetStatusHandler+1)^0,w,c
  7531  002682  0A00               	xorlw	0	; case 0
  7532  002684  B4D8               	btfsc	status,2,c
  7533  002686  EF47  F013         	goto	i2l7674
  7534  00268A  EF56  F013         	goto	i2l498
  7535  00268E                     i2l7674:
  7536                           
  7537                           ; BSR set to: 4
  7538                           ; Switch size 1, requested type "simple"
  7539                           ; Number of cases is 3, Range of values is 0 to 2
  7540                           ; switch strategies available:
  7541                           ; Name         Instructions Cycles
  7542                           ; simple_byte           10     6 (average)
  7543                           ;	Chosen strategy is simple_byte
  7544  00268E  5001               	movf	??_USBStdGetStatusHandler^0,w,c
  7545  002690  0A00               	xorlw	0	; case 0
  7546  002692  B4D8               	btfsc	status,2,c
  7547  002694  EFE6  F012         	goto	i2l495
  7548  002698  0A01               	xorlw	1	; case 1
  7549  00269A  B4D8               	btfsc	status,2,c
  7550  00269C  EFF4  F012         	goto	i2l499
  7551  0026A0  0A03               	xorlw	3	; case 2
  7552  0026A2  B4D8               	btfsc	status,2,c
  7553  0026A4  EFF8  F012         	goto	i2l500
  7554  0026A8  EF56  F013         	goto	i2l498
  7555  0026AC                     i2l498:
  7556                           
  7557                           ;mcc_generated_files/usb/usb_device.c: 2182:     if(inPipes[0].info.bits.busy == 1)
  7558  0026AC  0100               	movlb	0	; () banked
  7559  0026AE  AFD7               	btfss	(_inPipes+3)& (0+255),7,b	;volatile
  7560  0026B0  EF5C  F013         	goto	i2u311_41
  7561  0026B4  EF5E  F013         	goto	i2u311_40
  7562  0026B8                     i2u311_41:
  7563  0026B8  EF65  F013         	goto	i2l505
  7564  0026BC                     i2u311_40:
  7565  0026BC                     
  7566                           ; BSR set to: 0
  7567                           ;mcc_generated_files/usb/usb_device.c: 2183:     {;mcc_generated_files/usb/usb_device.c:
      +                           2184:         inPipes[0].pSrc.bRam = (uint8_t*)&CtrlTrfData;
  7568  0026BC  0E38               	movlw	56
  7569  0026BE  6FD4               	movwf	_inPipes& (0+255),b	;volatile
  7570  0026C0  0E04               	movlw	4
  7571  0026C2  6FD5               	movwf	(_inPipes+1)& (0+255),b	;volatile
  7572  0026C4                     
  7573                           ; BSR set to: 0
  7574                           ;mcc_generated_files/usb/usb_device.c: 2185:         inPipes[0].info.bits.ctrl_trf_mem =
      +                           0x01;
  7575  0026C4  81D7               	bsf	(_inPipes+3)& (0+255),0,b	;volatile
  7576  0026C6                     
  7577                           ; BSR set to: 0
  7578                           ;mcc_generated_files/usb/usb_device.c: 2186:         inPipes[0].wCount.v[0] = 2;
  7579  0026C6  0E02               	movlw	2
  7580  0026C8  6FD8               	movwf	(_inPipes+4)& (0+255),b	;volatile
  7581  0026CA                     i2l505:
  7582                           
  7583                           ; BSR set to: 0
  7584  0026CA  0012               	return		;funcret
  7585  0026CC                     __end_of_USBStdGetStatusHandler:
  7586                           	callstack 0
  7587                           
  7588 ;; *************** function _USBStdGetDscHandler *****************
  7589 ;; Defined at:
  7590 ;;		line 2047 in file "mcc_generated_files/usb/usb_device.c"
  7591 ;; Parameters:    Size  Location     Type
  7592 ;;		None
  7593 ;; Auto vars:     Size  Location     Type
  7594 ;;		None
  7595 ;; Return value:  Size  Location     Type
  7596 ;;                  1    wreg      void 
  7597 ;; Registers used:
  7598 ;;		wreg, fsr0l, fsr0h, status,2, status,0, tblptrl, tblptrh, tblptru, prodl, prodh
  7599 ;; Tracked objects:
  7600 ;;		On entry : 0/0
  7601 ;;		On exit  : 0/0
  7602 ;;		Unchanged: 0/0
  7603 ;; Data sizes:     COMRAM   BANK0   BANK1   BANK2   BANK3   BANK4   BANK5   BANK6   BANK7
  7604 ;;      Params:         0       0       0       0       0       0       0       0       0
  7605 ;;      Locals:         0       0       0       0       0       0       0       0       0
  7606 ;;      Temps:          2       0       0       0       0       0       0       0       0
  7607 ;;      Totals:         2       0       0       0       0       0       0       0       0
  7608 ;;Total ram usage:        2 bytes
  7609 ;; Hardware stack levels used: 1
  7610 ;; This function calls:
  7611 ;;		Nothing
  7612 ;; This function is called by:
  7613 ;;		_USBCheckStdRequest
  7614 ;; This function uses a non-reentrant model
  7615 ;;
  7616                           
  7617                           	psect	text39
  7618  001910                     __ptext39:
  7619                           	callstack 0
  7620  001910                     _USBStdGetDscHandler:
  7621                           	callstack 17
  7622  001910                     
  7623                           ;mcc_generated_files/usb/usb_device.c: 2049:     if(SetupPkt.bmRequestType == 0x80)
  7624  001910  0E80               	movlw	128
  7625  001912  0104               	movlb	4	; () banked
  7626  001914  1930               	xorwf	48,w,b	;volatile
  7627  001916  A4D8               	btfss	status,2,c
  7628  001918  EF90  F00C         	goto	i2u301_41
  7629  00191C  EF92  F00C         	goto	i2u301_40
  7630  001920                     i2u301_41:
  7631  001920  EF41  F00D         	goto	i2l491
  7632  001924                     i2u301_40:
  7633  001924                     
  7634                           ; BSR set to: 4
  7635                           ;mcc_generated_files/usb/usb_device.c: 2050:     {;mcc_generated_files/usb/usb_device.c:
      +                           2051:         inPipes[0].info.Val = 0x00 | 0x80 | 0x40;
  7636  001924  0EC0               	movlw	192
  7637  001926  0100               	movlb	0	; () banked
  7638  001928  6FD7               	movwf	(_inPipes+3)& (0+255),b	;volatile
  7639                           
  7640                           ;mcc_generated_files/usb/usb_device.c: 2053:         switch(SetupPkt.bDescriptorType)
  7641  00192A  EF27  F00D         	goto	i2l4856
  7642  00192E                     i2l4830:
  7643                           
  7644                           ; BSR set to: 4
  7645                           ;mcc_generated_files/usb/usb_device.c: 2059:                     inPipes[0].pSrc.bRom = 
      +                          (const uint8_t*)&device_dsc;
  7646  00192E  0EBA               	movlw	low _device_dsc
  7647  001930  0100               	movlb	0	; () banked
  7648  001932  6FD4               	movwf	_inPipes& (0+255),b	;volatile
  7649  001934  0E08               	movlw	high _device_dsc
  7650  001936  6FD5               	movwf	(_inPipes+1)& (0+255),b	;volatile
  7651  001938                     
  7652                           ; BSR set to: 0
  7653                           ;mcc_generated_files/usb/usb_device.c: 2061:                 inPipes[0].wCount.Val = siz
      +                          eof(device_dsc);
  7654  001938  0E00               	movlw	0
  7655  00193A  6FD9               	movwf	(_inPipes+5)& (0+255),b	;volatile
  7656  00193C  0E12               	movlw	18
  7657  00193E  6FD8               	movwf	(_inPipes+4)& (0+255),b	;volatile
  7658                           
  7659                           ;mcc_generated_files/usb/usb_device.c: 2062:                 break;
  7660  001940  EF41  F00D         	goto	i2l491
  7661  001944                     i2l4834:
  7662                           
  7663                           ; BSR set to: 4
  7664                           ;mcc_generated_files/usb/usb_device.c: 2067:                 if(SetupPkt.bDscIndex < 1)
  7665  001944  5132               	movf	50,w,b	;volatile
  7666  001946  A4D8               	btfss	status,2,c
  7667  001948  EFA8  F00C         	goto	i2u302_41
  7668  00194C  EFAA  F00C         	goto	i2u302_40
  7669  001950                     i2u302_41:
  7670  001950  EFEB  F00C         	goto	i2l4842
  7671  001954                     i2u302_40:
  7672  001954                     
  7673                           ; BSR set to: 4
  7674                           ;mcc_generated_files/usb/usb_device.c: 2068:                 {;mcc_generated_files/usb/u
      +                          sb_device.c: 2072:                         inPipes[0].pSrc.bRom = *(USB_CD_Ptr+SetupPkt.
      +                          bDscIndex);
  7675  001954  5132               	movf	50,w,b	;volatile
  7676  001956  0D02               	mullw	2
  7677  001958  0E27               	movlw	low _USB_CD_Ptr
  7678  00195A  24F3               	addwf	243,w,c
  7679  00195C  6EF6               	movwf	tblptrl,c
  7680  00195E  0E08               	movlw	high _USB_CD_Ptr
  7681  001960  20F4               	addwfc	244,w,c
  7682  001962  6EF7               	movwf	tblptrh,c
  7683  001964                     	if	0	;There are less than 3 active tblptr bytes
  7684  001964                     	endif
  7685  001964  0009               	tblrd		*+
  7686  001966  CFF5 F0D4          	movff	tablat,_inPipes	;volatile
  7687  00196A  000A               	tblrd		*-
  7688  00196C  CFF5 F0D5          	movff	tablat,_inPipes+1	;volatile
  7689  001970                     
  7690                           ; BSR set to: 4
  7691                           ;mcc_generated_files/usb/usb_device.c: 2078:                     inPipes[0].wCount.byte.
      +                          LB = *(inPipes[0].pSrc.bRom+2);
  7692  001970  0E02               	movlw	2
  7693  001972  0100               	movlb	0	; () banked
  7694  001974  25D4               	addwf	_inPipes& (0+255),w,b	;volatile
  7695  001976  6E01               	movwf	??_USBStdGetDscHandler^0,c
  7696  001978  0E00               	movlw	0
  7697  00197A  21D5               	addwfc	(_inPipes+1)& (0+255),w,b	;volatile
  7698  00197C  6E02               	movwf	(??_USBStdGetDscHandler+1)^0,c
  7699  00197E  C001  FFF6         	movff	??_USBStdGetDscHandler,tblptrl
  7700  001982  C002  FFF7         	movff	??_USBStdGetDscHandler+1,tblptrh
  7701  001986  6AF8               	clrf	tblptru,c
  7702  001988  0E07               	movlw	(high __ramtop+-1)
  7703  00198A  64F7               	cpfsgt	tblptrh,c
  7704  00198C  D003               	bra	i2u303_47
  7705  00198E  0008               	tblrd		*
  7706  001990  50F5               	movf	tablat,w,c
  7707  001992  D005               	bra	i2u303_40
  7708  001994                     i2u303_47:
  7709  001994  CFF6 FFE9          	movff	tblptrl,fsr0l
  7710  001998  CFF7 FFEA          	movff	tblptrh,fsr0h
  7711  00199C  50EF               	movf	indf0,w,c
  7712  00199E                     i2u303_40:
  7713  00199E  0100               	movlb	0	; () banked
  7714  0019A0  6FD8               	movwf	(_inPipes+4)& (0+255),b	;volatile
  7715  0019A2                     
  7716                           ; BSR set to: 0
  7717                           ;mcc_generated_files/usb/usb_device.c: 2079:                     inPipes[0].wCount.byte.
      +                          HB = *(inPipes[0].pSrc.bRom+3);
  7718  0019A2  0E03               	movlw	3
  7719  0019A4  25D4               	addwf	_inPipes& (0+255),w,b	;volatile
  7720  0019A6  6E01               	movwf	??_USBStdGetDscHandler^0,c
  7721  0019A8  0E00               	movlw	0
  7722  0019AA  21D5               	addwfc	(_inPipes+1)& (0+255),w,b	;volatile
  7723  0019AC  6E02               	movwf	(??_USBStdGetDscHandler+1)^0,c
  7724  0019AE  C001  FFF6         	movff	??_USBStdGetDscHandler,tblptrl
  7725  0019B2  C002  FFF7         	movff	??_USBStdGetDscHandler+1,tblptrh
  7726  0019B6  6AF8               	clrf	tblptru,c
  7727  0019B8  0E07               	movlw	(high __ramtop+-1)
  7728  0019BA  64F7               	cpfsgt	tblptrh,c
  7729  0019BC  D003               	bra	i2u304_47
  7730  0019BE  0008               	tblrd		*
  7731  0019C0  50F5               	movf	tablat,w,c
  7732  0019C2  D005               	bra	i2u304_40
  7733  0019C4                     i2u304_47:
  7734  0019C4  CFF6 FFE9          	movff	tblptrl,fsr0l
  7735  0019C8  CFF7 FFEA          	movff	tblptrh,fsr0h
  7736  0019CC  50EF               	movf	indf0,w,c
  7737  0019CE                     i2u304_40:
  7738  0019CE  0100               	movlb	0	; () banked
  7739  0019D0  6FD9               	movwf	(_inPipes+5)& (0+255),b	;volatile
  7740                           
  7741                           ;mcc_generated_files/usb/usb_device.c: 2080:                 }
  7742  0019D2  EF41  F00D         	goto	i2l491
  7743  0019D6                     i2l4842:
  7744                           
  7745                           ; BSR set to: 4
  7746                           ;mcc_generated_files/usb/usb_device.c: 2082:     {;mcc_generated_files/usb/usb_device.c:
      +                           2083:      inPipes[0].info.Val = 0;
  7747  0019D6  0E00               	movlw	0
  7748  0019D8  0100               	movlb	0	; () banked
  7749  0019DA  6FD7               	movwf	(_inPipes+3)& (0+255),b	;volatile
  7750  0019DC  EF41  F00D         	goto	i2l491
  7751  0019E0                     i2l4844:
  7752                           
  7753                           ; BSR set to: 4
  7754                           ;mcc_generated_files/usb/usb_device.c: 2090:                 if(SetupPkt.bDscIndex<3)
  7755  0019E0  0E03               	movlw	3
  7756  0019E2  6132               	cpfslt	50,b	;volatile
  7757  0019E4  EFF6  F00C         	goto	i2u305_41
  7758  0019E8  EFF8  F00C         	goto	i2u305_40
  7759  0019EC                     i2u305_41:
  7760  0019EC  EF1D  F00D         	goto	i2l4850
  7761  0019F0                     i2u305_40:
  7762  0019F0                     
  7763                           ; BSR set to: 4
  7764                           ;mcc_generated_files/usb/usb_device.c: 2091:                 {;mcc_generated_files/usb/u
      +                          sb_device.c: 2093:                     inPipes[0].pSrc.bRom = *(USB_SD_Ptr+SetupPkt.bDsc
      +                          Index);
  7765  0019F0  5132               	movf	50,w,b	;volatile
  7766  0019F2  0D02               	mullw	2
  7767  0019F4  0E21               	movlw	low _USB_SD_Ptr
  7768  0019F6  24F3               	addwf	243,w,c
  7769  0019F8  6EF6               	movwf	tblptrl,c
  7770  0019FA  0E08               	movlw	high _USB_SD_Ptr
  7771  0019FC  20F4               	addwfc	244,w,c
  7772  0019FE  6EF7               	movwf	tblptrh,c
  7773  001A00                     	if	0	;There are less than 3 active tblptr bytes
  7774  001A00                     	endif
  7775  001A00  0009               	tblrd		*+
  7776  001A02  CFF5 F0D4          	movff	tablat,_inPipes	;volatile
  7777  001A06  000A               	tblrd		*-
  7778  001A08  CFF5 F0D5          	movff	tablat,_inPipes+1	;volatile
  7779  001A0C                     
  7780                           ; BSR set to: 4
  7781                           ;mcc_generated_files/usb/usb_device.c: 2095:                     inPipes[0].wCount.Val =
      +                           *inPipes[0].pSrc.bRom;
  7782  001A0C  C0D4  FFF6         	movff	_inPipes,tblptrl	;volatile
  7783  001A10  C0D5  FFF7         	movff	_inPipes+1,tblptrh	;volatile
  7784  001A14  6AF8               	clrf	tblptru,c
  7785  001A16  0E07               	movlw	(high __ramtop+-1)
  7786  001A18  64F7               	cpfsgt	tblptrh,c
  7787  001A1A  D003               	bra	i2u306_47
  7788  001A1C  0008               	tblrd		*
  7789  001A1E  50F5               	movf	tablat,w,c
  7790  001A20  D005               	bra	i2u306_40
  7791  001A22                     i2u306_47:
  7792  001A22  CFF6 FFE9          	movff	tblptrl,fsr0l
  7793  001A26  CFF7 FFEA          	movff	tblptrh,fsr0h
  7794  001A2A  50EF               	movf	indf0,w,c
  7795  001A2C                     i2u306_40:
  7796  001A2C  6E01               	movwf	??_USBStdGetDscHandler^0,c
  7797  001A2E  5001               	movf	??_USBStdGetDscHandler^0,w,c
  7798  001A30  0100               	movlb	0	; () banked
  7799  001A32  6FD8               	movwf	(_inPipes+4)& (0+255),b	;volatile
  7800  001A34  6BD9               	clrf	(_inPipes+5)& (0+255),b	;volatile
  7801                           
  7802                           ;mcc_generated_files/usb/usb_device.c: 2096:                 }
  7803  001A36  EF41  F00D         	goto	i2l491
  7804  001A3A                     i2l4850:
  7805                           
  7806                           ; BSR set to: 4
  7807                           ;mcc_generated_files/usb/usb_device.c: 2107:                 {;mcc_generated_files/usb/u
      +                          sb_device.c: 2108:                     inPipes[0].info.Val = 0;
  7808  001A3A  0E00               	movlw	0
  7809  001A3C  0100               	movlb	0	; () banked
  7810  001A3E  6FD7               	movwf	(_inPipes+3)& (0+255),b	;volatile
  7811  001A40  EF41  F00D         	goto	i2l491
  7812  001A44                     i2l4852:
  7813                           
  7814                           ; BSR set to: 4
  7815                           ;mcc_generated_files/usb/usb_device.c: 2112:                 inPipes[0].info.Val = 0;
  7816  001A44  0E00               	movlw	0
  7817  001A46  0100               	movlb	0	; () banked
  7818  001A48  6FD7               	movwf	(_inPipes+3)& (0+255),b	;volatile
  7819                           
  7820                           ;mcc_generated_files/usb/usb_device.c: 2113:                 break;
  7821  001A4A  EF41  F00D         	goto	i2l491
  7822  001A4E                     i2l4856:
  7823                           
  7824                           ; BSR set to: 0
  7825  001A4E  0104               	movlb	4	; () banked
  7826  001A50  5133               	movf	51,w,b	;volatile
  7827  001A52  6E01               	movwf	??_USBStdGetDscHandler^0,c
  7828  001A54  6A02               	clrf	(??_USBStdGetDscHandler+1)^0,c
  7829                           
  7830                           ; Switch on 2 bytes has been partitioned into a top level switch of size 1, and 1 sub-sw
      +                          itches
  7831                           ; Switch size 1, requested type "simple"
  7832                           ; Number of cases is 1, Range of values is 0 to 0
  7833                           ; switch strategies available:
  7834                           ; Name         Instructions Cycles
  7835                           ; simple_byte            4     3 (average)
  7836                           ;	Chosen strategy is simple_byte
  7837  001A56  5002               	movf	(??_USBStdGetDscHandler+1)^0,w,c
  7838  001A58  0A00               	xorlw	0	; case 0
  7839  001A5A  B4D8               	btfsc	status,2,c
  7840  001A5C  EF32  F00D         	goto	i2l7676
  7841  001A60  EF22  F00D         	goto	i2l4852
  7842  001A64                     i2l7676:
  7843                           
  7844                           ; BSR set to: 4
  7845                           ; Switch size 1, requested type "simple"
  7846                           ; Number of cases is 3, Range of values is 1 to 3
  7847                           ; switch strategies available:
  7848                           ; Name         Instructions Cycles
  7849                           ; simple_byte           10     6 (average)
  7850                           ;	Chosen strategy is simple_byte
  7851  001A64  5001               	movf	??_USBStdGetDscHandler^0,w,c
  7852  001A66  0A01               	xorlw	1	; case 1
  7853  001A68  B4D8               	btfsc	status,2,c
  7854  001A6A  EF97  F00C         	goto	i2l4830
  7855  001A6E  0A03               	xorlw	3	; case 2
  7856  001A70  B4D8               	btfsc	status,2,c
  7857  001A72  EFA2  F00C         	goto	i2l4834
  7858  001A76  0A01               	xorlw	1	; case 3
  7859  001A78  B4D8               	btfsc	status,2,c
  7860  001A7A  EFF0  F00C         	goto	i2l4844
  7861  001A7E  EF22  F00D         	goto	i2l4852
  7862  001A82                     i2l491:
  7863  001A82  0012               	return		;funcret
  7864  001A84                     __end_of_USBStdGetDscHandler:
  7865                           	callstack 0
  7866                           
  7867 ;; *************** function _USBStdFeatureReqHandler *****************
  7868 ;; Defined at:
  7869 ;;		line 2758 in file "mcc_generated_files/usb/usb_device.c"
  7870 ;; Parameters:    Size  Location     Type
  7871 ;;		None
  7872 ;; Auto vars:     Size  Location     Type
  7873 ;;  p               2   25[COMRAM] PTR struct __BDT
  7874 ;;		 -> RAM(2047), BDT(48), NULL(0), 
  7875 ;;  pUEP            2   22[COMRAM] PTR unsigned char 
  7876 ;;		 -> UEP0(1), 
  7877 ;;  current_ep_d    1   24[COMRAM] struct .
  7878 ;; Return value:  Size  Location     Type
  7879 ;;                  1    wreg      void 
  7880 ;; Registers used:
  7881 ;;		wreg, fsr2l, fsr2h, status,2, status,0, prodl, prodh, cstack
  7882 ;; Tracked objects:
  7883 ;;		On entry : 0/0
  7884 ;;		On exit  : 0/0
  7885 ;;		Unchanged: 0/0
  7886 ;; Data sizes:     COMRAM   BANK0   BANK1   BANK2   BANK3   BANK4   BANK5   BANK6   BANK7
  7887 ;;      Params:         0       0       0       0       0       0       0       0       0
  7888 ;;      Locals:         5       0       0       0       0       0       0       0       0
  7889 ;;      Temps:          2       0       0       0       0       0       0       0       0
  7890 ;;      Totals:         7       0       0       0       0       0       0       0       0
  7891 ;;Total ram usage:        7 bytes
  7892 ;; Hardware stack levels used: 1
  7893 ;; Hardware stack levels required when called: 4
  7894 ;; This function calls:
  7895 ;;		_USER_USB_CALLBACK_EVENT_HANDLER
  7896 ;; This function is called by:
  7897 ;;		_USBCheckStdRequest
  7898 ;; This function uses a non-reentrant model
  7899 ;;
  7900                           
  7901                           	psect	text40
  7902  0008E0                     __ptext40:
  7903                           	callstack 0
  7904  0008E0                     _USBStdFeatureReqHandler:
  7905                           	callstack 13
  7906  0008E0                     
  7907                           ;mcc_generated_files/usb/usb_device.c: 2760:     BDT_ENTRY *p;;mcc_generated_files/usb/u
      +                          sb_device.c: 2761:     EP_STATUS current_ep_data;;mcc_generated_files/usb/usb_device.c: 
      +                          2765:         unsigned char* pUEP;;mcc_generated_files/usb/usb_device.c: 2803:     if((S
      +                          etupPkt.bFeature == 1)&&
  7908  0008E0  0104               	movlb	4	; () banked
  7909  0008E2  0532               	decf	50,w,b	;volatile
  7910  0008E4  A4D8               	btfss	status,2,c
  7911  0008E6  EF77  F004         	goto	i2u312_41
  7912  0008EA  EF79  F004         	goto	i2u312_40
  7913  0008EE                     i2u312_41:
  7914  0008EE  EF95  F004         	goto	i2l572
  7915  0008F2                     i2u312_40:
  7916  0008F2                     
  7917                           ; BSR set to: 4
  7918  0008F2  5130               	movf	48,w,b	;volatile
  7919  0008F4  0B1F               	andlw	31
  7920  0008F6  0900               	iorlw	0
  7921  0008F8  A4D8               	btfss	status,2,c
  7922  0008FA  EF81  F004         	goto	i2u313_41
  7923  0008FE  EF83  F004         	goto	i2u313_40
  7924  000902                     i2u313_41:
  7925  000902  EF95  F004         	goto	i2l572
  7926  000906                     i2u313_40:
  7927  000906                     
  7928                           ; BSR set to: 4
  7929                           ;mcc_generated_files/usb/usb_device.c: 2805:     {;mcc_generated_files/usb/usb_device.c:
      +                           2806:         inPipes[0].info.bits.busy = 1;
  7930  000906  0100               	movlb	0	; () banked
  7931  000908  8FD7               	bsf	(_inPipes+3)& (0+255),7,b	;volatile
  7932  00090A                     
  7933                           ; BSR set to: 0
  7934                           ;mcc_generated_files/usb/usb_device.c: 2807:         if(SetupPkt.bRequest == 3)
  7935  00090A  0E03               	movlw	3
  7936  00090C  0104               	movlb	4	; () banked
  7937  00090E  1931               	xorwf	49,w,b	;volatile
  7938  000910  A4D8               	btfss	status,2,c
  7939  000912  EF8D  F004         	goto	i2u314_41
  7940  000916  EF8F  F004         	goto	i2u314_40
  7941  00091A                     i2u314_41:
  7942  00091A  EF93  F004         	goto	i2l4904
  7943  00091E                     i2u314_40:
  7944  00091E                     
  7945                           ; BSR set to: 4
  7946                           ;mcc_generated_files/usb/usb_device.c: 2808:             RemoteWakeup = 1;
  7947  00091E  0E01               	movlw	1
  7948  000920  6E4D               	movwf	_RemoteWakeup^0,c	;volatile
  7949  000922  EF95  F004         	goto	i2l572
  7950  000926                     i2l4904:
  7951                           
  7952                           ; BSR set to: 4
  7953                           ;mcc_generated_files/usb/usb_device.c: 2810:             RemoteWakeup = 0;
  7954  000926  0E00               	movlw	0
  7955  000928  6E4D               	movwf	_RemoteWakeup^0,c	;volatile
  7956  00092A                     i2l572:
  7957                           
  7958                           ; BSR set to: 4
  7959                           ;mcc_generated_files/usb/usb_device.c: 2814:     if((SetupPkt.bFeature == 0)&&
  7960  00092A  5132               	movf	50,w,b	;volatile
  7961  00092C  A4D8               	btfss	status,2,c
  7962  00092E  EF9B  F004         	goto	i2u315_41
  7963  000932  EF9D  F004         	goto	i2u315_40
  7964  000936                     i2u315_41:
  7965  000936  EF1D  F006         	goto	i2l595
  7966  00093A                     i2u315_40:
  7967  00093A                     
  7968                           ; BSR set to: 4
  7969  00093A  5130               	movf	48,w,b	;volatile
  7970  00093C  0B1F               	andlw	31
  7971  00093E  0A02               	xorlw	2
  7972  000940  A4D8               	btfss	status,2,c
  7973  000942  EFA5  F004         	goto	i2u316_41
  7974  000946  EFA7  F004         	goto	i2u316_40
  7975  00094A                     i2u316_41:
  7976  00094A  EF1D  F006         	goto	i2l595
  7977  00094E                     i2u316_40:
  7978  00094E                     
  7979                           ; BSR set to: 4
  7980  00094E  5134               	movf	52,w,b	;volatile
  7981  000950  0B0F               	andlw	15
  7982  000952  0900               	iorlw	0
  7983  000954  B4D8               	btfsc	status,2,c
  7984  000956  EFAF  F004         	goto	i2u317_41
  7985  00095A  EFB1  F004         	goto	i2u317_40
  7986  00095E                     i2u317_41:
  7987  00095E  EF1D  F006         	goto	i2l595
  7988  000962                     i2u317_40:
  7989  000962                     
  7990                           ; BSR set to: 4
  7991  000962  5134               	movf	52,w,b	;volatile
  7992  000964  0B0F               	andlw	15
  7993  000966  6E15               	movwf	??_USBStdFeatureReqHandler^0,c
  7994  000968  0E03               	movlw	3
  7995  00096A  6015               	cpfslt	??_USBStdFeatureReqHandler^0,c
  7996  00096C  EFBA  F004         	goto	i2u318_41
  7997  000970  EFBC  F004         	goto	i2u318_40
  7998  000974                     i2u318_41:
  7999  000974  EF1D  F006         	goto	i2l595
  8000  000978                     i2u318_40:
  8001  000978                     
  8002                           ; BSR set to: 4
  8003  000978  0E20               	movlw	32
  8004  00097A  1850               	xorwf	_USBDeviceState^0,w,c	;volatile
  8005  00097C  A4D8               	btfss	status,2,c
  8006  00097E  EFC3  F004         	goto	i2u319_41
  8007  000982  EFC5  F004         	goto	i2u319_40
  8008  000986                     i2u319_41:
  8009  000986  EF1D  F006         	goto	i2l595
  8010  00098A                     i2u319_40:
  8011  00098A                     
  8012                           ; BSR set to: 4
  8013                           ;mcc_generated_files/usb/usb_device.c: 2818:     {;mcc_generated_files/usb/usb_device.c:
      +                           2821:   inPipes[0].info.bits.busy = 1;
  8014  00098A  0100               	movlb	0	; () banked
  8015  00098C  8FD7               	bsf	(_inPipes+3)& (0+255),7,b	;volatile
  8016                           
  8017                           ;mcc_generated_files/usb/usb_device.c: 2824:         if(SetupPkt.EPDir == 0)
  8018  00098E  0104               	movlb	4	; () banked
  8019  000990  BF34               	btfsc	52,7,b	;volatile
  8020  000992  EFCD  F004         	goto	i2u320_41
  8021  000996  EFCF  F004         	goto	i2u320_40
  8022  00099A                     i2u320_41:
  8023  00099A  EFEC  F004         	goto	i2l4920
  8024  00099E                     i2u320_40:
  8025  00099E                     
  8026                           ; BSR set to: 4
  8027                           ;mcc_generated_files/usb/usb_device.c: 2825:         {;mcc_generated_files/usb/usb_devic
      +                          e.c: 2826:             p = (BDT_ENTRY*)pBDTEntryOut[SetupPkt.EPNum];
  8028  00099E  5134               	movf	52,w,b	;volatile
  8029  0009A0  0B0F               	andlw	15
  8030  0009A2  6E15               	movwf	??_USBStdFeatureReqHandler^0,c
  8031  0009A4  5015               	movf	??_USBStdFeatureReqHandler^0,w,c
  8032  0009A6  0D02               	mullw	2
  8033  0009A8  0EE0               	movlw	low _pBDTEntryOut
  8034  0009AA  24F3               	addwf	243,w,c
  8035  0009AC  6ED9               	movwf	fsr2l,c
  8036  0009AE  0E00               	movlw	high _pBDTEntryOut
  8037  0009B0  20F4               	addwfc	prodh,w,c
  8038  0009B2  6EDA               	movwf	fsr2h,c
  8039  0009B4  CFDE F01A          	movff	postinc2,USBStdFeatureReqHandler@p
  8040  0009B8  CFDD F01B          	movff	postdec2,USBStdFeatureReqHandler@p+1
  8041  0009BC                     
  8042                           ; BSR set to: 4
  8043                           ;mcc_generated_files/usb/usb_device.c: 2827:             current_ep_data.Val = ep_data_o
      +                          ut[SetupPkt.EPNum].Val;
  8044  0009BC  5134               	movf	52,w,b	;volatile
  8045  0009BE  0B0F               	andlw	15
  8046  0009C0  6E15               	movwf	??_USBStdFeatureReqHandler^0,c
  8047  0009C2  6A16               	clrf	(??_USBStdFeatureReqHandler+1)^0,c
  8048  0009C4  0EE6               	movlw	low _ep_data_out
  8049  0009C6  2415               	addwf	??_USBStdFeatureReqHandler^0,w,c
  8050  0009C8  6ED9               	movwf	fsr2l,c
  8051  0009CA  0E00               	movlw	high _ep_data_out
  8052  0009CC  2016               	addwfc	(??_USBStdFeatureReqHandler+1)^0,w,c
  8053  0009CE  6EDA               	movwf	fsr2h,c
  8054  0009D0  50DF               	movf	indf2,w,c
  8055  0009D2  6E19               	movwf	USBStdFeatureReqHandler@current_ep_data^0,c
  8056                           
  8057                           ;mcc_generated_files/usb/usb_device.c: 2828:         }
  8058  0009D4  EF07  F005         	goto	i2l4924
  8059  0009D8                     i2l4920:
  8060                           
  8061                           ; BSR set to: 4
  8062                           ;mcc_generated_files/usb/usb_device.c: 2830:         {;mcc_generated_files/usb/usb_devic
      +                          e.c: 2831:             p = (BDT_ENTRY*)pBDTEntryIn[SetupPkt.EPNum];
  8063  0009D8  5134               	movf	52,w,b	;volatile
  8064  0009DA  0B0F               	andlw	15
  8065  0009DC  6E15               	movwf	??_USBStdFeatureReqHandler^0,c
  8066  0009DE  5015               	movf	??_USBStdFeatureReqHandler^0,w,c
  8067  0009E0  0D02               	mullw	2
  8068  0009E2  0EDA               	movlw	low _pBDTEntryIn
  8069  0009E4  24F3               	addwf	243,w,c
  8070  0009E6  6ED9               	movwf	fsr2l,c
  8071  0009E8  0E00               	movlw	high _pBDTEntryIn
  8072  0009EA  20F4               	addwfc	prodh,w,c
  8073  0009EC  6EDA               	movwf	fsr2h,c
  8074  0009EE  CFDE F01A          	movff	postinc2,USBStdFeatureReqHandler@p
  8075  0009F2  CFDD F01B          	movff	postdec2,USBStdFeatureReqHandler@p+1
  8076  0009F6                     
  8077                           ; BSR set to: 4
  8078                           ;mcc_generated_files/usb/usb_device.c: 2832:             current_ep_data.Val = ep_data_i
      +                          n[SetupPkt.EPNum].Val;
  8079  0009F6  5134               	movf	52,w,b	;volatile
  8080  0009F8  0B0F               	andlw	15
  8081  0009FA  6E15               	movwf	??_USBStdFeatureReqHandler^0,c
  8082  0009FC  6A16               	clrf	(??_USBStdFeatureReqHandler+1)^0,c
  8083  0009FE  0EE9               	movlw	low _ep_data_in
  8084  000A00  2415               	addwf	??_USBStdFeatureReqHandler^0,w,c
  8085  000A02  6ED9               	movwf	fsr2l,c
  8086  000A04  0E00               	movlw	high _ep_data_in
  8087  000A06  2016               	addwfc	(??_USBStdFeatureReqHandler+1)^0,w,c
  8088  000A08  6EDA               	movwf	fsr2h,c
  8089  000A0A  50DF               	movf	indf2,w,c
  8090  000A0C  6E19               	movwf	USBStdFeatureReqHandler@current_ep_data^0,c
  8091  000A0E                     i2l4924:
  8092                           
  8093                           ; BSR set to: 4
  8094                           ;mcc_generated_files/usb/usb_device.c: 2839:             if(current_ep_data.bits.ping_po
      +                          ng_state == 0)
  8095  000A0E  B019               	btfsc	USBStdFeatureReqHandler@current_ep_data^0,0,c
  8096  000A10  EF0C  F005         	goto	i2u321_41
  8097  000A14  EF0E  F005         	goto	i2u321_40
  8098  000A18                     i2u321_41:
  8099  000A18  EF16  F005         	goto	i2l4928
  8100  000A1C                     i2u321_40:
  8101  000A1C                     
  8102                           ; BSR set to: 4
  8103                           ;mcc_generated_files/usb/usb_device.c: 2840:             {;mcc_generated_files/usb/usb_d
      +                          evice.c: 2841:                 p = (BDT_ENTRY*)(((uint16_t)p) & (~0x0004));
  8104  000A1C  0EFB               	movlw	251
  8105  000A1E  141A               	andwf	USBStdFeatureReqHandler@p^0,w,c
  8106  000A20  6E1A               	movwf	USBStdFeatureReqHandler@p^0,c
  8107  000A22  0EFF               	movlw	255
  8108  000A24  141B               	andwf	(USBStdFeatureReqHandler@p+1)^0,w,c
  8109  000A26  6E1B               	movwf	(USBStdFeatureReqHandler@p+1)^0,c
  8110                           
  8111                           ;mcc_generated_files/usb/usb_device.c: 2842:             }
  8112  000A28  EF1B  F005         	goto	i2l4930
  8113  000A2C                     i2l4928:
  8114                           
  8115                           ; BSR set to: 4
  8116                           ;mcc_generated_files/usb/usb_device.c: 2844:             {;mcc_generated_files/usb/usb_d
      +                          evice.c: 2845:                 p = (BDT_ENTRY*)(((uint16_t)p) | 0x0004);
  8117  000A2C  0E04               	movlw	4
  8118  000A2E  101A               	iorwf	USBStdFeatureReqHandler@p^0,w,c
  8119  000A30  6E1A               	movwf	USBStdFeatureReqHandler@p^0,c
  8120  000A32  501B               	movf	(USBStdFeatureReqHandler@p+1)^0,w,c
  8121  000A34  6E1B               	movwf	(USBStdFeatureReqHandler@p+1)^0,c
  8122  000A36                     i2l4930:
  8123                           
  8124                           ; BSR set to: 4
  8125                           ;mcc_generated_files/usb/usb_device.c: 2851:         if(SetupPkt.EPDir == 0)
  8126  000A36  BF34               	btfsc	52,7,b	;volatile
  8127  000A38  EF20  F005         	goto	i2u322_41
  8128  000A3C  EF22  F005         	goto	i2u322_40
  8129  000A40                     i2u322_41:
  8130  000A40  EF33  F005         	goto	i2l4934
  8131  000A44                     i2u322_40:
  8132  000A44                     
  8133                           ; BSR set to: 4
  8134                           ;mcc_generated_files/usb/usb_device.c: 2852:         {;mcc_generated_files/usb/usb_devic
      +                          e.c: 2853:             pBDTEntryOut[SetupPkt.EPNum] = (volatile BDT_ENTRY *)p;
  8135  000A44  5134               	movf	52,w,b	;volatile
  8136  000A46  0B0F               	andlw	15
  8137  000A48  6E15               	movwf	??_USBStdFeatureReqHandler^0,c
  8138  000A4A  5015               	movf	??_USBStdFeatureReqHandler^0,w,c
  8139  000A4C  0D02               	mullw	2
  8140  000A4E  0EE0               	movlw	low _pBDTEntryOut
  8141  000A50  24F3               	addwf	243,w,c
  8142  000A52  6ED9               	movwf	fsr2l,c
  8143  000A54  0E00               	movlw	high _pBDTEntryOut
  8144  000A56  20F4               	addwfc	prodh,w,c
  8145  000A58  6EDA               	movwf	fsr2h,c
  8146  000A5A  C01A  FFDE         	movff	USBStdFeatureReqHandler@p,postinc2
  8147  000A5E  C01B  FFDD         	movff	USBStdFeatureReqHandler@p+1,postdec2
  8148                           
  8149                           ;mcc_generated_files/usb/usb_device.c: 2854:         }
  8150  000A62  EF42  F005         	goto	i2l4936
  8151  000A66                     i2l4934:
  8152                           
  8153                           ; BSR set to: 4
  8154                           ;mcc_generated_files/usb/usb_device.c: 2856:         {;mcc_generated_files/usb/usb_devic
      +                          e.c: 2857:             pBDTEntryIn[SetupPkt.EPNum] = (volatile BDT_ENTRY *)p;
  8155  000A66  5134               	movf	52,w,b	;volatile
  8156  000A68  0B0F               	andlw	15
  8157  000A6A  6E15               	movwf	??_USBStdFeatureReqHandler^0,c
  8158  000A6C  5015               	movf	??_USBStdFeatureReqHandler^0,w,c
  8159  000A6E  0D02               	mullw	2
  8160  000A70  0EDA               	movlw	low _pBDTEntryIn
  8161  000A72  24F3               	addwf	243,w,c
  8162  000A74  6ED9               	movwf	fsr2l,c
  8163  000A76  0E00               	movlw	high _pBDTEntryIn
  8164  000A78  20F4               	addwfc	prodh,w,c
  8165  000A7A  6EDA               	movwf	fsr2h,c
  8166  000A7C  C01A  FFDE         	movff	USBStdFeatureReqHandler@p,postinc2
  8167  000A80  C01B  FFDD         	movff	USBStdFeatureReqHandler@p+1,postdec2
  8168  000A84                     i2l4936:
  8169                           
  8170                           ; BSR set to: 4
  8171                           ;mcc_generated_files/usb/usb_device.c: 2861:         if(SetupPkt.bRequest == 3)
  8172  000A84  0E03               	movlw	3
  8173  000A86  1931               	xorwf	49,w,b	;volatile
  8174  000A88  A4D8               	btfss	status,2,c
  8175  000A8A  EF49  F005         	goto	i2u323_41
  8176  000A8E  EF4B  F005         	goto	i2u323_40
  8177  000A92                     i2u323_41:
  8178  000A92  EF85  F005         	goto	i2l4946
  8179  000A96                     i2u323_40:
  8180  000A96                     
  8181                           ; BSR set to: 4
  8182                           ;mcc_generated_files/usb/usb_device.c: 2862:         {;mcc_generated_files/usb/usb_devic
      +                          e.c: 2863:             if(p->STAT.UOWN == 1)
  8183  000A96  C01A  FFD9         	movff	USBStdFeatureReqHandler@p,fsr2l
  8184  000A9A  C01B  FFDA         	movff	USBStdFeatureReqHandler@p+1,fsr2h
  8185  000A9E  AEDF               	btfss	indf2,7,c
  8186  000AA0  EF54  F005         	goto	i2u324_41
  8187  000AA4  EF56  F005         	goto	i2u324_40
  8188  000AA8                     i2u324_41:
  8189  000AA8  EF77  F005         	goto	i2l583
  8190  000AAC                     i2u324_40:
  8191  000AAC                     
  8192                           ; BSR set to: 4
  8193                           ;mcc_generated_files/usb/usb_device.c: 2864:             {;mcc_generated_files/usb/usb_d
      +                          evice.c: 2867:                 if(SetupPkt.EPDir == 0)
  8194  000AAC  BF34               	btfsc	52,7,b	;volatile
  8195  000AAE  EF5B  F005         	goto	i2u325_41
  8196  000AB2  EF5D  F005         	goto	i2u325_40
  8197  000AB6                     i2u325_41:
  8198  000AB6  EF6B  F005         	goto	i2l4944
  8199  000ABA                     i2u325_40:
  8200  000ABA                     
  8201                           ; BSR set to: 4
  8202                           ;mcc_generated_files/usb/usb_device.c: 2868:                 {;mcc_generated_files/usb/u
      +                          sb_device.c: 2869:                     ep_data_out[SetupPkt.EPNum].bits.transfer_termina
      +                          ted = 1;
  8203  000ABA  5134               	movf	52,w,b	;volatile
  8204  000ABC  0B0F               	andlw	15
  8205  000ABE  6E15               	movwf	??_USBStdFeatureReqHandler^0,c
  8206  000AC0  6A16               	clrf	(??_USBStdFeatureReqHandler+1)^0,c
  8207  000AC2  0EE6               	movlw	low _ep_data_out
  8208  000AC4  2415               	addwf	??_USBStdFeatureReqHandler^0,w,c
  8209  000AC6  6ED9               	movwf	fsr2l,c
  8210  000AC8  0E00               	movlw	high _ep_data_out
  8211  000ACA  2016               	addwfc	(??_USBStdFeatureReqHandler+1)^0,w,c
  8212  000ACC  6EDA               	movwf	fsr2h,c
  8213  000ACE  0100               	movlb	0	; () banked
  8214  000AD0  82DF               	bsf	indf2,1,c
  8215                           
  8216                           ;mcc_generated_files/usb/usb_device.c: 2870:                 }
  8217  000AD2  EF77  F005         	goto	i2l583
  8218  000AD6                     i2l4944:
  8219                           
  8220                           ; BSR set to: 4
  8221                           ;mcc_generated_files/usb/usb_device.c: 2872:                 {;mcc_generated_files/usb/u
      +                          sb_device.c: 2873:                     ep_data_in[SetupPkt.EPNum].bits.transfer_terminat
      +                          ed = 1;
  8222  000AD6  5134               	movf	52,w,b	;volatile
  8223  000AD8  0B0F               	andlw	15
  8224  000ADA  6E15               	movwf	??_USBStdFeatureReqHandler^0,c
  8225  000ADC  6A16               	clrf	(??_USBStdFeatureReqHandler+1)^0,c
  8226  000ADE  0EE9               	movlw	low _ep_data_in
  8227  000AE0  2415               	addwf	??_USBStdFeatureReqHandler^0,w,c
  8228  000AE2  6ED9               	movwf	fsr2l,c
  8229  000AE4  0E00               	movlw	high _ep_data_in
  8230  000AE6  2016               	addwfc	(??_USBStdFeatureReqHandler+1)^0,w,c
  8231  000AE8  6EDA               	movwf	fsr2h,c
  8232  000AEA  0100               	movlb	0	; () banked
  8233  000AEC  82DF               	bsf	indf2,1,c
  8234  000AEE                     i2l583:
  8235                           
  8236                           ;mcc_generated_files/usb/usb_device.c: 2878:             p->STAT.Val |= 0x04;
  8237  000AEE  C01A  FFD9         	movff	USBStdFeatureReqHandler@p,fsr2l
  8238  000AF2  C01B  FFDA         	movff	USBStdFeatureReqHandler@p+1,fsr2h
  8239  000AF6  0E00               	movlw	0
  8240  000AF8  84DB               	bsf	plusw2,2,c
  8241                           
  8242                           ;mcc_generated_files/usb/usb_device.c: 2879:             p->STAT.Val |= 0x80;
  8243  000AFA  C01A  FFD9         	movff	USBStdFeatureReqHandler@p,fsr2l
  8244  000AFE  C01B  FFDA         	movff	USBStdFeatureReqHandler@p+1,fsr2h
  8245  000B02  0E00               	movlw	0
  8246  000B04  8EDB               	bsf	plusw2,7,c
  8247                           
  8248                           ;mcc_generated_files/usb/usb_device.c: 2880:         }
  8249  000B06  EF1D  F006         	goto	i2l595
  8250  000B0A                     i2l4946:
  8251                           
  8252                           ; BSR set to: 4
  8253                           ;mcc_generated_files/usb/usb_device.c: 2882:         {;mcc_generated_files/usb/usb_devic
      +                          e.c: 2886:                 p = (BDT_ENTRY*)(((uint16_t)p) ^ 0x0004);
  8254  000B0A  0E04               	movlw	4
  8255  000B0C  181A               	xorwf	USBStdFeatureReqHandler@p^0,w,c
  8256  000B0E  6E1A               	movwf	USBStdFeatureReqHandler@p^0,c
  8257  000B10  501B               	movf	(USBStdFeatureReqHandler@p+1)^0,w,c
  8258  000B12  6E1B               	movwf	(USBStdFeatureReqHandler@p+1)^0,c
  8259  000B14                     
  8260                           ; BSR set to: 4
  8261                           ;mcc_generated_files/usb/usb_device.c: 2888:                 if(p->STAT.UOWN == 1)
  8262  000B14  C01A  FFD9         	movff	USBStdFeatureReqHandler@p,fsr2l
  8263  000B18  C01B  FFDA         	movff	USBStdFeatureReqHandler@p+1,fsr2h
  8264  000B1C  AEDF               	btfss	indf2,7,c
  8265  000B1E  EF93  F005         	goto	i2u326_41
  8266  000B22  EF95  F005         	goto	i2u326_40
  8267  000B26                     i2u326_41:
  8268  000B26  EFB1  F005         	goto	i2l4956
  8269  000B2A                     i2u326_40:
  8270  000B2A                     
  8271                           ; BSR set to: 4
  8272                           ;mcc_generated_files/usb/usb_device.c: 2889:                 {;mcc_generated_files/usb/u
      +                          sb_device.c: 2892:                     p->STAT.Val &= (~0x80);
  8273  000B2A  C01A  FFD9         	movff	USBStdFeatureReqHandler@p,fsr2l
  8274  000B2E  C01B  FFDA         	movff	USBStdFeatureReqHandler@p+1,fsr2h
  8275  000B32  0E7F               	movlw	127
  8276  000B34  16DF               	andwf	indf2,f,c
  8277  000B36                     
  8278                           ; BSR set to: 4
  8279                           ;mcc_generated_files/usb/usb_device.c: 2893:                     p->STAT.Val |= 0x40;
  8280  000B36  C01A  FFD9         	movff	USBStdFeatureReqHandler@p,fsr2l
  8281  000B3A  C01B  FFDA         	movff	USBStdFeatureReqHandler@p+1,fsr2h
  8282  000B3E  0E00               	movlw	0
  8283  000B40  8CDB               	bsf	plusw2,6,c
  8284  000B42                     
  8285                           ; BSR set to: 4
  8286                           ;mcc_generated_files/usb/usb_device.c: 2894:                     USER_USB_CALLBACK_EVENT
      +                          _HANDLER((USB_EVENT)EVENT_TRANSFER_TERMINATED,p,sizeof(p));
  8287  000B42  0E00               	movlw	0
  8288  000B44  6E0E               	movwf	(USER_USB_CALLBACK_EVENT_HANDLER@event+1)^0,c
  8289  000B46  0E05               	movlw	5
  8290  000B48  6E0D               	movwf	USER_USB_CALLBACK_EVENT_HANDLER@event^0,c
  8291  000B4A  C01A  F00F         	movff	USBStdFeatureReqHandler@p,USER_USB_CALLBACK_EVENT_HANDLER@pdata
  8292  000B4E  C01B  F010         	movff	USBStdFeatureReqHandler@p+1,USER_USB_CALLBACK_EVENT_HANDLER@pdata+1
  8293  000B52  0E00               	movlw	0
  8294  000B54  6E12               	movwf	(USER_USB_CALLBACK_EVENT_HANDLER@size+1)^0,c
  8295  000B56  0E02               	movlw	2
  8296  000B58  6E11               	movwf	USER_USB_CALLBACK_EVENT_HANDLER@size^0,c
  8297  000B5A  ECE2  F017         	call	_USER_USB_CALLBACK_EVENT_HANDLER	;wreg free
  8298                           
  8299                           ;mcc_generated_files/usb/usb_device.c: 2895:                 }
  8300  000B5E  EFB7  F005         	goto	i2l4958
  8301  000B62                     i2l4956:
  8302                           
  8303                           ; BSR set to: 4
  8304                           ;mcc_generated_files/usb/usb_device.c: 2897:                 {;mcc_generated_files/usb/u
      +                          sb_device.c: 2899:      p->STAT.Val |= 0x40;
  8305  000B62  C01A  FFD9         	movff	USBStdFeatureReqHandler@p,fsr2l
  8306  000B66  C01B  FFDA         	movff	USBStdFeatureReqHandler@p+1,fsr2h
  8307  000B6A  0E00               	movlw	0
  8308  000B6C  8CDB               	bsf	plusw2,6,c
  8309  000B6E                     i2l4958:
  8310                           
  8311                           ;mcc_generated_files/usb/usb_device.c: 2904:                 p = (BDT_ENTRY*)(((uint16_t
      +                          )p) ^ 0x0004);
  8312  000B6E  0E04               	movlw	4
  8313  000B70  181A               	xorwf	USBStdFeatureReqHandler@p^0,w,c
  8314  000B72  6E1A               	movwf	USBStdFeatureReqHandler@p^0,c
  8315  000B74  501B               	movf	(USBStdFeatureReqHandler@p+1)^0,w,c
  8316  000B76  6E1B               	movwf	(USBStdFeatureReqHandler@p+1)^0,c
  8317  000B78                     
  8318                           ;mcc_generated_files/usb/usb_device.c: 2910:                 if((current_ep_data.bits.tr
      +                          ansfer_terminated != 0) || (p->STAT.UOWN == 1))
  8319  000B78  B219               	btfsc	USBStdFeatureReqHandler@current_ep_data^0,1,c
  8320  000B7A  EFC1  F005         	goto	i2u327_41
  8321  000B7E  EFC3  F005         	goto	i2u327_40
  8322  000B82                     i2u327_41:
  8323  000B82  EFCE  F005         	goto	i2l591
  8324  000B86                     i2u327_40:
  8325  000B86  C01A  FFD9         	movff	USBStdFeatureReqHandler@p,fsr2l
  8326  000B8A  C01B  FFDA         	movff	USBStdFeatureReqHandler@p+1,fsr2h
  8327  000B8E  AEDF               	btfss	indf2,7,c
  8328  000B90  EFCC  F005         	goto	i2u328_41
  8329  000B94  EFCE  F005         	goto	i2u328_40
  8330  000B98                     i2u328_41:
  8331  000B98  EF06  F006         	goto	i2l4972
  8332  000B9C                     i2u328_40:
  8333  000B9C                     i2l591:
  8334                           
  8335                           ;mcc_generated_files/usb/usb_device.c: 2911:                 {;mcc_generated_files/usb/u
      +                          sb_device.c: 2912:                     if(SetupPkt.EPDir == 0)
  8336  000B9C  0104               	movlb	4	; () banked
  8337  000B9E  BF34               	btfsc	52,7,b	;volatile
  8338  000BA0  EFD4  F005         	goto	i2u329_41
  8339  000BA4  EFD6  F005         	goto	i2u329_40
  8340  000BA8                     i2u329_41:
  8341  000BA8  EFE4  F005         	goto	i2l4966
  8342  000BAC                     i2u329_40:
  8343  000BAC                     
  8344                           ; BSR set to: 4
  8345                           ;mcc_generated_files/usb/usb_device.c: 2913:                     {;mcc_generated_files/u
      +                          sb/usb_device.c: 2914:                         ep_data_out[SetupPkt.EPNum].bits.transfer
      +                          _terminated = 0;
  8346  000BAC  5134               	movf	52,w,b	;volatile
  8347  000BAE  0B0F               	andlw	15
  8348  000BB0  6E15               	movwf	??_USBStdFeatureReqHandler^0,c
  8349  000BB2  6A16               	clrf	(??_USBStdFeatureReqHandler+1)^0,c
  8350  000BB4  0EE6               	movlw	low _ep_data_out
  8351  000BB6  2415               	addwf	??_USBStdFeatureReqHandler^0,w,c
  8352  000BB8  6ED9               	movwf	fsr2l,c
  8353  000BBA  0E00               	movlw	high _ep_data_out
  8354  000BBC  2016               	addwfc	(??_USBStdFeatureReqHandler+1)^0,w,c
  8355  000BBE  6EDA               	movwf	fsr2h,c
  8356  000BC0  0100               	movlb	0	; () banked
  8357  000BC2  92DF               	bcf	indf2,1,c
  8358                           
  8359                           ;mcc_generated_files/usb/usb_device.c: 2915:                     }
  8360  000BC4  EFF0  F005         	goto	i2l4968
  8361  000BC8                     i2l4966:
  8362                           
  8363                           ; BSR set to: 4
  8364                           ;mcc_generated_files/usb/usb_device.c: 2917:                     {;mcc_generated_files/u
      +                          sb/usb_device.c: 2918:                         ep_data_in[SetupPkt.EPNum].bits.transfer_
      +                          terminated = 0;
  8365  000BC8  5134               	movf	52,w,b	;volatile
  8366  000BCA  0B0F               	andlw	15
  8367  000BCC  6E15               	movwf	??_USBStdFeatureReqHandler^0,c
  8368  000BCE  6A16               	clrf	(??_USBStdFeatureReqHandler+1)^0,c
  8369  000BD0  0EE9               	movlw	low _ep_data_in
  8370  000BD2  2415               	addwf	??_USBStdFeatureReqHandler^0,w,c
  8371  000BD4  6ED9               	movwf	fsr2l,c
  8372  000BD6  0E00               	movlw	high _ep_data_in
  8373  000BD8  2016               	addwfc	(??_USBStdFeatureReqHandler+1)^0,w,c
  8374  000BDA  6EDA               	movwf	fsr2h,c
  8375  000BDC  0100               	movlb	0	; () banked
  8376  000BDE  92DF               	bcf	indf2,1,c
  8377  000BE0                     i2l4968:
  8378                           
  8379                           ; BSR set to: 0
  8380                           ;mcc_generated_files/usb/usb_device.c: 2921:                     p->STAT.Val &= ~(0x80 |
      +                           0x40 | 0x04);
  8381  000BE0  C01A  FFD9         	movff	USBStdFeatureReqHandler@p,fsr2l
  8382  000BE4  C01B  FFDA         	movff	USBStdFeatureReqHandler@p+1,fsr2h
  8383  000BE8  0E3B               	movlw	59
  8384  000BEA  16DF               	andwf	indf2,f,c
  8385  000BEC                     
  8386                           ; BSR set to: 0
  8387                           ;mcc_generated_files/usb/usb_device.c: 2924:                     USER_USB_CALLBACK_EVENT
      +                          _HANDLER((USB_EVENT)EVENT_TRANSFER_TERMINATED,p,sizeof(p));
  8388  000BEC  0E00               	movlw	0
  8389  000BEE  6E0E               	movwf	(USER_USB_CALLBACK_EVENT_HANDLER@event+1)^0,c
  8390  000BF0  0E05               	movlw	5
  8391  000BF2  6E0D               	movwf	USER_USB_CALLBACK_EVENT_HANDLER@event^0,c
  8392  000BF4  C01A  F00F         	movff	USBStdFeatureReqHandler@p,USER_USB_CALLBACK_EVENT_HANDLER@pdata
  8393  000BF8  C01B  F010         	movff	USBStdFeatureReqHandler@p+1,USER_USB_CALLBACK_EVENT_HANDLER@pdata+1
  8394  000BFC  0E00               	movlw	0
  8395  000BFE  6E12               	movwf	(USER_USB_CALLBACK_EVENT_HANDLER@size+1)^0,c
  8396  000C00  0E02               	movlw	2
  8397  000C02  6E11               	movwf	USER_USB_CALLBACK_EVENT_HANDLER@size^0,c
  8398  000C04  ECE2  F017         	call	_USER_USB_CALLBACK_EVENT_HANDLER	;wreg free
  8399                           
  8400                           ;mcc_generated_files/usb/usb_device.c: 2925:                 }
  8401  000C08  EF0C  F006         	goto	i2l4974
  8402  000C0C                     i2l4972:
  8403                           
  8404                           ;mcc_generated_files/usb/usb_device.c: 2927:                 {;mcc_generated_files/usb/u
      +                          sb_device.c: 2929:                     p->STAT.Val &= ~(0x80 | 0x40 | 0x04);
  8405  000C0C  C01A  FFD9         	movff	USBStdFeatureReqHandler@p,fsr2l
  8406  000C10  C01B  FFDA         	movff	USBStdFeatureReqHandler@p+1,fsr2h
  8407  000C14  0E3B               	movlw	59
  8408  000C16  16DF               	andwf	indf2,f,c
  8409  000C18                     i2l4974:
  8410                           
  8411                           ;mcc_generated_files/usb/usb_device.c: 2977:                 pUEP = (unsigned char*)(&UE
      +                          P0+SetupPkt.EPNum);
  8412  000C18  0104               	movlb	4	; () banked
  8413  000C1A  5134               	movf	52,w,b	;volatile
  8414  000C1C  0B0F               	andlw	15
  8415  000C1E  6E15               	movwf	??_USBStdFeatureReqHandler^0,c
  8416  000C20  6A16               	clrf	(??_USBStdFeatureReqHandler+1)^0,c
  8417  000C22  0E6A               	movlw	106
  8418  000C24  2415               	addwf	??_USBStdFeatureReqHandler^0,w,c
  8419  000C26  6E17               	movwf	USBStdFeatureReqHandler@pUEP^0,c
  8420  000C28  0E0F               	movlw	15
  8421  000C2A  2016               	addwfc	(??_USBStdFeatureReqHandler+1)^0,w,c
  8422  000C2C  6E18               	movwf	(USBStdFeatureReqHandler@pUEP+1)^0,c
  8423  000C2E                     
  8424                           ; BSR set to: 4
  8425                           ;mcc_generated_files/usb/usb_device.c: 2981:             *pUEP &= ~0x0001;
  8426  000C2E  C017  FFD9         	movff	USBStdFeatureReqHandler@pUEP,fsr2l
  8427  000C32  C018  FFDA         	movff	USBStdFeatureReqHandler@pUEP+1,fsr2h
  8428  000C36  0EFE               	movlw	254
  8429  000C38  16DF               	andwf	indf2,f,c
  8430  000C3A                     i2l595:
  8431  000C3A  0012               	return		;funcret
  8432  000C3C                     __end_of_USBStdFeatureReqHandler:
  8433                           	callstack 0
  8434                           
  8435 ;; *************** function _USER_USB_CALLBACK_EVENT_HANDLER *****************
  8436 ;; Defined at:
  8437 ;;		line 49 in file "mcc_generated_files/usb/usb_device_events.c"
  8438 ;; Parameters:    Size  Location     Type
  8439 ;;  event           2   12[COMRAM] enum E46
  8440 ;;  pdata           2   14[COMRAM] PTR void 
  8441 ;;		 -> RAM(2047), USTATcopy(1), USBActiveConfiguration(1), BDT(48), 
  8442 ;;		 -> NULL(0), 
  8443 ;;  size            2   16[COMRAM] unsigned short 
  8444 ;; Auto vars:     Size  Location     Type
  8445 ;;		None
  8446 ;; Return value:  Size  Location     Type
  8447 ;;                  1    wreg      _Bool 
  8448 ;; Registers used:
  8449 ;;		wreg, fsr2l, fsr2h, status,2, status,0, prodl, prodh, cstack
  8450 ;; Tracked objects:
  8451 ;;		On entry : 0/0
  8452 ;;		On exit  : 0/0
  8453 ;;		Unchanged: 0/0
  8454 ;; Data sizes:     COMRAM   BANK0   BANK1   BANK2   BANK3   BANK4   BANK5   BANK6   BANK7
  8455 ;;      Params:         6       0       0       0       0       0       0       0       0
  8456 ;;      Locals:         0       0       0       0       0       0       0       0       0
  8457 ;;      Temps:          2       0       0       0       0       0       0       0       0
  8458 ;;      Totals:         8       0       0       0       0       0       0       0       0
  8459 ;;Total ram usage:        8 bytes
  8460 ;; Hardware stack levels used: 1
  8461 ;; Hardware stack levels required when called: 3
  8462 ;; This function calls:
  8463 ;;		_CDCInitEP
  8464 ;;		_USBCheckCDCRequest
  8465 ;; This function is called by:
  8466 ;;		_USBDeviceTasks
  8467 ;;		_USBStdSetCfgHandler
  8468 ;;		_USBSuspend
  8469 ;;		_USBWakeFromSuspend
  8470 ;;		_USBCtrlTrfSetupHandler
  8471 ;;		_USBCheckStdRequest
  8472 ;;		_USBStdFeatureReqHandler
  8473 ;; This function uses a non-reentrant model
  8474 ;;
  8475                           
  8476                           	psect	text41
  8477  002FC4                     __ptext41:
  8478                           	callstack 0
  8479  002FC4                     _USER_USB_CALLBACK_EVENT_HANDLER:
  8480                           	callstack 17
  8481  002FC4                     
  8482                           ;mcc_generated_files/usb/usb_device_events.c: 49: _Bool USER_USB_CALLBACK_EVENT_HANDLER(
      +                          USB_EVENT event, void *pdata, uint16_t size);mcc_generated_files/usb/usb_device_events.c
      +                          : 50: {;mcc_generated_files/usb/usb_device_events.c: 51:     switch( (int) event )
  8483  002FC4  EFEC  F017         	goto	i2l4628
  8484  002FC8                     i2l4622:
  8485                           
  8486                           ;mcc_generated_files/usb/usb_device_events.c: 76:             CDCInitEP();
  8487  002FC8  EC98  F018         	call	_CDCInitEP	;wreg free
  8488                           
  8489                           ;mcc_generated_files/usb/usb_device_events.c: 77:             break;
  8490  002FCC  EF25  F018         	goto	i2l624
  8491  002FD0                     i2l4624:
  8492                           
  8493                           ;mcc_generated_files/usb/usb_device_events.c: 85:             USBCheckCDCRequest();
  8494  002FD0  EC66  F013         	call	_USBCheckCDCRequest	;wreg free
  8495                           
  8496                           ;mcc_generated_files/usb/usb_device_events.c: 86:             break;
  8497  002FD4  EF25  F018         	goto	i2l624
  8498  002FD8                     i2l4628:
  8499  002FD8  C00D  F013         	movff	USER_USB_CALLBACK_EVENT_HANDLER@event,??_USER_USB_CALLBACK_EVENT_HANDLER
  8500  002FDC  C00E  F014         	movff	USER_USB_CALLBACK_EVENT_HANDLER@event+1,??_USER_USB_CALLBACK_EVENT_HANDLER+1
  8501                           
  8502                           ; Switch on 2 bytes has been partitioned into a top level switch of size 1, and 2 sub-sw
      +                          itches
  8503                           ; Switch size 1, requested type "simple"
  8504                           ; Number of cases is 2, Range of values is 0 to 127
  8505                           ; switch strategies available:
  8506                           ; Name         Instructions Cycles
  8507                           ; simple_byte            7     4 (average)
  8508                           ;	Chosen strategy is simple_byte
  8509  002FE0  5014               	movf	(??_USER_USB_CALLBACK_EVENT_HANDLER+1)^0,w,c
  8510  002FE2  0A00               	xorlw	0	; case 0
  8511  002FE4  B4D8               	btfsc	status,2,c
  8512  002FE6  EFFB  F017         	goto	i2l7678
  8513  002FEA  0A7F               	xorlw	127	; case 127
  8514  002FEC  B4D8               	btfsc	status,2,c
  8515  002FEE  EF1E  F018         	goto	i2l7680
  8516  002FF2  EF25  F018         	goto	i2l624
  8517  002FF6                     i2l7678:
  8518                           
  8519                           ; Switch size 1, requested type "simple"
  8520                           ; Number of cases is 8, Range of values is 1 to 117
  8521                           ; switch strategies available:
  8522                           ; Name         Instructions Cycles
  8523                           ; simple_byte           25    13 (average)
  8524                           ;	Chosen strategy is simple_byte
  8525  002FF6  5013               	movf	??_USER_USB_CALLBACK_EVENT_HANDLER^0,w,c
  8526  002FF8  0A01               	xorlw	1	; case 1
  8527  002FFA  B4D8               	btfsc	status,2,c
  8528  002FFC  EFE4  F017         	goto	i2l4622
  8529  003000  0A03               	xorlw	3	; case 2
  8530  003002  B4D8               	btfsc	status,2,c
  8531  003004  EF25  F018         	goto	i2l624
  8532  003008  0A01               	xorlw	1	; case 3
  8533  00300A  B4D8               	btfsc	status,2,c
  8534  00300C  EFE8  F017         	goto	i2l4624
  8535  003010  0A06               	xorlw	6	; case 5
  8536  003012  B4D8               	btfsc	status,2,c
  8537  003014  EF25  F018         	goto	i2l624
  8538  003018  0A77               	xorlw	119	; case 114
  8539  00301A  B4D8               	btfsc	status,2,c
  8540  00301C  EF25  F018         	goto	i2l624
  8541  003020  0A01               	xorlw	1	; case 115
  8542  003022  B4D8               	btfsc	status,2,c
  8543  003024  EF25  F018         	goto	i2l624
  8544  003028  0A07               	xorlw	7	; case 116
  8545  00302A  B4D8               	btfsc	status,2,c
  8546  00302C  EF25  F018         	goto	i2l624
  8547  003030  0A01               	xorlw	1	; case 117
  8548  003032  B4D8               	btfsc	status,2,c
  8549  003034  EF25  F018         	goto	i2l624
  8550  003038  EF25  F018         	goto	i2l624
  8551  00303C                     i2l7680:
  8552                           
  8553                           ; Switch size 1, requested type "simple"
  8554                           ; Number of cases is 1, Range of values is 255 to 255
  8555                           ; switch strategies available:
  8556                           ; Name         Instructions Cycles
  8557                           ; simple_byte            4     3 (average)
  8558                           ;	Chosen strategy is simple_byte
  8559  00303C  5013               	movf	??_USER_USB_CALLBACK_EVENT_HANDLER^0,w,c
  8560  00303E  0AFF               	xorlw	255	; case 255
  8561  003040  B4D8               	btfsc	status,2,c
  8562  003042  EF25  F018         	goto	i2l624
  8563  003046  EF25  F018         	goto	i2l624
  8564  00304A                     i2l624:
  8565  00304A  0012               	return		;funcret
  8566  00304C                     __end_of_USER_USB_CALLBACK_EVENT_HANDLER:
  8567                           	callstack 0
  8568                           
  8569 ;; *************** function _USBCheckCDCRequest *****************
  8570 ;; Defined at:
  8571 ;;		line 147 in file "mcc_generated_files/usb/usb_device_cdc.c"
  8572 ;; Parameters:    Size  Location     Type
  8573 ;;		None
  8574 ;; Auto vars:     Size  Location     Type
  8575 ;;		None
  8576 ;; Return value:  Size  Location     Type
  8577 ;;                  1    wreg      void 
  8578 ;; Registers used:
  8579 ;;		wreg, status,2, status,0
  8580 ;; Tracked objects:
  8581 ;;		On entry : 0/0
  8582 ;;		On exit  : 0/0
  8583 ;;		Unchanged: 0/0
  8584 ;; Data sizes:     COMRAM   BANK0   BANK1   BANK2   BANK3   BANK4   BANK5   BANK6   BANK7
  8585 ;;      Params:         0       0       0       0       0       0       0       0       0
  8586 ;;      Locals:         0       0       0       0       0       0       0       0       0
  8587 ;;      Temps:          2       0       0       0       0       0       0       0       0
  8588 ;;      Totals:         2       0       0       0       0       0       0       0       0
  8589 ;;Total ram usage:        2 bytes
  8590 ;; Hardware stack levels used: 1
  8591 ;; This function calls:
  8592 ;;		Nothing
  8593 ;; This function is called by:
  8594 ;;		_USER_USB_CALLBACK_EVENT_HANDLER
  8595 ;; This function uses a non-reentrant model
  8596 ;;
  8597                           
  8598                           	psect	text42
  8599  0026CC                     __ptext42:
  8600                           	callstack 0
  8601  0026CC                     _USBCheckCDCRequest:
  8602                           	callstack 19
  8603  0026CC                     
  8604                           ;mcc_generated_files/usb/usb_device_cdc.c: 152:     if(SetupPkt.Recipient != (0x01)) ret
      +                          urn;
  8605  0026CC  0104               	movlb	4	; () banked
  8606  0026CE  5130               	movf	48,w,b	;volatile
  8607  0026D0  0B1F               	andlw	31
  8608  0026D2  06E8               	decf	wreg,f,c
  8609  0026D4  B4D8               	btfsc	status,2,c
  8610  0026D6  EF6F  F013         	goto	i2u270_41
  8611  0026DA  EF71  F013         	goto	i2u270_40
  8612  0026DE                     i2u270_41:
  8613  0026DE  EF73  F013         	goto	i2l4564
  8614  0026E2                     i2u270_40:
  8615  0026E2  EFEB  F013         	goto	i2l670
  8616  0026E6                     i2l4564:
  8617                           
  8618                           ; BSR set to: 4
  8619                           ;mcc_generated_files/usb/usb_device_cdc.c: 157:     if(SetupPkt.RequestType != (0x20>>5)
      +                          ) return;
  8620  0026E6  3930               	swapf	48,w,b	;volatile
  8621  0026E8  32E8               	rrcf	wreg,f,c
  8622  0026EA  0B03               	andlw	3
  8623  0026EC  06E8               	decf	wreg,f,c
  8624  0026EE  B4D8               	btfsc	status,2,c
  8625  0026F0  EF7C  F013         	goto	i2u271_41
  8626  0026F4  EF7E  F013         	goto	i2u271_40
  8627  0026F8                     i2u271_41:
  8628  0026F8  EF80  F013         	goto	i2l4568
  8629  0026FC                     i2u271_40:
  8630  0026FC  EFEB  F013         	goto	i2l670
  8631  002700                     i2l4568:
  8632                           
  8633                           ; BSR set to: 4
  8634                           ;mcc_generated_files/usb/usb_device_cdc.c: 163:     if((SetupPkt.bIntfID != 0x0)&&
  8635  002700  5134               	movf	52,w,b	;volatile
  8636  002702  B4D8               	btfsc	status,2,c
  8637  002704  EF86  F013         	goto	i2u272_41
  8638  002708  EF88  F013         	goto	i2u272_40
  8639  00270C                     i2u272_41:
  8640  00270C  EFCA  F013         	goto	i2l4598
  8641  002710                     i2u272_40:
  8642  002710                     
  8643                           ; BSR set to: 4
  8644  002710  0534               	decf	52,w,b	;volatile
  8645  002712  B4D8               	btfsc	status,2,c
  8646  002714  EF8E  F013         	goto	i2u273_41
  8647  002718  EF90  F013         	goto	i2u273_40
  8648  00271C                     i2u273_41:
  8649  00271C  EFCA  F013         	goto	i2l4598
  8650  002720                     i2u273_40:
  8651  002720  EFEB  F013         	goto	i2l670
  8652  002724                     i2l4574:
  8653                           
  8654                           ; BSR set to: 4
  8655                           ;mcc_generated_files/usb/usb_device_cdc.c: 171:             inPipes[0].pSrc.bRam = (uint
      +                          8_t*)&dummy_encapsulated_cmd_response;
  8656  002724  0E52               	movlw	low _dummy_encapsulated_cmd_response
  8657  002726  0100               	movlb	0	; () banked
  8658  002728  6FD4               	movwf	_inPipes& (0+255),b	;volatile
  8659  00272A  0E01               	movlw	high _dummy_encapsulated_cmd_response
  8660  00272C  6FD5               	movwf	(_inPipes+1)& (0+255),b	;volatile
  8661  00272E                     
  8662                           ; BSR set to: 0
  8663                           ;mcc_generated_files/usb/usb_device_cdc.c: 172:             inPipes[0].wCount.Val = 0x08
      +                          ;
  8664  00272E  0E00               	movlw	0
  8665  002730  6FD9               	movwf	(_inPipes+5)& (0+255),b	;volatile
  8666  002732  0E08               	movlw	8
  8667  002734  6FD8               	movwf	(_inPipes+4)& (0+255),b	;volatile
  8668  002736                     
  8669                           ; BSR set to: 0
  8670                           ;mcc_generated_files/usb/usb_device_cdc.c: 173:             inPipes[0].info.bits.ctrl_tr
      +                          f_mem = 0x01;
  8671  002736  81D7               	bsf	(_inPipes+3)& (0+255),0,b	;volatile
  8672  002738                     
  8673                           ; BSR set to: 0
  8674                           ;mcc_generated_files/usb/usb_device_cdc.c: 174:             inPipes[0].info.bits.busy = 
      +                          1;
  8675  002738  8FD7               	bsf	(_inPipes+3)& (0+255),7,b	;volatile
  8676                           
  8677                           ;mcc_generated_files/usb/usb_device_cdc.c: 175:             break;
  8678  00273A  EFEB  F013         	goto	i2l670
  8679  00273E                     i2l4582:
  8680                           
  8681                           ; BSR set to: 4
  8682                           ;mcc_generated_files/usb/usb_device_cdc.c: 178:             inPipes[0].pSrc.bRam = (uint
      +                          8_t*)&dummy_encapsulated_cmd_response;
  8683  00273E  0E52               	movlw	low _dummy_encapsulated_cmd_response
  8684  002740  0100               	movlb	0	; () banked
  8685  002742  6FD4               	movwf	_inPipes& (0+255),b	;volatile
  8686  002744  0E01               	movlw	high _dummy_encapsulated_cmd_response
  8687  002746  6FD5               	movwf	(_inPipes+1)& (0+255),b	;volatile
  8688  002748                     
  8689                           ; BSR set to: 0
  8690                           ;mcc_generated_files/usb/usb_device_cdc.c: 179:             inPipes[0].info.bits.busy = 
      +                          1;
  8691  002748  8FD7               	bsf	(_inPipes+3)& (0+255),7,b	;volatile
  8692                           
  8693                           ;mcc_generated_files/usb/usb_device_cdc.c: 180:             break;
  8694  00274A  EFEB  F013         	goto	i2l670
  8695  00274E                     i2l677:
  8696                           
  8697                           ; BSR set to: 4
  8698                           ;mcc_generated_files/usb/usb_device_cdc.c: 185:             outPipes[0].wCount.Val = Set
      +                          upPkt.wLength;
  8699  00274E  C436 F0D0          	movff	1078,_outPipes+4	;volatile
  8700  002752  C437 F0D1          	movff	1079,_outPipes+5	;volatile
  8701  002756                     
  8702                           ; BSR set to: 4
  8703                           ;mcc_generated_files/usb/usb_device_cdc.c: 186:             outPipes[0].pDst.bRam = (uin
      +                          t8_t*)&line_coding._byte[0];
  8704  002756  0E5A               	movlw	low _line_coding
  8705  002758  0100               	movlb	0	; () banked
  8706  00275A  6FCC               	movwf	_outPipes& (0+255),b	;volatile
  8707  00275C  0E01               	movlw	high _line_coding
  8708  00275E  6FCD               	movwf	(_outPipes+1)& (0+255),b	;volatile
  8709                           
  8710                           ;mcc_generated_files/usb/usb_device_cdc.c: 187:             outPipes[0].pFunc = ((void*)
      +                          0);
  8711  002760  0E00               	movlw	0
  8712  002762  6FD2               	movwf	(_outPipes+6)& (0+255),b	;volatile
  8713  002764  0E00               	movlw	0
  8714  002766  6FD3               	movwf	(_outPipes+7)& (0+255),b	;volatile
  8715  002768                     
  8716                           ; BSR set to: 0
  8717                           ;mcc_generated_files/usb/usb_device_cdc.c: 188:             outPipes[0].info.bits.busy =
      +                           1;
  8718  002768  8FCF               	bsf	(_outPipes+3)& (0+255),7,b	;volatile
  8719                           
  8720                           ;mcc_generated_files/usb/usb_device_cdc.c: 189:             break;
  8721  00276A  EFEB  F013         	goto	i2l670
  8722  00276E                     i2l4590:
  8723                           
  8724                           ; BSR set to: 4
  8725                           ;mcc_generated_files/usb/usb_device_cdc.c: 192:             { inPipes[0].pSrc.bRam = (ui
      +                          nt8_t*)&line_coding; inPipes[0].wCount.Val = 0x07; inPipes[0].info.Val = 0x40 | 0x80 | 0
      +                          x01; };
  8726  00276E  0E5A               	movlw	low _line_coding
  8727  002770  0100               	movlb	0	; () banked
  8728  002772  6FD4               	movwf	_inPipes& (0+255),b	;volatile
  8729  002774  0E01               	movlw	high _line_coding
  8730  002776  6FD5               	movwf	(_inPipes+1)& (0+255),b	;volatile
  8731  002778                     
  8732                           ; BSR set to: 0
  8733  002778  0E00               	movlw	0
  8734  00277A  6FD9               	movwf	(_inPipes+5)& (0+255),b	;volatile
  8735  00277C  0E07               	movlw	7
  8736  00277E  6FD8               	movwf	(_inPipes+4)& (0+255),b	;volatile
  8737  002780                     
  8738                           ; BSR set to: 0
  8739  002780  0EC1               	movlw	193
  8740  002782  6FD7               	movwf	(_inPipes+3)& (0+255),b	;volatile
  8741                           
  8742                           ;mcc_generated_files/usb/usb_device_cdc.c: 196:             break;
  8743  002784  EFEB  F013         	goto	i2l670
  8744  002788                     i2l679:
  8745                           
  8746                           ; BSR set to: 4
  8747                           ;mcc_generated_files/usb/usb_device_cdc.c: 199:             control_signal_bitmap._byte 
      +                          = (uint8_t)SetupPkt.wValue;
  8748  002788  C432 F042          	movff	1074,_control_signal_bitmap	;volatile
  8749                           
  8750                           ;mcc_generated_files/usb/usb_device_cdc.c: 231:             inPipes[0].info.bits.busy = 
      +                          1;
  8751  00278C  0100               	movlb	0	; () banked
  8752  00278E  8FD7               	bsf	(_inPipes+3)& (0+255),7,b	;volatile
  8753                           
  8754                           ;mcc_generated_files/usb/usb_device_cdc.c: 232:             break;
  8755  002790  EFEB  F013         	goto	i2l670
  8756  002794                     i2l4598:
  8757                           
  8758                           ; BSR set to: 4
  8759  002794  5131               	movf	49,w,b	;volatile
  8760  002796  6E01               	movwf	??_USBCheckCDCRequest^0,c
  8761  002798  6A02               	clrf	(??_USBCheckCDCRequest+1)^0,c
  8762                           
  8763                           ; Switch on 2 bytes has been partitioned into a top level switch of size 1, and 1 sub-sw
      +                          itches
  8764                           ; Switch size 1, requested type "simple"
  8765                           ; Number of cases is 1, Range of values is 0 to 0
  8766                           ; switch strategies available:
  8767                           ; Name         Instructions Cycles
  8768                           ; simple_byte            4     3 (average)
  8769                           ;	Chosen strategy is simple_byte
  8770  00279A  5002               	movf	(??_USBCheckCDCRequest+1)^0,w,c
  8771  00279C  0A00               	xorlw	0	; case 0
  8772  00279E  B4D8               	btfsc	status,2,c
  8773  0027A0  EFD4  F013         	goto	i2l7682
  8774  0027A4  EFEB  F013         	goto	i2l670
  8775  0027A8                     i2l7682:
  8776                           
  8777                           ; BSR set to: 4
  8778                           ; Switch size 1, requested type "simple"
  8779                           ; Number of cases is 5, Range of values is 0 to 34
  8780                           ; switch strategies available:
  8781                           ; Name         Instructions Cycles
  8782                           ; simple_byte           16     9 (average)
  8783                           ;	Chosen strategy is simple_byte
  8784  0027A8  5001               	movf	??_USBCheckCDCRequest^0,w,c
  8785  0027AA  0A00               	xorlw	0	; case 0
  8786  0027AC  B4D8               	btfsc	status,2,c
  8787  0027AE  EF92  F013         	goto	i2l4574
  8788  0027B2  0A01               	xorlw	1	; case 1
  8789  0027B4  B4D8               	btfsc	status,2,c
  8790  0027B6  EF9F  F013         	goto	i2l4582
  8791  0027BA  0A21               	xorlw	33	; case 32
  8792  0027BC  B4D8               	btfsc	status,2,c
  8793  0027BE  EFA7  F013         	goto	i2l677
  8794  0027C2  0A01               	xorlw	1	; case 33
  8795  0027C4  B4D8               	btfsc	status,2,c
  8796  0027C6  EFB7  F013         	goto	i2l4590
  8797  0027CA  0A03               	xorlw	3	; case 34
  8798  0027CC  B4D8               	btfsc	status,2,c
  8799  0027CE  EFC4  F013         	goto	i2l679
  8800  0027D2  EFEB  F013         	goto	i2l670
  8801  0027D6                     i2l670:
  8802  0027D6  0012               	return		;funcret
  8803  0027D8                     __end_of_USBCheckCDCRequest:
  8804                           	callstack 0
  8805                           
  8806 ;; *************** function _CDCInitEP *****************
  8807 ;; Defined at:
  8808 ;;		line 294 in file "mcc_generated_files/usb/usb_device_cdc.c"
  8809 ;; Parameters:    Size  Location     Type
  8810 ;;		None
  8811 ;; Auto vars:     Size  Location     Type
  8812 ;;		None
  8813 ;; Return value:  Size  Location     Type
  8814 ;;                  1    wreg      void 
  8815 ;; Registers used:
  8816 ;;		wreg, fsr2l, fsr2h, status,2, status,0, prodl, prodh, cstack
  8817 ;; Tracked objects:
  8818 ;;		On entry : 0/0
  8819 ;;		On exit  : 0/0
  8820 ;;		Unchanged: 0/0
  8821 ;; Data sizes:     COMRAM   BANK0   BANK1   BANK2   BANK3   BANK4   BANK5   BANK6   BANK7
  8822 ;;      Params:         0       0       0       0       0       0       0       0       0
  8823 ;;      Locals:         0       0       0       0       0       0       0       0       0
  8824 ;;      Temps:          0       0       0       0       0       0       0       0       0
  8825 ;;      Totals:         0       0       0       0       0       0       0       0       0
  8826 ;;Total ram usage:        0 bytes
  8827 ;; Hardware stack levels used: 1
  8828 ;; Hardware stack levels required when called: 2
  8829 ;; This function calls:
  8830 ;;		_USBEnableEndpoint
  8831 ;;		i2_USBTransferOnePacket
  8832 ;; This function is called by:
  8833 ;;		_USER_USB_CALLBACK_EVENT_HANDLER
  8834 ;; This function uses a non-reentrant model
  8835 ;;
  8836                           
  8837                           	psect	text43
  8838  003130                     __ptext43:
  8839                           	callstack 0
  8840  003130                     _CDCInitEP:
  8841                           	callstack 17
  8842  003130                     
  8843                           ;mcc_generated_files/usb/usb_device_cdc.c: 297:     line_coding.dwDTERate = 19200;
  8844  003130  0E00               	movlw	0
  8845  003132  0101               	movlb	1	; () banked
  8846  003134  6F5A               	movwf	_line_coding& (0+255),b
  8847  003136  0E4B               	movlw	75
  8848  003138  6F5B               	movwf	(_line_coding+1)& (0+255),b
  8849  00313A  0E00               	movlw	0
  8850  00313C  6F5C               	movwf	(_line_coding+2)& (0+255),b
  8851  00313E  0E00               	movlw	0
  8852  003140  6F5D               	movwf	(_line_coding+3)& (0+255),b
  8853                           
  8854                           ;mcc_generated_files/usb/usb_device_cdc.c: 298:     line_coding.bCharFormat = 0x00;
  8855  003142  0E00               	movlw	0
  8856  003144  6F5E               	movwf	(_line_coding+4)& (0+255),b
  8857                           
  8858                           ;mcc_generated_files/usb/usb_device_cdc.c: 299:     line_coding.bParityType = 0x00;
  8859  003146  0E00               	movlw	0
  8860  003148  6F5F               	movwf	(_line_coding+5)& (0+255),b
  8861                           
  8862                           ;mcc_generated_files/usb/usb_device_cdc.c: 300:     line_coding.bDataBits = 0x08;
  8863  00314A  0E08               	movlw	8
  8864  00314C  6F60               	movwf	(_line_coding+6)& (0+255),b
  8865                           
  8866                           ;mcc_generated_files/usb/usb_device_cdc.c: 302:     cdc_rx_len = 0;
  8867  00314E  0E00               	movlw	0
  8868  003150  6E44               	movwf	_cdc_rx_len^0,c
  8869  003152                     
  8870                           ; BSR set to: 1
  8871                           ;mcc_generated_files/usb/usb_device_cdc.c: 315:     USBEnableEndpoint(1,0x02|0x10|0x08);
  8872  003152  0E1A               	movlw	26
  8873  003154  6E09               	movwf	USBEnableEndpoint@options^0,c
  8874  003156  0E01               	movlw	1
  8875  003158  EC7C  F019         	call	_USBEnableEndpoint
  8876  00315C                     
  8877                           ;mcc_generated_files/usb/usb_device_cdc.c: 316:     USBEnableEndpoint(2,0x02|0x04|0x10|0
      +                          x08);
  8878  00315C  0E1E               	movlw	30
  8879  00315E  6E09               	movwf	USBEnableEndpoint@options^0,c
  8880  003160  0E02               	movlw	2
  8881  003162  EC7C  F019         	call	_USBEnableEndpoint
  8882  003166                     
  8883                           ;mcc_generated_files/usb/usb_device_cdc.c: 318:     CDCDataOutHandle = USBTransferOnePac
      +                          ket(2,0,(uint8_t*)&cdc_data_rx,sizeof(cdc_data_rx));
  8884  003166  0E00               	movlw	0
  8885  003168  6E01               	movwf	i2USBTransferOnePacket@dir^0,c
  8886  00316A  0E40               	movlw	64
  8887  00316C  6E02               	movwf	i2USBTransferOnePacket@data^0,c
  8888  00316E  0E05               	movlw	5
  8889  003170  6E03               	movwf	(i2USBTransferOnePacket@data+1)^0,c
  8890  003172  0E40               	movlw	64
  8891  003174  6E04               	movwf	i2USBTransferOnePacket@len^0,c
  8892  003176  0E02               	movlw	2
  8893  003178  EC25  F011         	call	i2_USBTransferOnePacket
  8894  00317C  C001  F03A         	movff	?i2_USBTransferOnePacket,_CDCDataOutHandle
  8895  003180  C002  F03B         	movff	?i2_USBTransferOnePacket+1,_CDCDataOutHandle+1
  8896  003184                     
  8897                           ;mcc_generated_files/usb/usb_device_cdc.c: 319:     CDCDataInHandle = ((void*)0);
  8898  003184  0E00               	movlw	0
  8899  003186  0100               	movlb	0	; () banked
  8900  003188  6FF0               	movwf	_CDCDataInHandle& (0+255),b
  8901  00318A  0E00               	movlw	0
  8902  00318C  6FF1               	movwf	(_CDCDataInHandle+1)& (0+255),b
  8903  00318E                     
  8904                           ; BSR set to: 0
  8905                           ;mcc_generated_files/usb/usb_device_cdc.c: 346:     cdc_trf_state = 0;
  8906  00318E  0E00               	movlw	0
  8907  003190  6E43               	movwf	_cdc_trf_state^0,c
  8908  003192                     
  8909                           ; BSR set to: 0
  8910  003192  0012               	return		;funcret
  8911  003194                     __end_of_CDCInitEP:
  8912                           	callstack 0
  8913                           
  8914 ;; *************** function i2_USBTransferOnePacket *****************
  8915 ;; Defined at:
  8916 ;;		line 999 in file "mcc_generated_files/usb/usb_device.c"
  8917 ;; Parameters:    Size  Location     Type
  8918 ;;  ep              1    wreg     unsigned char 
  8919 ;;  dir             1    0[COMRAM] unsigned char 
  8920 ;;  data            2    1[COMRAM] PTR unsigned char 
  8921 ;;		 -> cdc_data_tx(64), cdc_data_rx(64), NULL(0), 
  8922 ;;  len             1    3[COMRAM] unsigned char 
  8923 ;; Auto vars:     Size  Location     Type
  8924 ;;  ep              1    8[COMRAM] unsigned char 
  8925 ;;  handle          2    9[COMRAM] PTR volatile struct __BD
  8926 ;;		 -> RAM(2047), BDT(48), NULL(0), 
  8927 ;; Return value:  Size  Location     Type
  8928 ;;                  2    0[COMRAM] PTR void 
  8929 ;; Registers used:
  8930 ;;		wreg, fsr2l, fsr2h, status,2, status,0, prodl, prodh
  8931 ;; Tracked objects:
  8932 ;;		On entry : 0/0
  8933 ;;		On exit  : 0/0
  8934 ;;		Unchanged: 0/0
  8935 ;; Data sizes:     COMRAM   BANK0   BANK1   BANK2   BANK3   BANK4   BANK5   BANK6   BANK7
  8936 ;;      Params:         4       0       0       0       0       0       0       0       0
  8937 ;;      Locals:         3       0       0       0       0       0       0       0       0
  8938 ;;      Temps:          4       0       0       0       0       0       0       0       0
  8939 ;;      Totals:        11       0       0       0       0       0       0       0       0
  8940 ;;Total ram usage:       11 bytes
  8941 ;; Hardware stack levels used: 1
  8942 ;; This function calls:
  8943 ;;		Nothing
  8944 ;; This function is called by:
  8945 ;;		_CDCInitEP
  8946 ;; This function uses a non-reentrant model
  8947 ;;
  8948                           
  8949                           	psect	text44
  8950  00224A                     __ptext44:
  8951                           	callstack 0
  8952  00224A                     i2_USBTransferOnePacket:
  8953                           	callstack 18
  8954                           
  8955                           ; BSR set to: 0
  8956                           ;incstack = 0
  8957                           ;i2USBTransferOnePacket@ep stored from wreg
  8958  00224A  6E09               	movwf	i2USBTransferOnePacket@ep^0,c
  8959  00224C                     
  8960                           ;mcc_generated_files/usb/usb_device.c: 999: void* USBTransferOnePacket(uint8_t ep,uint8_
      +                          t dir,uint8_t* data,uint8_t len);mcc_generated_files/usb/usb_device.c: 1000: {;mcc_gener
      +                          ated_files/usb/usb_device.c: 1001:     volatile BDT_ENTRY* handle;;mcc_generated_files/u
      +                          sb/usb_device.c: 1004:     if(dir != 0)
  8961  00224C  5001               	movf	i2USBTransferOnePacket@dir^0,w,c
  8962  00224E  B4D8               	btfsc	status,2,c
  8963  002250  EF2C  F011         	goto	i2u267_41
  8964  002254  EF2E  F011         	goto	i2u267_40
  8965  002258                     i2u267_41:
  8966  002258  EF3C  F011         	goto	i2l4522
  8967  00225C                     i2u267_40:
  8968  00225C                     
  8969                           ;mcc_generated_files/usb/usb_device.c: 1005:     {;mcc_generated_files/usb/usb_device.c:
      +                           1007:         handle = pBDTEntryIn[ep];
  8970  00225C  5009               	movf	i2USBTransferOnePacket@ep^0,w,c
  8971  00225E  0D02               	mullw	2
  8972  002260  0EDA               	movlw	low _pBDTEntryIn
  8973  002262  24F3               	addwf	243,w,c
  8974  002264  6ED9               	movwf	fsr2l,c
  8975  002266  0E00               	movlw	high _pBDTEntryIn
  8976  002268  20F4               	addwfc	prodh,w,c
  8977  00226A  6EDA               	movwf	fsr2h,c
  8978  00226C  CFDE F00A          	movff	postinc2,i2USBTransferOnePacket@handle
  8979  002270  CFDD F00B          	movff	postdec2,i2USBTransferOnePacket@handle+1
  8980                           
  8981                           ;mcc_generated_files/usb/usb_device.c: 1008:     }
  8982  002274  EF48  F011         	goto	i2l4524
  8983  002278                     i2l4522:
  8984                           
  8985                           ;mcc_generated_files/usb/usb_device.c: 1010:     {;mcc_generated_files/usb/usb_device.c:
      +                           1012:         handle = pBDTEntryOut[ep];
  8986  002278  5009               	movf	i2USBTransferOnePacket@ep^0,w,c
  8987  00227A  0D02               	mullw	2
  8988  00227C  0EE0               	movlw	low _pBDTEntryOut
  8989  00227E  24F3               	addwf	243,w,c
  8990  002280  6ED9               	movwf	fsr2l,c
  8991  002282  0E00               	movlw	high _pBDTEntryOut
  8992  002284  20F4               	addwfc	prodh,w,c
  8993  002286  6EDA               	movwf	fsr2h,c
  8994  002288  CFDE F00A          	movff	postinc2,i2USBTransferOnePacket@handle
  8995  00228C  CFDD F00B          	movff	postdec2,i2USBTransferOnePacket@handle+1
  8996  002290                     i2l4524:
  8997                           
  8998                           ;mcc_generated_files/usb/usb_device.c: 1017:     if(handle == 0)
  8999  002290  500A               	movf	i2USBTransferOnePacket@handle^0,w,c
  9000  002292  100B               	iorwf	(i2USBTransferOnePacket@handle+1)^0,w,c
  9001  002294  A4D8               	btfss	status,2,c
  9002  002296  EF4F  F011         	goto	i2u268_41
  9003  00229A  EF51  F011         	goto	i2u268_40
  9004  00229E                     i2u268_41:
  9005  00229E  EF57  F011         	goto	i2l4530
  9006  0022A2                     i2u268_40:
  9007  0022A2                     
  9008                           ;mcc_generated_files/usb/usb_device.c: 1018:     {;mcc_generated_files/usb/usb_device.c:
      +                           1019:         return 0;
  9009  0022A2  0E00               	movlw	0
  9010  0022A4  6E01               	movwf	?i2_USBTransferOnePacket^0,c
  9011  0022A6  0E00               	movlw	0
  9012  0022A8  6E02               	movwf	(?i2_USBTransferOnePacket+1)^0,c
  9013  0022AA  EFC3  F011         	goto	i2l388
  9014  0022AE                     i2l4530:
  9015                           
  9016                           ;mcc_generated_files/usb/usb_device.c: 1033:     handle->ADR = ((uint16_t)(data));
  9017  0022AE  EE20 F002          	lfsr	2,2
  9018  0022B2  500A               	movf	i2USBTransferOnePacket@handle^0,w,c
  9019  0022B4  26D9               	addwf	fsr2l,f,c
  9020  0022B6  500B               	movf	(i2USBTransferOnePacket@handle+1)^0,w,c
  9021  0022B8  22DA               	addwfc	fsr2h,f,c
  9022  0022BA  C002  FFDE         	movff	i2USBTransferOnePacket@data,postinc2
  9023  0022BE  C003  FFDD         	movff	i2USBTransferOnePacket@data+1,postdec2
  9024                           
  9025                           ;mcc_generated_files/usb/usb_device.c: 1034:     handle->CNT = len;
  9026  0022C2  EE20 F001          	lfsr	2,1
  9027  0022C6  500A               	movf	i2USBTransferOnePacket@handle^0,w,c
  9028  0022C8  26D9               	addwf	fsr2l,f,c
  9029  0022CA  500B               	movf	(i2USBTransferOnePacket@handle+1)^0,w,c
  9030  0022CC  22DA               	addwfc	fsr2h,f,c
  9031  0022CE  C004  FFDF         	movff	i2USBTransferOnePacket@len,indf2
  9032  0022D2                     
  9033                           ;mcc_generated_files/usb/usb_device.c: 1035:     handle->STAT.Val &= 0x40;
  9034  0022D2  C00A  FFD9         	movff	i2USBTransferOnePacket@handle,fsr2l
  9035  0022D6  C00B  FFDA         	movff	i2USBTransferOnePacket@handle+1,fsr2h
  9036  0022DA  0E40               	movlw	64
  9037  0022DC  16DF               	andwf	indf2,f,c
  9038  0022DE                     
  9039                           ;mcc_generated_files/usb/usb_device.c: 1036:     handle->STAT.Val |= (0x08 & 0x08);
  9040  0022DE  C00A  FFD9         	movff	i2USBTransferOnePacket@handle,fsr2l
  9041  0022E2  C00B  FFDA         	movff	i2USBTransferOnePacket@handle+1,fsr2h
  9042  0022E6  0E00               	movlw	0
  9043  0022E8  86DB               	bsf	plusw2,3,c
  9044  0022EA                     
  9045                           ;mcc_generated_files/usb/usb_device.c: 1037:     handle->STAT.Val |= 0x80;
  9046  0022EA  C00A  FFD9         	movff	i2USBTransferOnePacket@handle,fsr2l
  9047  0022EE  C00B  FFDA         	movff	i2USBTransferOnePacket@handle+1,fsr2h
  9048  0022F2  0E00               	movlw	0
  9049  0022F4  8EDB               	bsf	plusw2,7,c
  9050  0022F6                     
  9051                           ;mcc_generated_files/usb/usb_device.c: 1040:     if(dir != 0)
  9052  0022F6  5001               	movf	i2USBTransferOnePacket@dir^0,w,c
  9053  0022F8  B4D8               	btfsc	status,2,c
  9054  0022FA  EF81  F011         	goto	i2u269_41
  9055  0022FE  EF83  F011         	goto	i2u269_40
  9056  002302                     i2u269_41:
  9057  002302  EFA2  F011         	goto	i2l4542
  9058  002306                     i2u269_40:
  9059  002306                     
  9060                           ;mcc_generated_files/usb/usb_device.c: 1041:     {;mcc_generated_files/usb/usb_device.c:
      +                           1043:         pBDTEntryIn[ep] = (BDT_ENTRY*)(((uint16_t)pBDTEntryIn[ep]) ^ 0x0004);
  9061  002306  5009               	movf	i2USBTransferOnePacket@ep^0,w,c
  9062  002308  0D02               	mullw	2
  9063  00230A  0EDA               	movlw	low _pBDTEntryIn
  9064  00230C  24F3               	addwf	243,w,c
  9065  00230E  6ED9               	movwf	fsr2l,c
  9066  002310  0E00               	movlw	high _pBDTEntryIn
  9067  002312  20F4               	addwfc	prodh,w,c
  9068  002314  6EDA               	movwf	fsr2h,c
  9069  002316  CFDE F005          	movff	postinc2,??i2_USBTransferOnePacket
  9070  00231A  CFDD F006          	movff	postdec2,??i2_USBTransferOnePacket+1
  9071  00231E  0E04               	movlw	4
  9072  002320  1805               	xorwf	??i2_USBTransferOnePacket^0,w,c
  9073  002322  6E07               	movwf	(??i2_USBTransferOnePacket+2)^0,c
  9074  002324  5006               	movf	(??i2_USBTransferOnePacket+1)^0,w,c
  9075  002326  6E08               	movwf	(??i2_USBTransferOnePacket+3)^0,c
  9076  002328  5009               	movf	i2USBTransferOnePacket@ep^0,w,c
  9077  00232A  0D02               	mullw	2
  9078  00232C  0EDA               	movlw	low _pBDTEntryIn
  9079  00232E  24F3               	addwf	243,w,c
  9080  002330  6ED9               	movwf	fsr2l,c
  9081  002332  0E00               	movlw	high _pBDTEntryIn
  9082  002334  20F4               	addwfc	prodh,w,c
  9083  002336  6EDA               	movwf	fsr2h,c
  9084  002338  C007  FFDE         	movff	??i2_USBTransferOnePacket+2,postinc2
  9085  00233C  C008  FFDD         	movff	??i2_USBTransferOnePacket+3,postdec2
  9086                           
  9087                           ;mcc_generated_files/usb/usb_device.c: 1044:     }
  9088  002340  EFBF  F011         	goto	i2l4544
  9089  002344                     i2l4542:
  9090                           
  9091                           ;mcc_generated_files/usb/usb_device.c: 1046:     {;mcc_generated_files/usb/usb_device.c:
      +                           1048:         pBDTEntryOut[ep] = (BDT_ENTRY*)(((uint16_t)pBDTEntryOut[ep]) ^ 0x0004);
  9092  002344  5009               	movf	i2USBTransferOnePacket@ep^0,w,c
  9093  002346  0D02               	mullw	2
  9094  002348  0EE0               	movlw	low _pBDTEntryOut
  9095  00234A  24F3               	addwf	243,w,c
  9096  00234C  6ED9               	movwf	fsr2l,c
  9097  00234E  0E00               	movlw	high _pBDTEntryOut
  9098  002350  20F4               	addwfc	prodh,w,c
  9099  002352  6EDA               	movwf	fsr2h,c
  9100  002354  CFDE F005          	movff	postinc2,??i2_USBTransferOnePacket
  9101  002358  CFDD F006          	movff	postdec2,??i2_USBTransferOnePacket+1
  9102  00235C  0E04               	movlw	4
  9103  00235E  1805               	xorwf	??i2_USBTransferOnePacket^0,w,c
  9104  002360  6E07               	movwf	(??i2_USBTransferOnePacket+2)^0,c
  9105  002362  5006               	movf	(??i2_USBTransferOnePacket+1)^0,w,c
  9106  002364  6E08               	movwf	(??i2_USBTransferOnePacket+3)^0,c
  9107  002366  5009               	movf	i2USBTransferOnePacket@ep^0,w,c
  9108  002368  0D02               	mullw	2
  9109  00236A  0EE0               	movlw	low _pBDTEntryOut
  9110  00236C  24F3               	addwf	243,w,c
  9111  00236E  6ED9               	movwf	fsr2l,c
  9112  002370  0E00               	movlw	high _pBDTEntryOut
  9113  002372  20F4               	addwfc	prodh,w,c
  9114  002374  6EDA               	movwf	fsr2h,c
  9115  002376  C007  FFDE         	movff	??i2_USBTransferOnePacket+2,postinc2
  9116  00237A  C008  FFDD         	movff	??i2_USBTransferOnePacket+3,postdec2
  9117  00237E                     i2l4544:
  9118                           
  9119                           ;mcc_generated_files/usb/usb_device.c: 1050:     return (void*)handle;
  9120  00237E  C00A  F001         	movff	i2USBTransferOnePacket@handle,?i2_USBTransferOnePacket
  9121  002382  C00B  F002         	movff	i2USBTransferOnePacket@handle+1,?i2_USBTransferOnePacket+1
  9122  002386                     i2l388:
  9123  002386  0012               	return		;funcret
  9124  002388                     __end_ofi2_USBTransferOnePacket:
  9125                           	callstack 0
  9126                           
  9127 ;; *************** function _USBEnableEndpoint *****************
  9128 ;; Defined at:
  9129 ;;		line 882 in file "mcc_generated_files/usb/usb_device.c"
  9130 ;; Parameters:    Size  Location     Type
  9131 ;;  ep              1    wreg     unsigned char 
  9132 ;;  options         1    8[COMRAM] unsigned char 
  9133 ;; Auto vars:     Size  Location     Type
  9134 ;;  ep              1   11[COMRAM] unsigned char 
  9135 ;;  p               2    9[COMRAM] PTR unsigned char 
  9136 ;;		 -> UEP0(1), 
  9137 ;; Return value:  Size  Location     Type
  9138 ;;                  1    wreg      void 
  9139 ;; Registers used:
  9140 ;;		wreg, fsr2l, fsr2h, status,2, status,0, prodl, prodh, cstack
  9141 ;; Tracked objects:
  9142 ;;		On entry : 0/0
  9143 ;;		On exit  : 0/0
  9144 ;;		Unchanged: 0/0
  9145 ;; Data sizes:     COMRAM   BANK0   BANK1   BANK2   BANK3   BANK4   BANK5   BANK6   BANK7
  9146 ;;      Params:         1       0       0       0       0       0       0       0       0
  9147 ;;      Locals:         3       0       0       0       0       0       0       0       0
  9148 ;;      Temps:          0       0       0       0       0       0       0       0       0
  9149 ;;      Totals:         4       0       0       0       0       0       0       0       0
  9150 ;;Total ram usage:        4 bytes
  9151 ;; Hardware stack levels used: 1
  9152 ;; Hardware stack levels required when called: 1
  9153 ;; This function calls:
  9154 ;;		_USBConfigureEndpoint
  9155 ;; This function is called by:
  9156 ;;		_CDCInitEP
  9157 ;; This function uses a non-reentrant model
  9158 ;;
  9159                           
  9160                           	psect	text45
  9161  0032F8                     __ptext45:
  9162                           	callstack 0
  9163  0032F8                     _USBEnableEndpoint:
  9164                           	callstack 17
  9165                           
  9166                           ;incstack = 0
  9167                           ;USBEnableEndpoint@ep stored from wreg
  9168  0032F8  6E0C               	movwf	USBEnableEndpoint@ep^0,c
  9169  0032FA                     
  9170                           ;mcc_generated_files/usb/usb_device.c: 882: void USBEnableEndpoint(uint8_t ep, uint8_t o
      +                          ptions);mcc_generated_files/usb/usb_device.c: 883: {;mcc_generated_files/usb/usb_device.
      +                          c: 884:     unsigned char* p;;mcc_generated_files/usb/usb_device.c: 888:     if(options 
      +                          & 0x04)
  9171  0032FA  A409               	btfss	USBEnableEndpoint@options^0,2,c
  9172  0032FC  EF82  F019         	goto	i2u265_41
  9173  003300  EF84  F019         	goto	i2u265_40
  9174  003304                     i2u265_41:
  9175  003304  EF89  F019         	goto	i2l4510
  9176  003308                     i2u265_40:
  9177  003308                     
  9178                           ;mcc_generated_files/usb/usb_device.c: 889:     {;mcc_generated_files/usb/usb_device.c: 
      +                          890:         USBConfigureEndpoint(ep, 0);
  9179  003308  0E00               	movlw	0
  9180  00330A  6E01               	movwf	USBConfigureEndpoint@direction^0,c
  9181  00330C  500C               	movf	USBEnableEndpoint@ep^0,w,c
  9182  00330E  EC44  F017         	call	_USBConfigureEndpoint
  9183  003312                     i2l4510:
  9184                           
  9185                           ;mcc_generated_files/usb/usb_device.c: 892:     if(options & 0x02)
  9186  003312  A209               	btfss	USBEnableEndpoint@options^0,1,c
  9187  003314  EF8E  F019         	goto	i2u266_41
  9188  003318  EF90  F019         	goto	i2u266_40
  9189  00331C                     i2u266_41:
  9190  00331C  EF95  F019         	goto	i2l4514
  9191  003320                     i2u266_40:
  9192  003320                     
  9193                           ;mcc_generated_files/usb/usb_device.c: 893:     {;mcc_generated_files/usb/usb_device.c: 
      +                          894:         USBConfigureEndpoint(ep, 1);
  9194  003320  0E01               	movlw	1
  9195  003322  6E01               	movwf	USBConfigureEndpoint@direction^0,c
  9196  003324  500C               	movf	USBEnableEndpoint@ep^0,w,c
  9197  003326  EC44  F017         	call	_USBConfigureEndpoint
  9198  00332A                     i2l4514:
  9199                           
  9200                           ;mcc_generated_files/usb/usb_device.c: 903:         p = (unsigned char*)(&UEP0+ep);
  9201  00332A  0E6A               	movlw	106
  9202  00332C  240C               	addwf	USBEnableEndpoint@ep^0,w,c
  9203  00332E  6E0A               	movwf	USBEnableEndpoint@p^0,c
  9204  003330  6A0B               	clrf	(USBEnableEndpoint@p+1)^0,c
  9205  003332  0E0F               	movlw	15
  9206  003334  220B               	addwfc	(USBEnableEndpoint@p+1)^0,f,c
  9207  003336                     
  9208                           ;mcc_generated_files/usb/usb_device.c: 905:     *p = options;
  9209  003336  C00A  FFD9         	movff	USBEnableEndpoint@p,fsr2l
  9210  00333A  C00B  FFDA         	movff	USBEnableEndpoint@p+1,fsr2h
  9211  00333E  C009  FFDF         	movff	USBEnableEndpoint@options,indf2
  9212  003342  0012               	return		;funcret
  9213  003344                     __end_of_USBEnableEndpoint:
  9214                           	callstack 0
  9215                           
  9216 ;; *************** function _USBConfigureEndpoint *****************
  9217 ;; Defined at:
  9218 ;;		line 1547 in file "mcc_generated_files/usb/usb_device.c"
  9219 ;; Parameters:    Size  Location     Type
  9220 ;;  EPNum           1    wreg     unsigned char 
  9221 ;;  direction       1    0[COMRAM] unsigned char 
  9222 ;; Auto vars:     Size  Location     Type
  9223 ;;  EPNum           1    5[COMRAM] unsigned char 
  9224 ;;  handle          2    6[COMRAM] PTR volatile struct __BD
  9225 ;;		 -> BDT(48), 
  9226 ;; Return value:  Size  Location     Type
  9227 ;;                  1    wreg      void 
  9228 ;; Registers used:
  9229 ;;		wreg, fsr2l, fsr2h, status,2, status,0, prodl, prodh
  9230 ;; Tracked objects:
  9231 ;;		On entry : 0/0
  9232 ;;		On exit  : 0/0
  9233 ;;		Unchanged: 0/0
  9234 ;; Data sizes:     COMRAM   BANK0   BANK1   BANK2   BANK3   BANK4   BANK5   BANK6   BANK7
  9235 ;;      Params:         1       0       0       0       0       0       0       0       0
  9236 ;;      Locals:         3       0       0       0       0       0       0       0       0
  9237 ;;      Temps:          4       0       0       0       0       0       0       0       0
  9238 ;;      Totals:         8       0       0       0       0       0       0       0       0
  9239 ;;Total ram usage:        8 bytes
  9240 ;; Hardware stack levels used: 1
  9241 ;; This function calls:
  9242 ;;		Nothing
  9243 ;; This function is called by:
  9244 ;;		_USBEnableEndpoint
  9245 ;; This function uses a non-reentrant model
  9246 ;;
  9247                           
  9248                           	psect	text46
  9249  002E88                     __ptext46:
  9250                           	callstack 0
  9251  002E88                     _USBConfigureEndpoint:
  9252                           	callstack 17
  9253                           
  9254                           ;incstack = 0
  9255                           ;USBConfigureEndpoint@EPNum stored from wreg
  9256  002E88  6E06               	movwf	USBConfigureEndpoint@EPNum^0,c
  9257  002E8A                     
  9258                           ;mcc_generated_files/usb/usb_device.c: 1547: static void USBConfigureEndpoint(uint8_t EP
      +                          Num, uint8_t direction);mcc_generated_files/usb/usb_device.c: 1548: {;mcc_generated_file
      +                          s/usb/usb_device.c: 1549:     volatile BDT_ENTRY* handle;;mcc_generated_files/usb/usb_de
      +                          vice.c: 1553:     handle = (volatile BDT_ENTRY*)&BDT[0];
  9259  002E8A  0E00               	movlw	0
  9260  002E8C  6E07               	movwf	USBConfigureEndpoint@handle^0,c
  9261  002E8E  0E04               	movlw	4
  9262  002E90  6E08               	movwf	(USBConfigureEndpoint@handle+1)^0,c
  9263  002E92                     
  9264                           ;mcc_generated_files/usb/usb_device.c: 1554:     handle += (4*EPNum+2*direction+0u);
  9265  002E92  5001               	movf	USBConfigureEndpoint@direction^0,w,c
  9266  002E94  6E02               	movwf	??_USBConfigureEndpoint^0,c
  9267  002E96  6A03               	clrf	(??_USBConfigureEndpoint+1)^0,c
  9268  002E98  90D8               	bcf	status,0,c
  9269  002E9A  3602               	rlcf	??_USBConfigureEndpoint^0,f,c
  9270  002E9C  3603               	rlcf	(??_USBConfigureEndpoint+1)^0,f,c
  9271  002E9E  5006               	movf	USBConfigureEndpoint@EPNum^0,w,c
  9272  002EA0  6E04               	movwf	(??_USBConfigureEndpoint+2)^0,c
  9273  002EA2  6A05               	clrf	(??_USBConfigureEndpoint+3)^0,c
  9274  002EA4  90D8               	bcf	status,0,c
  9275  002EA6  3604               	rlcf	(??_USBConfigureEndpoint+2)^0,f,c
  9276  002EA8  3605               	rlcf	(??_USBConfigureEndpoint+3)^0,f,c
  9277  002EAA  90D8               	bcf	status,0,c
  9278  002EAC  3604               	rlcf	(??_USBConfigureEndpoint+2)^0,f,c
  9279  002EAE  3605               	rlcf	(??_USBConfigureEndpoint+3)^0,f,c
  9280  002EB0  5002               	movf	??_USBConfigureEndpoint^0,w,c
  9281  002EB2  2604               	addwf	(??_USBConfigureEndpoint+2)^0,f,c
  9282  002EB4  5003               	movf	(??_USBConfigureEndpoint+1)^0,w,c
  9283  002EB6  2205               	addwfc	(??_USBConfigureEndpoint+3)^0,f,c
  9284  002EB8  90D8               	bcf	status,0,c
  9285  002EBA  3604               	rlcf	(??_USBConfigureEndpoint+2)^0,f,c
  9286  002EBC  3605               	rlcf	(??_USBConfigureEndpoint+3)^0,f,c
  9287  002EBE  90D8               	bcf	status,0,c
  9288  002EC0  3604               	rlcf	(??_USBConfigureEndpoint+2)^0,f,c
  9289  002EC2  3605               	rlcf	(??_USBConfigureEndpoint+3)^0,f,c
  9290  002EC4  5004               	movf	(??_USBConfigureEndpoint+2)^0,w,c
  9291  002EC6  2607               	addwf	USBConfigureEndpoint@handle^0,f,c
  9292  002EC8  5005               	movf	(??_USBConfigureEndpoint+3)^0,w,c
  9293  002ECA  2208               	addwfc	(USBConfigureEndpoint@handle+1)^0,f,c
  9294  002ECC                     
  9295                           ;mcc_generated_files/usb/usb_device.c: 1556:     handle->STAT.UOWN = 0;
  9296  002ECC  C007  FFD9         	movff	USBConfigureEndpoint@handle,fsr2l
  9297  002ED0  C008  FFDA         	movff	USBConfigureEndpoint@handle+1,fsr2h
  9298  002ED4  9EDF               	bcf	indf2,7,c
  9299  002ED6                     
  9300                           ;mcc_generated_files/usb/usb_device.c: 1561:     if(direction == 0)
  9301  002ED6  5001               	movf	USBConfigureEndpoint@direction^0,w,c
  9302  002ED8  A4D8               	btfss	status,2,c
  9303  002EDA  EF71  F017         	goto	i2u264_41
  9304  002EDE  EF73  F017         	goto	i2u264_40
  9305  002EE2                     i2u264_41:
  9306  002EE2  EF81  F017         	goto	i2l4500
  9307  002EE6                     i2u264_40:
  9308  002EE6                     
  9309                           ;mcc_generated_files/usb/usb_device.c: 1562:     {;mcc_generated_files/usb/usb_device.c:
      +                           1563:         pBDTEntryOut[EPNum] = handle;
  9310  002EE6  5006               	movf	USBConfigureEndpoint@EPNum^0,w,c
  9311  002EE8  0D02               	mullw	2
  9312  002EEA  0EE0               	movlw	low _pBDTEntryOut
  9313  002EEC  24F3               	addwf	243,w,c
  9314  002EEE  6ED9               	movwf	fsr2l,c
  9315  002EF0  0E00               	movlw	high _pBDTEntryOut
  9316  002EF2  20F4               	addwfc	prodh,w,c
  9317  002EF4  6EDA               	movwf	fsr2h,c
  9318  002EF6  C007  FFDE         	movff	USBConfigureEndpoint@handle,postinc2
  9319  002EFA  C008  FFDD         	movff	USBConfigureEndpoint@handle+1,postdec2
  9320                           
  9321                           ;mcc_generated_files/usb/usb_device.c: 1564:     }
  9322  002EFE  EF8D  F017         	goto	i2l4502
  9323  002F02                     i2l4500:
  9324                           
  9325                           ;mcc_generated_files/usb/usb_device.c: 1566:     {;mcc_generated_files/usb/usb_device.c:
      +                           1567:         pBDTEntryIn[EPNum] = handle;
  9326  002F02  5006               	movf	USBConfigureEndpoint@EPNum^0,w,c
  9327  002F04  0D02               	mullw	2
  9328  002F06  0EDA               	movlw	low _pBDTEntryIn
  9329  002F08  24F3               	addwf	243,w,c
  9330  002F0A  6ED9               	movwf	fsr2l,c
  9331  002F0C  0E00               	movlw	high _pBDTEntryIn
  9332  002F0E  20F4               	addwfc	prodh,w,c
  9333  002F10  6EDA               	movwf	fsr2h,c
  9334  002F12  C007  FFDE         	movff	USBConfigureEndpoint@handle,postinc2
  9335  002F16  C008  FFDD         	movff	USBConfigureEndpoint@handle+1,postdec2
  9336  002F1A                     i2l4502:
  9337                           
  9338                           ;mcc_generated_files/usb/usb_device.c: 1571:         handle->STAT.DTS = 0;
  9339  002F1A  C007  FFD9         	movff	USBConfigureEndpoint@handle,fsr2l
  9340  002F1E  C008  FFDA         	movff	USBConfigureEndpoint@handle+1,fsr2h
  9341  002F22  9CDF               	bcf	indf2,6,c
  9342  002F24                     
  9343                           ;mcc_generated_files/usb/usb_device.c: 1572:         (handle+1)->STAT.DTS = 1;
  9344  002F24  EE20 F004          	lfsr	2,4
  9345  002F28  5007               	movf	USBConfigureEndpoint@handle^0,w,c
  9346  002F2A  26D9               	addwf	fsr2l,f,c
  9347  002F2C  5008               	movf	(USBConfigureEndpoint@handle+1)^0,w,c
  9348  002F2E  22DA               	addwfc	fsr2h,f,c
  9349  002F30  8CDF               	bsf	indf2,6,c
  9350  002F32  0012               	return		;funcret
  9351  002F34                     __end_of_USBConfigureEndpoint:
  9352                           	callstack 0
  9353                           
  9354 ;; *************** function _USBCtrlTrfOutHandler *****************
  9355 ;; Defined at:
  9356 ;;		line 2542 in file "mcc_generated_files/usb/usb_device.c"
  9357 ;; Parameters:    Size  Location     Type
  9358 ;;		None
  9359 ;; Auto vars:     Size  Location     Type
  9360 ;;		None
  9361 ;; Return value:  Size  Location     Type
  9362 ;;                  1    wreg      void 
  9363 ;; Registers used:
  9364 ;;		wreg, fsr1l, fsr1h, fsr2l, fsr2h, status,2, status,0, cstack
  9365 ;; Tracked objects:
  9366 ;;		On entry : 0/0
  9367 ;;		On exit  : 0/0
  9368 ;;		Unchanged: 0/0
  9369 ;; Data sizes:     COMRAM   BANK0   BANK1   BANK2   BANK3   BANK4   BANK5   BANK6   BANK7
  9370 ;;      Params:         0       0       0       0       0       0       0       0       0
  9371 ;;      Locals:         0       0       0       0       0       0       0       0       0
  9372 ;;      Temps:          0       0       0       0       0       0       0       0       0
  9373 ;;      Totals:         0       0       0       0       0       0       0       0       0
  9374 ;;Total ram usage:        0 bytes
  9375 ;; Hardware stack levels used: 1
  9376 ;; Hardware stack levels required when called: 2
  9377 ;; This function calls:
  9378 ;;		_USBCtrlTrfRxService
  9379 ;; This function is called by:
  9380 ;;		_USBCtrlEPService
  9381 ;; This function uses a non-reentrant model
  9382 ;;
  9383                           
  9384                           	psect	text47
  9385  00304C                     __ptext47:
  9386                           	callstack 0
  9387  00304C                     _USBCtrlTrfOutHandler:
  9388                           	callstack 17
  9389  00304C                     
  9390                           ;mcc_generated_files/usb/usb_device.c: 2544:     if(controlTransferState == 2)
  9391  00304C  0E02               	movlw	2
  9392  00304E  184E               	xorwf	_controlTransferState^0,w,c	;volatile
  9393  003050  A4D8               	btfss	status,2,c
  9394  003052  EF2D  F018         	goto	i2u382_41
  9395  003056  EF2F  F018         	goto	i2u382_40
  9396  00305A                     i2u382_41:
  9397  00305A  EF33  F018         	goto	i2l5358
  9398  00305E                     i2u382_40:
  9399  00305E                     
  9400                           ;mcc_generated_files/usb/usb_device.c: 2545:     {;mcc_generated_files/usb/usb_device.c:
      +                           2546:         USBCtrlTrfRxService();
  9401  00305E  EC41  F00F         	call	_USBCtrlTrfRxService	;wreg free
  9402                           
  9403                           ;mcc_generated_files/usb/usb_device.c: 2547:     }
  9404  003062  EF5F  F018         	goto	i2l537
  9405  003066                     i2l5358:
  9406                           
  9407                           ;mcc_generated_files/usb/usb_device.c: 2549:     {;mcc_generated_files/usb/usb_device.c:
      +                           2552:         controlTransferState = 0;
  9408  003066  0E00               	movlw	0
  9409  003068  6E4E               	movwf	_controlTransferState^0,c	;volatile
  9410                           
  9411                           ;mcc_generated_files/usb/usb_device.c: 2559:         if(BothEP0OutUOWNsSet == 0)
  9412  00306A  504B               	movf	_BothEP0OutUOWNsSet^0,w,c	;volatile
  9413  00306C  A4D8               	btfss	status,2,c
  9414  00306E  EF3B  F018         	goto	i2u383_41
  9415  003072  EF3D  F018         	goto	i2u383_40
  9416  003076                     i2u383_41:
  9417  003076  EF5D  F018         	goto	i2l5366
  9418  00307A                     i2u383_40:
  9419  00307A                     
  9420                           ;mcc_generated_files/usb/usb_device.c: 2560:         {;mcc_generated_files/usb/usb_devic
      +                          e.c: 2561:             pBDTEntryEP0OutNext->CNT = 8;
  9421  00307A  EE20 F001          	lfsr	2,1
  9422  00307E  503E               	movf	_pBDTEntryEP0OutNext^0,w,c
  9423  003080  26D9               	addwf	fsr2l,f,c
  9424  003082  503F               	movf	(_pBDTEntryEP0OutNext+1)^0,w,c
  9425  003084  22DA               	addwfc	fsr2h,f,c
  9426  003086  0E08               	movlw	8
  9427  003088  6EDF               	movwf	indf2,c
  9428                           
  9429                           ;mcc_generated_files/usb/usb_device.c: 2562:             pBDTEntryEP0OutNext->ADR = ((ui
      +                          nt16_t)(&SetupPkt));
  9430  00308A  EE20 F002          	lfsr	2,2
  9431  00308E  503E               	movf	_pBDTEntryEP0OutNext^0,w,c
  9432  003090  26D9               	addwf	fsr2l,f,c
  9433  003092  503F               	movf	(_pBDTEntryEP0OutNext+1)^0,w,c
  9434  003094  22DA               	addwfc	fsr2h,f,c
  9435  003096  0E30               	movlw	48
  9436  003098  6EDE               	movwf	postinc2,c
  9437  00309A  0E04               	movlw	4
  9438  00309C  6EDD               	movwf	postdec2,c
  9439  00309E                     
  9440                           ;mcc_generated_files/usb/usb_device.c: 2563:             pBDTEntryEP0OutNext->STAT.Val =
      +                           0x00|(0x08 & 0x08)|0x04;
  9441  00309E  C03E  FFD9         	movff	_pBDTEntryEP0OutNext,fsr2l
  9442  0030A2  C03F  FFDA         	movff	_pBDTEntryEP0OutNext+1,fsr2h
  9443  0030A6  0E0C               	movlw	12
  9444  0030A8  6EDF               	movwf	indf2,c
  9445  0030AA                     
  9446                           ;mcc_generated_files/usb/usb_device.c: 2564:             pBDTEntryEP0OutNext->STAT.Val |
      +                          = 0x80;
  9447  0030AA  C03E  FFD9         	movff	_pBDTEntryEP0OutNext,fsr2l
  9448  0030AE  C03F  FFDA         	movff	_pBDTEntryEP0OutNext+1,fsr2h
  9449  0030B2  0E00               	movlw	0
  9450  0030B4  8EDB               	bsf	plusw2,7,c
  9451                           
  9452                           ;mcc_generated_files/usb/usb_device.c: 2565:         }
  9453  0030B6  EF5F  F018         	goto	i2l537
  9454  0030BA                     i2l5366:
  9455                           
  9456                           ;mcc_generated_files/usb/usb_device.c: 2567:         {;mcc_generated_files/usb/usb_devic
      +                          e.c: 2568:                 BothEP0OutUOWNsSet = 0;
  9457  0030BA  0E00               	movlw	0
  9458  0030BC  6E4B               	movwf	_BothEP0OutUOWNsSet^0,c	;volatile
  9459  0030BE                     i2l537:
  9460  0030BE  0012               	return		;funcret
  9461  0030C0                     __end_of_USBCtrlTrfOutHandler:
  9462                           	callstack 0
  9463                           
  9464 ;; *************** function _USBCtrlTrfRxService *****************
  9465 ;; Defined at:
  9466 ;;		line 1856 in file "mcc_generated_files/usb/usb_device.c"
  9467 ;; Parameters:    Size  Location     Type
  9468 ;;		None
  9469 ;; Auto vars:     Size  Location     Type
  9470 ;;  byteToRead      1    1[COMRAM] unsigned char 
  9471 ;;  i               1    0[COMRAM] unsigned char 
  9472 ;; Return value:  Size  Location     Type
  9473 ;;                  1    wreg      void 
  9474 ;; Registers used:
  9475 ;;		wreg, fsr1l, fsr1h, fsr2l, fsr2h, status,2, status,0, cstack
  9476 ;; Tracked objects:
  9477 ;;		On entry : 0/0
  9478 ;;		On exit  : 0/0
  9479 ;;		Unchanged: 0/0
  9480 ;; Data sizes:     COMRAM   BANK0   BANK1   BANK2   BANK3   BANK4   BANK5   BANK6   BANK7
  9481 ;;      Params:         0       0       0       0       0       0       0       0       0
  9482 ;;      Locals:         2       0       0       0       0       0       0       0       0
  9483 ;;      Temps:          0       0       0       0       0       0       0       0       0
  9484 ;;      Totals:         2       0       0       0       0       0       0       0       0
  9485 ;;Total ram usage:        2 bytes
  9486 ;; Hardware stack levels used: 1
  9487 ;; Hardware stack levels required when called: 1
  9488 ;; This function calls:
  9489 ;;		_USBCtrlEPAllowStatusStage
  9490 ;; This function is called by:
  9491 ;;		_USBCtrlTrfOutHandler
  9492 ;; This function uses a non-reentrant model
  9493 ;;
  9494                           
  9495                           	psect	text48
  9496  001E82                     __ptext48:
  9497                           	callstack 0
  9498  001E82                     _USBCtrlTrfRxService:
  9499                           	callstack 17
  9500  001E82                     
  9501                           ;mcc_generated_files/usb/usb_device.c: 1858:     uint8_t byteToRead;;mcc_generated_files
      +                          /usb/usb_device.c: 1859:     uint8_t i;;mcc_generated_files/usb/usb_device.c: 1863:     
      +                          byteToRead = pBDTEntryEP0OutCurrent->CNT;
  9502  001E82  EE20 F001          	lfsr	2,1
  9503  001E86  5040               	movf	_pBDTEntryEP0OutCurrent^0,w,c
  9504  001E88  26D9               	addwf	fsr2l,f,c
  9505  001E8A  5041               	movf	(_pBDTEntryEP0OutCurrent+1)^0,w,c
  9506  001E8C  22DA               	addwfc	fsr2h,f,c
  9507  001E8E  50DF               	movf	indf2,w,c
  9508  001E90  6E02               	movwf	USBCtrlTrfRxService@byteToRead^0,c
  9509  001E92                     
  9510                           ;mcc_generated_files/usb/usb_device.c: 1869:     if(byteToRead > outPipes[0].wCount.Val)
  9511  001E92  5002               	movf	USBCtrlTrfRxService@byteToRead^0,w,c
  9512  001E94  0100               	movlb	0	; () banked
  9513  001E96  5DD0               	subwf	(_outPipes+4)& (0+255),w,b	;volatile
  9514  001E98  0E00               	movlw	0
  9515  001E9A  59D1               	subwfb	(_outPipes+5)& (0+255),w,b	;volatile
  9516  001E9C  B0D8               	btfsc	status,0,c
  9517  001E9E  EF53  F00F         	goto	i2u355_41
  9518  001EA2  EF55  F00F         	goto	i2u355_40
  9519  001EA6                     i2u355_41:
  9520  001EA6  EF57  F00F         	goto	i2l5140
  9521  001EAA                     i2u355_40:
  9522  001EAA                     
  9523                           ; BSR set to: 0
  9524                           ;mcc_generated_files/usb/usb_device.c: 1870:     {;mcc_generated_files/usb/usb_device.c:
      +                           1871:         byteToRead = outPipes[0].wCount.Val;
  9525  001EAA  C0D0  F002         	movff	_outPipes+4,USBCtrlTrfRxService@byteToRead	;volatile
  9526  001EAE                     i2l5140:
  9527                           
  9528                           ; BSR set to: 0
  9529                           ;mcc_generated_files/usb/usb_device.c: 1874:     outPipes[0].wCount.Val -= byteToRead;
  9530  001EAE  5002               	movf	USBCtrlTrfRxService@byteToRead^0,w,c
  9531  001EB0  5FD0               	subwf	(_outPipes+4)& (0+255),f,b	;volatile
  9532  001EB2  0E00               	movlw	0
  9533  001EB4  5BD1               	subwfb	(_outPipes+5)& (0+255),f,b	;volatile
  9534  001EB6                     
  9535                           ; BSR set to: 0
  9536                           ;mcc_generated_files/usb/usb_device.c: 1878:     for(i=0;i<byteToRead;i++)
  9537  001EB6  0E00               	movlw	0
  9538  001EB8  6E01               	movwf	USBCtrlTrfRxService@i^0,c
  9539  001EBA  EF6E  F00F         	goto	i2l5150
  9540  001EBE                     i2l5144:
  9541                           
  9542                           ; BSR set to: 0
  9543                           ;mcc_generated_files/usb/usb_device.c: 1879:     {;mcc_generated_files/usb/usb_device.c:
      +                           1880:         *outPipes[0].pDst.bRam++ = CtrlTrfData[i];
  9544  001EBE  0E38               	movlw	56
  9545  001EC0  2401               	addwf	USBCtrlTrfRxService@i^0,w,c
  9546  001EC2  6ED9               	movwf	fsr2l,c
  9547  001EC4  6ADA               	clrf	fsr2h,c
  9548  001EC6  0E04               	movlw	4
  9549  001EC8  22DA               	addwfc	fsr2h,f,c
  9550  001ECA  C0CC  FFE1         	movff	_outPipes,fsr1l	;volatile
  9551  001ECE  C0CD  FFE2         	movff	_outPipes+1,fsr1h	;volatile
  9552  001ED2  CFDF FFE7          	movff	indf2,indf1
  9553  001ED6                     
  9554                           ; BSR set to: 0
  9555  001ED6  4BCC               	infsnz	_outPipes& (0+255),f,b	;volatile
  9556  001ED8  2BCD               	incf	(_outPipes+1)& (0+255),f,b	;volatile
  9557  001EDA                     
  9558                           ; BSR set to: 0
  9559                           ;mcc_generated_files/usb/usb_device.c: 1881:     }
  9560  001EDA  2A01               	incf	USBCtrlTrfRxService@i^0,f,c
  9561  001EDC                     i2l5150:
  9562                           
  9563                           ; BSR set to: 0
  9564  001EDC  5002               	movf	USBCtrlTrfRxService@byteToRead^0,w,c
  9565  001EDE  5C01               	subwf	USBCtrlTrfRxService@i^0,w,c
  9566  001EE0  A0D8               	btfss	status,0,c
  9567  001EE2  EF75  F00F         	goto	i2u356_41
  9568  001EE6  EF77  F00F         	goto	i2u356_40
  9569  001EEA                     i2u356_41:
  9570  001EEA  EF5F  F00F         	goto	i2l5144
  9571  001EEE                     i2u356_40:
  9572  001EEE                     
  9573                           ; BSR set to: 0
  9574                           ;mcc_generated_files/usb/usb_device.c: 1885:     if(outPipes[0].wCount.Val > 0)
  9575  001EEE  51D0               	movf	(_outPipes+4)& (0+255),w,b	;volatile
  9576  001EF0  11D1               	iorwf	(_outPipes+5)& (0+255),w,b	;volatile
  9577  001EF2  B4D8               	btfsc	status,2,c
  9578  001EF4  EF7E  F00F         	goto	i2u357_41
  9579  001EF8  EF80  F00F         	goto	i2u357_40
  9580  001EFC                     i2u357_41:
  9581  001EFC  EFB9  F00F         	goto	i2l5166
  9582  001F00                     i2u357_40:
  9583  001F00                     
  9584                           ; BSR set to: 0
  9585                           ;mcc_generated_files/usb/usb_device.c: 1886:     {;mcc_generated_files/usb/usb_device.c:
      +                           1887:         pBDTEntryEP0OutNext->CNT = 8;
  9586  001F00  EE20 F001          	lfsr	2,1
  9587  001F04  503E               	movf	_pBDTEntryEP0OutNext^0,w,c
  9588  001F06  26D9               	addwf	fsr2l,f,c
  9589  001F08  503F               	movf	(_pBDTEntryEP0OutNext+1)^0,w,c
  9590  001F0A  22DA               	addwfc	fsr2h,f,c
  9591  001F0C  0E08               	movlw	8
  9592  001F0E  6EDF               	movwf	indf2,c
  9593                           
  9594                           ;mcc_generated_files/usb/usb_device.c: 1888:         pBDTEntryEP0OutNext->ADR = ((uint16
      +                          _t)(&CtrlTrfData));
  9595  001F10  EE20 F002          	lfsr	2,2
  9596  001F14  503E               	movf	_pBDTEntryEP0OutNext^0,w,c
  9597  001F16  26D9               	addwf	fsr2l,f,c
  9598  001F18  503F               	movf	(_pBDTEntryEP0OutNext+1)^0,w,c
  9599  001F1A  22DA               	addwfc	fsr2h,f,c
  9600  001F1C  0E38               	movlw	56
  9601  001F1E  6EDE               	movwf	postinc2,c
  9602  001F20  0E04               	movlw	4
  9603  001F22  6EDD               	movwf	postdec2,c
  9604  001F24                     
  9605                           ; BSR set to: 0
  9606                           ;mcc_generated_files/usb/usb_device.c: 1889:         if(pBDTEntryEP0OutCurrent->STAT.DTS
      +                           == 0)
  9607  001F24  C040  FFD9         	movff	_pBDTEntryEP0OutCurrent,fsr2l
  9608  001F28  C041  FFDA         	movff	_pBDTEntryEP0OutCurrent+1,fsr2h
  9609  001F2C  BCDF               	btfsc	indf2,6,c
  9610  001F2E  EF9B  F00F         	goto	i2u358_41
  9611  001F32  EF9D  F00F         	goto	i2u358_40
  9612  001F36                     i2u358_41:
  9613  001F36  EFAB  F00F         	goto	i2l5162
  9614  001F3A                     i2u358_40:
  9615  001F3A                     
  9616                           ; BSR set to: 0
  9617                           ;mcc_generated_files/usb/usb_device.c: 1890:         {;mcc_generated_files/usb/usb_devic
      +                          e.c: 1891:             pBDTEntryEP0OutNext->STAT.Val = 0x40|(0x08 & 0x08);
  9618  001F3A  C03E  FFD9         	movff	_pBDTEntryEP0OutNext,fsr2l
  9619  001F3E  C03F  FFDA         	movff	_pBDTEntryEP0OutNext+1,fsr2h
  9620  001F42  0E48               	movlw	72
  9621  001F44  6EDF               	movwf	indf2,c
  9622  001F46                     
  9623                           ; BSR set to: 0
  9624                           ;mcc_generated_files/usb/usb_device.c: 1892:             pBDTEntryEP0OutNext->STAT.Val |
      +                          = 0x80;
  9625  001F46  C03E  FFD9         	movff	_pBDTEntryEP0OutNext,fsr2l
  9626  001F4A  C03F  FFDA         	movff	_pBDTEntryEP0OutNext+1,fsr2h
  9627  001F4E  0E00               	movlw	0
  9628  001F50  8EDB               	bsf	plusw2,7,c
  9629                           
  9630                           ;mcc_generated_files/usb/usb_device.c: 1893:         }
  9631  001F52  EFE2  F00F         	goto	i2l470
  9632  001F56                     i2l5162:
  9633                           
  9634                           ; BSR set to: 0
  9635                           ;mcc_generated_files/usb/usb_device.c: 1895:         {;mcc_generated_files/usb/usb_devic
      +                          e.c: 1896:             pBDTEntryEP0OutNext->STAT.Val = 0x00|(0x08 & 0x08);
  9636  001F56  C03E  FFD9         	movff	_pBDTEntryEP0OutNext,fsr2l
  9637  001F5A  C03F  FFDA         	movff	_pBDTEntryEP0OutNext+1,fsr2h
  9638  001F5E  0E08               	movlw	8
  9639  001F60  6EDF               	movwf	indf2,c
  9640  001F62                     
  9641                           ; BSR set to: 0
  9642                           ;mcc_generated_files/usb/usb_device.c: 1897:             pBDTEntryEP0OutNext->STAT.Val |
      +                          = 0x80;
  9643  001F62  C03E  FFD9         	movff	_pBDTEntryEP0OutNext,fsr2l
  9644  001F66  C03F  FFDA         	movff	_pBDTEntryEP0OutNext+1,fsr2h
  9645  001F6A  0E00               	movlw	0
  9646  001F6C  8EDB               	bsf	plusw2,7,c
  9647  001F6E  EFE2  F00F         	goto	i2l470
  9648  001F72                     i2l5166:
  9649                           
  9650                           ; BSR set to: 0
  9651                           ;mcc_generated_files/usb/usb_device.c: 1901:     {;mcc_generated_files/usb/usb_device.c:
      +                           1905:         pBDTEntryEP0OutNext->CNT = 8;
  9652  001F72  EE20 F001          	lfsr	2,1
  9653  001F76  503E               	movf	_pBDTEntryEP0OutNext^0,w,c
  9654  001F78  26D9               	addwf	fsr2l,f,c
  9655  001F7A  503F               	movf	(_pBDTEntryEP0OutNext+1)^0,w,c
  9656  001F7C  22DA               	addwfc	fsr2h,f,c
  9657  001F7E  0E08               	movlw	8
  9658  001F80  6EDF               	movwf	indf2,c
  9659                           
  9660                           ;mcc_generated_files/usb/usb_device.c: 1906:         pBDTEntryEP0OutNext->ADR = ((uint16
      +                          _t)(&SetupPkt));
  9661  001F82  EE20 F002          	lfsr	2,2
  9662  001F86  503E               	movf	_pBDTEntryEP0OutNext^0,w,c
  9663  001F88  26D9               	addwf	fsr2l,f,c
  9664  001F8A  503F               	movf	(_pBDTEntryEP0OutNext+1)^0,w,c
  9665  001F8C  22DA               	addwfc	fsr2h,f,c
  9666  001F8E  0E30               	movlw	48
  9667  001F90  6EDE               	movwf	postinc2,c
  9668  001F92  0E04               	movlw	4
  9669  001F94  6EDD               	movwf	postdec2,c
  9670  001F96                     
  9671                           ; BSR set to: 0
  9672                           ;mcc_generated_files/usb/usb_device.c: 1910:         pBDTEntryEP0OutNext->STAT.Val = 0x0
      +                          4;
  9673  001F96  C03E  FFD9         	movff	_pBDTEntryEP0OutNext,fsr2l
  9674  001F9A  C03F  FFDA         	movff	_pBDTEntryEP0OutNext+1,fsr2h
  9675  001F9E  0E04               	movlw	4
  9676  001FA0  6EDF               	movwf	indf2,c
  9677  001FA2                     
  9678                           ; BSR set to: 0
  9679                           ;mcc_generated_files/usb/usb_device.c: 1911:         pBDTEntryEP0OutNext->STAT.Val |= 0x
      +                          80;
  9680  001FA2  C03E  FFD9         	movff	_pBDTEntryEP0OutNext,fsr2l
  9681  001FA6  C03F  FFDA         	movff	_pBDTEntryEP0OutNext+1,fsr2h
  9682  001FAA  0E00               	movlw	0
  9683  001FAC  8EDB               	bsf	plusw2,7,c
  9684  001FAE                     
  9685                           ; BSR set to: 0
  9686  001FAE  9FCF               	bcf	(_outPipes+3)& (0+255),7,b	;volatile
  9687  001FB0                     
  9688                           ; BSR set to: 0
  9689                           ;mcc_generated_files/usb/usb_device.c: 1945:         if(USBDeferStatusStagePacket == 0)
  9690  001FB0  5049               	movf	_USBDeferStatusStagePacket^0,w,c	;volatile
  9691  001FB2  A4D8               	btfss	status,2,c
  9692  001FB4  EFDE  F00F         	goto	i2u359_41
  9693  001FB8  EFE0  F00F         	goto	i2u359_40
  9694  001FBC                     i2u359_41:
  9695  001FBC  EFE2  F00F         	goto	i2l470
  9696  001FC0                     i2u359_40:
  9697  001FC0                     
  9698                           ; BSR set to: 0
  9699                           ;mcc_generated_files/usb/usb_device.c: 1946:         {;mcc_generated_files/usb/usb_devic
      +                          e.c: 1947:             USBCtrlEPAllowStatusStage();
  9700  001FC0  EC71  F014         	call	_USBCtrlEPAllowStatusStage	;wreg free
  9701  001FC4                     i2l470:
  9702  001FC4  0012               	return		;funcret
  9703  001FC6                     __end_of_USBCtrlTrfRxService:
  9704                           	callstack 0
  9705                           
  9706 ;; *************** function _USBCtrlEPAllowStatusStage *****************
  9707 ;; Defined at:
  9708 ;;		line 1420 in file "mcc_generated_files/usb/usb_device.c"
  9709 ;; Parameters:    Size  Location     Type
  9710 ;;		None
  9711 ;; Auto vars:     Size  Location     Type
  9712 ;;		None
  9713 ;; Return value:  Size  Location     Type
  9714 ;;                  1    wreg      void 
  9715 ;; Registers used:
  9716 ;;		wreg, fsr2l, fsr2h, status,2, status,0
  9717 ;; Tracked objects:
  9718 ;;		On entry : 0/0
  9719 ;;		On exit  : 0/0
  9720 ;;		Unchanged: 0/0
  9721 ;; Data sizes:     COMRAM   BANK0   BANK1   BANK2   BANK3   BANK4   BANK5   BANK6   BANK7
  9722 ;;      Params:         0       0       0       0       0       0       0       0       0
  9723 ;;      Locals:         0       0       0       0       0       0       0       0       0
  9724 ;;      Temps:          0       0       0       0       0       0       0       0       0
  9725 ;;      Totals:         0       0       0       0       0       0       0       0       0
  9726 ;;Total ram usage:        0 bytes
  9727 ;; Hardware stack levels used: 1
  9728 ;; This function calls:
  9729 ;;		Nothing
  9730 ;; This function is called by:
  9731 ;;		_USBDeviceTasks
  9732 ;;		_USBCtrlEPServiceComplete
  9733 ;;		_USBCtrlTrfRxService
  9734 ;; This function uses a non-reentrant model
  9735 ;;
  9736                           
  9737                           	psect	text49
  9738  0028E2                     __ptext49:
  9739                           	callstack 0
  9740  0028E2                     _USBCtrlEPAllowStatusStage:
  9741                           	callstack 17
  9742  0028E2                     
  9743                           ;mcc_generated_files/usb/usb_device.c: 1427:     if(USBStatusStageEnabledFlag1 == 0)
  9744  0028E2  5048               	movf	_USBStatusStageEnabledFlag1^0,w,c	;volatile
  9745  0028E4  A4D8               	btfss	status,2,c
  9746  0028E6  EF77  F014         	goto	i2u293_41
  9747  0028EA  EF79  F014         	goto	i2u293_40
  9748  0028EE                     i2u293_41:
  9749  0028EE  EFE9  F014         	goto	i2l418
  9750  0028F2                     i2u293_40:
  9751  0028F2                     
  9752                           ;mcc_generated_files/usb/usb_device.c: 1428:     {;mcc_generated_files/usb/usb_device.c:
      +                           1429:         USBStatusStageEnabledFlag1 = 1;
  9753  0028F2  0E01               	movlw	1
  9754  0028F4  6E48               	movwf	_USBStatusStageEnabledFlag1^0,c	;volatile
  9755                           
  9756                           ;mcc_generated_files/usb/usb_device.c: 1430:         if(USBStatusStageEnabledFlag2 == 0)
  9757  0028F6  5047               	movf	_USBStatusStageEnabledFlag2^0,w,c	;volatile
  9758  0028F8  A4D8               	btfss	status,2,c
  9759  0028FA  EF81  F014         	goto	i2u294_41
  9760  0028FE  EF83  F014         	goto	i2u294_40
  9761  002902                     i2u294_41:
  9762  002902  EFE9  F014         	goto	i2l418
  9763  002906                     i2u294_40:
  9764  002906                     
  9765                           ;mcc_generated_files/usb/usb_device.c: 1431:         {;mcc_generated_files/usb/usb_devic
      +                          e.c: 1432:             USBStatusStageEnabledFlag2 = 1;
  9766  002906  0E01               	movlw	1
  9767  002908  6E47               	movwf	_USBStatusStageEnabledFlag2^0,c	;volatile
  9768  00290A                     
  9769                           ;mcc_generated_files/usb/usb_device.c: 1436:             if(controlTransferState == 2)
  9770  00290A  0E02               	movlw	2
  9771  00290C  184E               	xorwf	_controlTransferState^0,w,c	;volatile
  9772  00290E  A4D8               	btfss	status,2,c
  9773  002910  EF8C  F014         	goto	i2u295_41
  9774  002914  EF8E  F014         	goto	i2u295_40
  9775  002918                     i2u295_41:
  9776  002918  EFA5  F014         	goto	i2l4746
  9777  00291C                     i2u295_40:
  9778  00291C                     
  9779                           ;mcc_generated_files/usb/usb_device.c: 1437:             {;mcc_generated_files/usb/usb_d
      +                          evice.c: 1438:                 pBDTEntryIn[0]->CNT = 0;
  9780  00291C  0100               	movlb	0	; () banked
  9781  00291E  EE20 F001          	lfsr	2,1
  9782  002922  51DA               	movf	_pBDTEntryIn& (0+255),w,b
  9783  002924  26D9               	addwf	fsr2l,f,c
  9784  002926  51DB               	movf	(_pBDTEntryIn+1)& (0+255),w,b
  9785  002928  22DA               	addwfc	fsr2h,f,c
  9786  00292A  0E00               	movlw	0
  9787  00292C  6EDF               	movwf	indf2,c
  9788  00292E                     
  9789                           ; BSR set to: 0
  9790                           ;mcc_generated_files/usb/usb_device.c: 1439:                 pBDTEntryIn[0]->STAT.Val = 
      +                          0x40|(0x08 & 0x08);
  9791  00292E  C0DA  FFD9         	movff	_pBDTEntryIn,fsr2l
  9792  002932  C0DB  FFDA         	movff	_pBDTEntryIn+1,fsr2h
  9793  002936  0E48               	movlw	72
  9794  002938  6EDF               	movwf	indf2,c
  9795  00293A                     
  9796                           ; BSR set to: 0
  9797                           ;mcc_generated_files/usb/usb_device.c: 1440:                 pBDTEntryIn[0]->STAT.Val |=
      +                           0x80;
  9798  00293A  C0DA  FFD9         	movff	_pBDTEntryIn,fsr2l
  9799  00293E  C0DB  FFDA         	movff	_pBDTEntryIn+1,fsr2h
  9800  002942  0E00               	movlw	0
  9801  002944  8EDB               	bsf	plusw2,7,c
  9802                           
  9803                           ;mcc_generated_files/usb/usb_device.c: 1441:             }
  9804  002946  EFE9  F014         	goto	i2l418
  9805  00294A                     i2l4746:
  9806  00294A  044E               	decf	_controlTransferState^0,w,c	;volatile
  9807  00294C  A4D8               	btfss	status,2,c
  9808  00294E  EFAB  F014         	goto	i2u296_41
  9809  002952  EFAD  F014         	goto	i2u296_40
  9810  002956                     i2u296_41:
  9811  002956  EFE9  F014         	goto	i2l414
  9812  00295A                     i2u296_40:
  9813  00295A                     
  9814                           ;mcc_generated_files/usb/usb_device.c: 1443:             {;mcc_generated_files/usb/usb_d
      +                          evice.c: 1444:                 BothEP0OutUOWNsSet = 0;
  9815  00295A  0E00               	movlw	0
  9816  00295C  6E4B               	movwf	_BothEP0OutUOWNsSet^0,c	;volatile
  9817  00295E                     
  9818                           ;mcc_generated_files/usb/usb_device.c: 1449:                     pBDTEntryEP0OutCurrent-
      +                          >CNT = 8;
  9819  00295E  EE20 F001          	lfsr	2,1
  9820  002962  5040               	movf	_pBDTEntryEP0OutCurrent^0,w,c
  9821  002964  26D9               	addwf	fsr2l,f,c
  9822  002966  5041               	movf	(_pBDTEntryEP0OutCurrent+1)^0,w,c
  9823  002968  22DA               	addwfc	fsr2h,f,c
  9824  00296A  0E08               	movlw	8
  9825  00296C  6EDF               	movwf	indf2,c
  9826  00296E                     
  9827                           ;mcc_generated_files/usb/usb_device.c: 1450:                     pBDTEntryEP0OutCurrent-
      +                          >ADR = ((uint16_t)(&SetupPkt));
  9828  00296E  EE20 F002          	lfsr	2,2
  9829  002972  5040               	movf	_pBDTEntryEP0OutCurrent^0,w,c
  9830  002974  26D9               	addwf	fsr2l,f,c
  9831  002976  5041               	movf	(_pBDTEntryEP0OutCurrent+1)^0,w,c
  9832  002978  22DA               	addwfc	fsr2h,f,c
  9833  00297A  0E30               	movlw	48
  9834  00297C  6EDE               	movwf	postinc2,c
  9835  00297E  0E04               	movlw	4
  9836  002980  6EDD               	movwf	postdec2,c
  9837  002982                     
  9838                           ;mcc_generated_files/usb/usb_device.c: 1451:                     pBDTEntryEP0OutCurrent-
      +                          >STAT.Val = 0x04;
  9839  002982  C040  FFD9         	movff	_pBDTEntryEP0OutCurrent,fsr2l
  9840  002986  C041  FFDA         	movff	_pBDTEntryEP0OutCurrent+1,fsr2h
  9841  00298A  0E04               	movlw	4
  9842  00298C  6EDF               	movwf	indf2,c
  9843  00298E                     
  9844                           ;mcc_generated_files/usb/usb_device.c: 1452:                     pBDTEntryEP0OutCurrent-
      +                          >STAT.Val |= 0x80;
  9845  00298E  C040  FFD9         	movff	_pBDTEntryEP0OutCurrent,fsr2l
  9846  002992  C041  FFDA         	movff	_pBDTEntryEP0OutCurrent+1,fsr2h
  9847  002996  0E00               	movlw	0
  9848  002998  8EDB               	bsf	plusw2,7,c
  9849  00299A                     
  9850                           ;mcc_generated_files/usb/usb_device.c: 1453:                     BothEP0OutUOWNsSet = 1;
  9851  00299A  0E01               	movlw	1
  9852  00299C  6E4B               	movwf	_BothEP0OutUOWNsSet^0,c	;volatile
  9853  00299E                     
  9854                           ;mcc_generated_files/usb/usb_device.c: 1457:                 pBDTEntryEP0OutNext->CNT = 
      +                          8;
  9855  00299E  EE20 F001          	lfsr	2,1
  9856  0029A2  503E               	movf	_pBDTEntryEP0OutNext^0,w,c
  9857  0029A4  26D9               	addwf	fsr2l,f,c
  9858  0029A6  503F               	movf	(_pBDTEntryEP0OutNext+1)^0,w,c
  9859  0029A8  22DA               	addwfc	fsr2h,f,c
  9860  0029AA  0E08               	movlw	8
  9861  0029AC  6EDF               	movwf	indf2,c
  9862  0029AE                     
  9863                           ;mcc_generated_files/usb/usb_device.c: 1458:                 pBDTEntryEP0OutNext->ADR = 
      +                          ((uint16_t)(&SetupPkt));
  9864  0029AE  EE20 F002          	lfsr	2,2
  9865  0029B2  503E               	movf	_pBDTEntryEP0OutNext^0,w,c
  9866  0029B4  26D9               	addwf	fsr2l,f,c
  9867  0029B6  503F               	movf	(_pBDTEntryEP0OutNext+1)^0,w,c
  9868  0029B8  22DA               	addwfc	fsr2h,f,c
  9869  0029BA  0E30               	movlw	48
  9870  0029BC  6EDE               	movwf	postinc2,c
  9871  0029BE  0E04               	movlw	4
  9872  0029C0  6EDD               	movwf	postdec2,c
  9873  0029C2                     
  9874                           ;mcc_generated_files/usb/usb_device.c: 1459:                 pBDTEntryEP0OutNext->STAT.V
      +                          al = 0x80;
  9875  0029C2  C03E  FFD9         	movff	_pBDTEntryEP0OutNext,fsr2l
  9876  0029C6  C03F  FFDA         	movff	_pBDTEntryEP0OutNext+1,fsr2h
  9877  0029CA  0E80               	movlw	128
  9878  0029CC  6EDF               	movwf	indf2,c
  9879  0029CE  EFE9  F014         	goto	i2l418
  9880  0029D2                     i2l414:
  9881  0029D2                     i2l418:
  9882  0029D2  0012               	return		;funcret
  9883  0029D4                     __end_of_USBCtrlEPAllowStatusStage:
  9884                           	callstack 0
  9885                           
  9886 ;; *************** function _USBCtrlTrfInHandler *****************
  9887 ;; Defined at:
  9888 ;;		line 2596 in file "mcc_generated_files/usb/usb_device.c"
  9889 ;; Parameters:    Size  Location     Type
  9890 ;;		None
  9891 ;; Auto vars:     Size  Location     Type
  9892 ;;  lastDTS         1    1[COMRAM] unsigned char 
  9893 ;; Return value:  Size  Location     Type
  9894 ;;                  1    wreg      void 
  9895 ;; Registers used:
  9896 ;;		wreg, fsr0l, fsr0h, fsr2l, fsr2h, status,2, status,0, tblptrl, tblptrh, tblptru, cstack
  9897 ;; Tracked objects:
  9898 ;;		On entry : 0/0
  9899 ;;		On exit  : 0/0
  9900 ;;		Unchanged: 0/0
  9901 ;; Data sizes:     COMRAM   BANK0   BANK1   BANK2   BANK3   BANK4   BANK5   BANK6   BANK7
  9902 ;;      Params:         0       0       0       0       0       0       0       0       0
  9903 ;;      Locals:         1       0       0       0       0       0       0       0       0
  9904 ;;      Temps:          0       0       0       0       0       0       0       0       0
  9905 ;;      Totals:         1       0       0       0       0       0       0       0       0
  9906 ;;Total ram usage:        1 bytes
  9907 ;; Hardware stack levels used: 1
  9908 ;; Hardware stack levels required when called: 1
  9909 ;; This function calls:
  9910 ;;		_USBCtrlTrfTxService
  9911 ;; This function is called by:
  9912 ;;		_USBCtrlEPService
  9913 ;; This function uses a non-reentrant model
  9914 ;;
  9915                           
  9916                           	psect	text50
  9917  0027D8                     __ptext50:
  9918                           	callstack 0
  9919  0027D8                     _USBCtrlTrfInHandler:
  9920                           	callstack 18
  9921  0027D8                     
  9922                           ;mcc_generated_files/usb/usb_device.c: 2598:     uint8_t lastDTS;;mcc_generated_files/us
      +                          b/usb_device.c: 2600:     lastDTS = pBDTEntryIn[0]->STAT.DTS;
  9923  0027D8  C0DA  FFD9         	movff	_pBDTEntryIn,fsr2l
  9924  0027DC  C0DB  FFDA         	movff	_pBDTEntryIn+1,fsr2h
  9925  0027E0  0100               	movlb	0	; () banked
  9926  0027E2  0E00               	movlw	0
  9927  0027E4  BCDF               	btfsc	indf2,6,c
  9928  0027E6  0E01               	movlw	1
  9929  0027E8  6E02               	movwf	USBCtrlTrfInHandler@lastDTS^0,c
  9930  0027EA                     
  9931                           ; BSR set to: 0
  9932                           ;mcc_generated_files/usb/usb_device.c: 2603:     pBDTEntryIn[0] = (volatile BDT_ENTRY*)(
      +                          ((uint16_t)pBDTEntryIn[0]) ^ 0x0004);
  9933  0027EA  0E04               	movlw	4
  9934  0027EC  19DA               	xorwf	_pBDTEntryIn& (0+255),w,b
  9935  0027EE  6FDA               	movwf	_pBDTEntryIn& (0+255),b
  9936  0027F0  51DB               	movf	(_pBDTEntryIn+1)& (0+255),w,b
  9937  0027F2  6FDB               	movwf	(_pBDTEntryIn+1)& (0+255),b
  9938  0027F4                     
  9939                           ; BSR set to: 0
  9940                           ;mcc_generated_files/usb/usb_device.c: 2608:     if(USBDeviceState == ADR_PENDING_STATE)
  9941  0027F4  0E08               	movlw	8
  9942  0027F6  1850               	xorwf	_USBDeviceState^0,w,c	;volatile
  9943  0027F8  A4D8               	btfss	status,2,c
  9944  0027FA  EF01  F014         	goto	i2u384_41
  9945  0027FE  EF03  F014         	goto	i2u384_40
  9946  002802                     i2u384_41:
  9947  002802  EF15  F014         	goto	i2l5382
  9948  002806                     i2u384_40:
  9949  002806                     
  9950                           ; BSR set to: 0
  9951                           ;mcc_generated_files/usb/usb_device.c: 2609:     {;mcc_generated_files/usb/usb_device.c:
      +                           2610:         UADDR = (SetupPkt.bDevADR & 0x7F);
  9952  002806  0104               	movlb	4	; () banked
  9953  002808  5132               	movf	50,w,b	;volatile
  9954  00280A  0B7F               	andlw	127
  9955  00280C  6E63               	movwf	99,c	;volatile
  9956  00280E                     
  9957                           ; BSR set to: 4
  9958                           ;mcc_generated_files/usb/usb_device.c: 2611:         if(UADDR != 0u)
  9959  00280E  5063               	movf	99,w,c	;volatile
  9960  002810  B4D8               	btfsc	status,2,c
  9961  002812  EF0D  F014         	goto	i2u385_41
  9962  002816  EF0F  F014         	goto	i2u385_40
  9963  00281A                     i2u385_41:
  9964  00281A  EF13  F014         	goto	i2l5380
  9965  00281E                     i2u385_40:
  9966  00281E                     
  9967                           ; BSR set to: 4
  9968                           ;mcc_generated_files/usb/usb_device.c: 2612:         {;mcc_generated_files/usb/usb_devic
      +                          e.c: 2613:             USBDeviceState=ADDRESS_STATE;
  9969  00281E  0E10               	movlw	16
  9970  002820  6E50               	movwf	_USBDeviceState^0,c	;volatile
  9971                           
  9972                           ;mcc_generated_files/usb/usb_device.c: 2614:         }
  9973  002822  EF15  F014         	goto	i2l5382
  9974  002826                     i2l5380:
  9975                           
  9976                           ; BSR set to: 4
  9977                           ;mcc_generated_files/usb/usb_device.c: 2616:         {;mcc_generated_files/usb/usb_devic
      +                          e.c: 2617:             USBDeviceState=DEFAULT_STATE;
  9978  002826  0E04               	movlw	4
  9979  002828  6E50               	movwf	_USBDeviceState^0,c	;volatile
  9980  00282A                     i2l5382:
  9981                           
  9982                           ;mcc_generated_files/usb/usb_device.c: 2622:     if(controlTransferState == 1)
  9983  00282A  044E               	decf	_controlTransferState^0,w,c	;volatile
  9984  00282C  A4D8               	btfss	status,2,c
  9985  00282E  EF1B  F014         	goto	i2u386_41
  9986  002832  EF1D  F014         	goto	i2u386_40
  9987  002836                     i2u386_41:
  9988  002836  EF65  F014         	goto	i2l543
  9989  00283A                     i2u386_40:
  9990  00283A                     
  9991                           ;mcc_generated_files/usb/usb_device.c: 2623:     {;mcc_generated_files/usb/usb_device.c:
      +                           2624:         pBDTEntryIn[0]->ADR = ((uint16_t)(CtrlTrfData));
  9992  00283A  0100               	movlb	0	; () banked
  9993  00283C  EE20 F002          	lfsr	2,2
  9994  002840  51DA               	movf	_pBDTEntryIn& (0+255),w,b
  9995  002842  26D9               	addwf	fsr2l,f,c
  9996  002844  51DB               	movf	(_pBDTEntryIn+1)& (0+255),w,b
  9997  002846  22DA               	addwfc	fsr2h,f,c
  9998  002848  0E38               	movlw	56
  9999  00284A  6EDE               	movwf	postinc2,c
 10000  00284C  0E04               	movlw	4
 10001  00284E  6EDD               	movwf	postdec2,c
 10002  002850                     
 10003                           ; BSR set to: 0
 10004                           ;mcc_generated_files/usb/usb_device.c: 2625:         USBCtrlTrfTxService();
 10005  002850  EC57  F012         	call	_USBCtrlTrfTxService	;wreg free
 10006  002854                     
 10007                           ;mcc_generated_files/usb/usb_device.c: 2631:         if(shortPacketStatus == 2)
 10008  002854  0E02               	movlw	2
 10009  002856  184F               	xorwf	_shortPacketStatus^0,w,c	;volatile
 10010  002858  A4D8               	btfss	status,2,c
 10011  00285A  EF31  F014         	goto	i2u387_41
 10012  00285E  EF33  F014         	goto	i2u387_40
 10013  002862                     i2u387_41:
 10014  002862  EF41  F014         	goto	i2l5394
 10015  002866                     i2u387_40:
 10016  002866                     
 10017                           ;mcc_generated_files/usb/usb_device.c: 2632:         {;mcc_generated_files/usb/usb_devic
      +                          e.c: 2635:             pBDTEntryIn[0]->STAT.Val = 0x04;
 10018  002866  C0DA  FFD9         	movff	_pBDTEntryIn,fsr2l
 10019  00286A  C0DB  FFDA         	movff	_pBDTEntryIn+1,fsr2h
 10020  00286E  0E04               	movlw	4
 10021  002870  6EDF               	movwf	indf2,c
 10022  002872                     
 10023                           ;mcc_generated_files/usb/usb_device.c: 2636:             pBDTEntryIn[0]->STAT.Val |= 0x8
      +                          0;
 10024  002872  C0DA  FFD9         	movff	_pBDTEntryIn,fsr2l
 10025  002876  C0DB  FFDA         	movff	_pBDTEntryIn+1,fsr2h
 10026  00287A  0E00               	movlw	0
 10027  00287C  8EDB               	bsf	plusw2,7,c
 10028                           
 10029                           ;mcc_generated_files/usb/usb_device.c: 2637:         }
 10030  00287E  EF70  F014         	goto	i2l551
 10031  002882                     i2l5394:
 10032                           
 10033                           ;mcc_generated_files/usb/usb_device.c: 2639:         {;mcc_generated_files/usb/usb_devic
      +                          e.c: 2640:             if(lastDTS == 0)
 10034  002882  5002               	movf	USBCtrlTrfInHandler@lastDTS^0,w,c
 10035  002884  A4D8               	btfss	status,2,c
 10036  002886  EF47  F014         	goto	i2u388_41
 10037  00288A  EF49  F014         	goto	i2u388_40
 10038  00288E                     i2u388_41:
 10039  00288E  EF57  F014         	goto	i2l5400
 10040  002892                     i2u388_40:
 10041  002892                     
 10042                           ;mcc_generated_files/usb/usb_device.c: 2641:             {;mcc_generated_files/usb/usb_d
      +                          evice.c: 2642:                 pBDTEntryIn[0]->STAT.Val = 0x40|(0x08 & 0x08);
 10043  002892  C0DA  FFD9         	movff	_pBDTEntryIn,fsr2l
 10044  002896  C0DB  FFDA         	movff	_pBDTEntryIn+1,fsr2h
 10045  00289A  0E48               	movlw	72
 10046  00289C  6EDF               	movwf	indf2,c
 10047  00289E                     
 10048                           ;mcc_generated_files/usb/usb_device.c: 2643:                 pBDTEntryIn[0]->STAT.Val |=
      +                           0x80;
 10049  00289E  C0DA  FFD9         	movff	_pBDTEntryIn,fsr2l
 10050  0028A2  C0DB  FFDA         	movff	_pBDTEntryIn+1,fsr2h
 10051  0028A6  0E00               	movlw	0
 10052  0028A8  8EDB               	bsf	plusw2,7,c
 10053                           
 10054                           ;mcc_generated_files/usb/usb_device.c: 2644:             }
 10055  0028AA  EF70  F014         	goto	i2l551
 10056  0028AE                     i2l5400:
 10057                           
 10058                           ;mcc_generated_files/usb/usb_device.c: 2646:             {;mcc_generated_files/usb/usb_d
      +                          evice.c: 2647:                 pBDTEntryIn[0]->STAT.Val = 0x00|(0x08 & 0x08);
 10059  0028AE  C0DA  FFD9         	movff	_pBDTEntryIn,fsr2l
 10060  0028B2  C0DB  FFDA         	movff	_pBDTEntryIn+1,fsr2h
 10061  0028B6  0E08               	movlw	8
 10062  0028B8  6EDF               	movwf	indf2,c
 10063  0028BA                     
 10064                           ;mcc_generated_files/usb/usb_device.c: 2648:                 pBDTEntryIn[0]->STAT.Val |=
      +                           0x80;
 10065  0028BA  C0DA  FFD9         	movff	_pBDTEntryIn,fsr2l
 10066  0028BE  C0DB  FFDA         	movff	_pBDTEntryIn+1,fsr2h
 10067  0028C2  0E00               	movlw	0
 10068  0028C4  8EDB               	bsf	plusw2,7,c
 10069  0028C6  EF70  F014         	goto	i2l551
 10070  0028CA                     i2l543:
 10071                           
 10072                           ;mcc_generated_files/usb/usb_device.c: 2653:  {;mcc_generated_files/usb/usb_device.c: 26
      +                          57:         if(outPipes[0].info.bits.busy == 1)
 10073  0028CA  0100               	movlb	0	; () banked
 10074  0028CC  AFCF               	btfss	(_outPipes+3)& (0+255),7,b	;volatile
 10075  0028CE  EF6B  F014         	goto	i2u389_41
 10076  0028D2  EF6D  F014         	goto	i2u389_40
 10077  0028D6                     i2u389_41:
 10078  0028D6  EF6E  F014         	goto	i2l5406
 10079  0028DA                     i2u389_40:
 10080  0028DA                     
 10081                           ; BSR set to: 0
 10082                           ;mcc_generated_files/usb/usb_device.c: 2663:             outPipes[0].info.bits.busy = 0;
 10083  0028DA  9FCF               	bcf	(_outPipes+3)& (0+255),7,b	;volatile
 10084  0028DC                     i2l5406:
 10085                           
 10086                           ; BSR set to: 0
 10087                           ;mcc_generated_files/usb/usb_device.c: 2666:         controlTransferState = 0;
 10088  0028DC  0E00               	movlw	0
 10089  0028DE  6E4E               	movwf	_controlTransferState^0,c	;volatile
 10090  0028E0                     i2l551:
 10091  0028E0  0012               	return		;funcret
 10092  0028E2                     __end_of_USBCtrlTrfInHandler:
 10093                           	callstack 0
 10094                           
 10095 ;; *************** function _USBCtrlTrfTxService *****************
 10096 ;; Defined at:
 10097 ;;		line 1775 in file "mcc_generated_files/usb/usb_device.c"
 10098 ;; Parameters:    Size  Location     Type
 10099 ;;		None
 10100 ;; Auto vars:     Size  Location     Type
 10101 ;;  byteToSend      1    0[COMRAM] unsigned char 
 10102 ;; Return value:  Size  Location     Type
 10103 ;;                  1    wreg      void 
 10104 ;; Registers used:
 10105 ;;		wreg, fsr0l, fsr0h, fsr2l, fsr2h, status,2, status,0, tblptrl, tblptrh, tblptru
 10106 ;; Tracked objects:
 10107 ;;		On entry : 0/0
 10108 ;;		On exit  : 0/0
 10109 ;;		Unchanged: 0/0
 10110 ;; Data sizes:     COMRAM   BANK0   BANK1   BANK2   BANK3   BANK4   BANK5   BANK6   BANK7
 10111 ;;      Params:         0       0       0       0       0       0       0       0       0
 10112 ;;      Locals:         1       0       0       0       0       0       0       0       0
 10113 ;;      Temps:          0       0       0       0       0       0       0       0       0
 10114 ;;      Totals:         1       0       0       0       0       0       0       0       0
 10115 ;;Total ram usage:        1 bytes
 10116 ;; Hardware stack levels used: 1
 10117 ;; This function calls:
 10118 ;;		Nothing
 10119 ;; This function is called by:
 10120 ;;		_USBCtrlEPAllowDataStage
 10121 ;;		_USBCtrlTrfInHandler
 10122 ;; This function uses a non-reentrant model
 10123 ;;
 10124                           
 10125                           	psect	text51
 10126  0024AE                     __ptext51:
 10127                           	callstack 0
 10128  0024AE                     _USBCtrlTrfTxService:
 10129                           	callstack 16
 10130  0024AE                     
 10131                           ;mcc_generated_files/usb/usb_device.c: 1777:     uint8_t byteToSend;;mcc_generated_files
      +                          /usb/usb_device.c: 1781:     byteToSend = 8;
 10132  0024AE  0E08               	movlw	8
 10133  0024B0  6E01               	movwf	USBCtrlTrfTxService@byteToSend^0,c
 10134  0024B2                     
 10135                           ;mcc_generated_files/usb/usb_device.c: 1782:     if(inPipes[0].wCount.Val < (uint8_t)8)
 10136  0024B2  0100               	movlb	0	; () banked
 10137  0024B4  51D9               	movf	(_inPipes+5)& (0+255),w,b	;volatile
 10138  0024B6  E107               	bnz	i2u278_41
 10139  0024B8  0E08               	movlw	8
 10140  0024BA  5DD8               	subwf	(_inPipes+4)& (0+255),w,b	;volatile
 10141  0024BC  B0D8               	btfsc	status,0,c
 10142  0024BE  EF63  F012         	goto	i2u278_41
 10143  0024C2  EF65  F012         	goto	i2u278_40
 10144  0024C6                     i2u278_41:
 10145  0024C6  EF7D  F012         	goto	i2l4652
 10146  0024CA                     i2u278_40:
 10147  0024CA                     
 10148                           ; BSR set to: 0
 10149                           ;mcc_generated_files/usb/usb_device.c: 1783:     {;mcc_generated_files/usb/usb_device.c:
      +                           1784:         byteToSend = inPipes[0].wCount.Val;
 10150  0024CA  C0D8  F001         	movff	_inPipes+4,USBCtrlTrfTxService@byteToSend	;volatile
 10151  0024CE                     
 10152                           ; BSR set to: 0
 10153                           ;mcc_generated_files/usb/usb_device.c: 1791:         if(shortPacketStatus == 0)
 10154  0024CE  504F               	movf	_shortPacketStatus^0,w,c	;volatile
 10155  0024D0  A4D8               	btfss	status,2,c
 10156  0024D2  EF6D  F012         	goto	i2u279_41
 10157  0024D6  EF6F  F012         	goto	i2u279_40
 10158  0024DA                     i2u279_41:
 10159  0024DA  EF73  F012         	goto	i2l4648
 10160  0024DE                     i2u279_40:
 10161  0024DE                     
 10162                           ; BSR set to: 0
 10163                           ;mcc_generated_files/usb/usb_device.c: 1792:         {;mcc_generated_files/usb/usb_devic
      +                          e.c: 1793:             shortPacketStatus = 1;
 10164  0024DE  0E01               	movlw	1
 10165  0024E0  6E4F               	movwf	_shortPacketStatus^0,c	;volatile
 10166                           
 10167                           ;mcc_generated_files/usb/usb_device.c: 1794:         }
 10168  0024E2  EF7D  F012         	goto	i2l4652
 10169  0024E6                     i2l4648:
 10170                           
 10171                           ; BSR set to: 0
 10172  0024E6  044F               	decf	_shortPacketStatus^0,w,c	;volatile
 10173  0024E8  A4D8               	btfss	status,2,c
 10174  0024EA  EF79  F012         	goto	i2u280_41
 10175  0024EE  EF7B  F012         	goto	i2u280_40
 10176  0024F2                     i2u280_41:
 10177  0024F2  EF7D  F012         	goto	i2l4652
 10178  0024F6                     i2u280_40:
 10179  0024F6                     
 10180                           ; BSR set to: 0
 10181                           ;mcc_generated_files/usb/usb_device.c: 1796:         {;mcc_generated_files/usb/usb_devic
      +                          e.c: 1797:             shortPacketStatus = 2;
 10182  0024F6  0E02               	movlw	2
 10183  0024F8  6E4F               	movwf	_shortPacketStatus^0,c	;volatile
 10184  0024FA                     i2l4652:
 10185                           
 10186                           ; BSR set to: 0
 10187                           ;mcc_generated_files/usb/usb_device.c: 1803:     inPipes[0].wCount.Val -= byteToSend;
 10188  0024FA  5001               	movf	USBCtrlTrfTxService@byteToSend^0,w,c
 10189  0024FC  5FD8               	subwf	(_inPipes+4)& (0+255),f,b	;volatile
 10190  0024FE  0E00               	movlw	0
 10191  002500  5BD9               	subwfb	(_inPipes+5)& (0+255),f,b	;volatile
 10192  002502                     
 10193                           ; BSR set to: 0
 10194                           ;mcc_generated_files/usb/usb_device.c: 1808:     pBDTEntryIn[0]->CNT = byteToSend;
 10195  002502  EE20 F001          	lfsr	2,1
 10196  002506  51DA               	movf	_pBDTEntryIn& (0+255),w,b
 10197  002508  26D9               	addwf	fsr2l,f,c
 10198  00250A  51DB               	movf	(_pBDTEntryIn+1)& (0+255),w,b
 10199  00250C  22DA               	addwfc	fsr2h,f,c
 10200  00250E  C001  FFDF         	movff	USBCtrlTrfTxService@byteToSend,indf2
 10201  002512                     
 10202                           ; BSR set to: 0
 10203                           ;mcc_generated_files/usb/usb_device.c: 1812:     pDst = (volatile uint8_t*)CtrlTrfData;
 10204  002512  0E38               	movlw	56
 10205  002514  6E3C               	movwf	_pDst^0,c
 10206  002516  0E04               	movlw	4
 10207  002518  6E3D               	movwf	(_pDst+1)^0,c
 10208  00251A                     
 10209                           ; BSR set to: 0
 10210                           ;mcc_generated_files/usb/usb_device.c: 1813:     if(inPipes[0].info.bits.ctrl_trf_mem ==
      +                           0x00)
 10211  00251A  B1D7               	btfsc	(_inPipes+3)& (0+255),0,b	;volatile
 10212  00251C  EF92  F012         	goto	i2u281_41
 10213  002520  EF94  F012         	goto	i2u281_40
 10214  002524                     i2u281_41:
 10215  002524  EFD6  F012         	goto	i2l4680
 10216  002528                     i2u281_40:
 10217  002528  EFB1  F012         	goto	i2l4670
 10218  00252C                     i2l4662:
 10219                           
 10220                           ; BSR set to: 0
 10221                           ;mcc_generated_files/usb/usb_device.c: 1816:         {;mcc_generated_files/usb/usb_devic
      +                          e.c: 1817:             *pDst++ = *inPipes[0].pSrc.bRom++;
 10222  00252C  C0D4  FFF6         	movff	_inPipes,tblptrl	;volatile
 10223  002530  C0D5  FFF7         	movff	_inPipes+1,tblptrh	;volatile
 10224  002534  6AF8               	clrf	tblptru,c
 10225  002536  C03C  FFD9         	movff	_pDst,fsr2l
 10226  00253A  C03D  FFDA         	movff	_pDst+1,fsr2h
 10227  00253E  0E07               	movlw	(high __ramtop+-1)
 10228  002540  64F7               	cpfsgt	tblptrh,c
 10229  002542  D003               	bra	i2u282_47
 10230  002544  0008               	tblrd		*
 10231  002546  50F5               	movf	tablat,w,c
 10232  002548  D005               	bra	i2u282_40
 10233  00254A                     i2u282_47:
 10234  00254A  CFF6 FFE9          	movff	tblptrl,fsr0l
 10235  00254E  CFF7 FFEA          	movff	tblptrh,fsr0h
 10236  002552  50EF               	movf	indf0,w,c
 10237  002554                     i2u282_40:
 10238  002554  6EDF               	movwf	indf2,c
 10239  002556  0100               	movlb	0	; () banked
 10240  002558  4BD4               	infsnz	_inPipes& (0+255),f,b	;volatile
 10241  00255A  2BD5               	incf	(_inPipes+1)& (0+255),f,b	;volatile
 10242  00255C                     
 10243                           ; BSR set to: 0
 10244  00255C  4A3C               	infsnz	_pDst^0,f,c
 10245  00255E  2A3D               	incf	(_pDst+1)^0,f,c
 10246  002560                     
 10247                           ; BSR set to: 0
 10248                           ;mcc_generated_files/usb/usb_device.c: 1818:             byteToSend--;
 10249  002560  0601               	decf	USBCtrlTrfTxService@byteToSend^0,f,c
 10250  002562                     i2l4670:
 10251                           
 10252                           ; BSR set to: 0
 10253                           ;mcc_generated_files/usb/usb_device.c: 1815:         while(byteToSend)
 10254  002562  5001               	movf	USBCtrlTrfTxService@byteToSend^0,w,c
 10255  002564  A4D8               	btfss	status,2,c
 10256  002566  EFB7  F012         	goto	i2u283_41
 10257  00256A  EFB9  F012         	goto	i2u283_40
 10258  00256E                     i2u283_41:
 10259  00256E  EF96  F012         	goto	i2l4662
 10260  002572                     i2u283_40:
 10261  002572  EFDE  F012         	goto	i2l457
 10262  002576                     i2l4672:
 10263                           
 10264                           ; BSR set to: 0
 10265                           ;mcc_generated_files/usb/usb_device.c: 1824:         {;mcc_generated_files/usb/usb_devic
      +                          e.c: 1825:             *pDst++ = *inPipes[0].pSrc.bRam++;
 10266  002576  C0D4  FFF6         	movff	_inPipes,tblptrl	;volatile
 10267  00257A  C0D5  FFF7         	movff	_inPipes+1,tblptrh	;volatile
 10268  00257E  6AF8               	clrf	tblptru,c
 10269  002580  C03C  FFD9         	movff	_pDst,fsr2l
 10270  002584  C03D  FFDA         	movff	_pDst+1,fsr2h
 10271  002588  0E07               	movlw	(high __ramtop+-1)
 10272  00258A  64F7               	cpfsgt	tblptrh,c
 10273  00258C  D003               	bra	i2u284_47
 10274  00258E  0008               	tblrd		*
 10275  002590  50F5               	movf	tablat,w,c
 10276  002592  D005               	bra	i2u284_40
 10277  002594                     i2u284_47:
 10278  002594  CFF6 FFE9          	movff	tblptrl,fsr0l
 10279  002598  CFF7 FFEA          	movff	tblptrh,fsr0h
 10280  00259C  50EF               	movf	indf0,w,c
 10281  00259E                     i2u284_40:
 10282  00259E  6EDF               	movwf	indf2,c
 10283  0025A0  0100               	movlb	0	; () banked
 10284  0025A2  4BD4               	infsnz	_inPipes& (0+255),f,b	;volatile
 10285  0025A4  2BD5               	incf	(_inPipes+1)& (0+255),f,b	;volatile
 10286  0025A6                     
 10287                           ; BSR set to: 0
 10288  0025A6  4A3C               	infsnz	_pDst^0,f,c
 10289  0025A8  2A3D               	incf	(_pDst+1)^0,f,c
 10290  0025AA                     
 10291                           ; BSR set to: 0
 10292                           ;mcc_generated_files/usb/usb_device.c: 1826:             byteToSend--;
 10293  0025AA  0601               	decf	USBCtrlTrfTxService@byteToSend^0,f,c
 10294  0025AC                     i2l4680:
 10295                           
 10296                           ; BSR set to: 0
 10297                           ;mcc_generated_files/usb/usb_device.c: 1823:         while(byteToSend)
 10298  0025AC  5001               	movf	USBCtrlTrfTxService@byteToSend^0,w,c
 10299  0025AE  A4D8               	btfss	status,2,c
 10300  0025B0  EFDC  F012         	goto	i2u285_41
 10301  0025B4  EFDE  F012         	goto	i2u285_40
 10302  0025B8                     i2u285_41:
 10303  0025B8  EFBB  F012         	goto	i2l4672
 10304  0025BC                     i2u285_40:
 10305  0025BC                     i2l457:
 10306                           
 10307                           ; BSR set to: 0
 10308  0025BC  0012               	return		;funcret
 10309  0025BE                     __end_of_USBCtrlTrfTxService:
 10310                           	callstack 0
 10311                           
 10312                           	psect	rparam
 10313  0000                     
 10314                           	psect	temp
 10315  000055                     btemp:
 10316                           	callstack 0
 10317  000055                     	ds	1
 10318  0000                     int$flags	set	btemp
 10319  0000                     wtemp8	set	btemp+1
 10320  0000                     ttemp5	set	btemp+1
 10321  0000                     ttemp6	set	btemp+4
 10322  0000                     ttemp7	set	btemp+8
 10323                           
 10324                           	psect	idloc
 10325                           
 10326                           ;Config register IDLOC0 @ 0x200000
 10327                           ;	unspecified, using default values
 10328  200000                     	org	2097152
 10329  200000  FF                 	db	255
 10330                           
 10331                           ;Config register IDLOC1 @ 0x200001
 10332                           ;	unspecified, using default values
 10333  200001                     	org	2097153
 10334  200001  FF                 	db	255
 10335                           
 10336                           ;Config register IDLOC2 @ 0x200002
 10337                           ;	unspecified, using default values
 10338  200002                     	org	2097154
 10339  200002  FF                 	db	255
 10340                           
 10341                           ;Config register IDLOC3 @ 0x200003
 10342                           ;	unspecified, using default values
 10343  200003                     	org	2097155
 10344  200003  FF                 	db	255
 10345                           
 10346                           ;Config register IDLOC4 @ 0x200004
 10347                           ;	unspecified, using default values
 10348  200004                     	org	2097156
 10349  200004  FF                 	db	255
 10350                           
 10351                           ;Config register IDLOC5 @ 0x200005
 10352                           ;	unspecified, using default values
 10353  200005                     	org	2097157
 10354  200005  FF                 	db	255
 10355                           
 10356                           ;Config register IDLOC6 @ 0x200006
 10357                           ;	unspecified, using default values
 10358  200006                     	org	2097158
 10359  200006  FF                 	db	255
 10360                           
 10361                           ;Config register IDLOC7 @ 0x200007
 10362                           ;	unspecified, using default values
 10363  200007                     	org	2097159
 10364  200007  FF                 	db	255
 10365                           
 10366                           	psect	config
 10367                           
 10368                           ;Config register CONFIG1L @ 0x300000
 10369                           ;	PLL Selection
 10370                           ;	PLLSEL = PLL3X, 3x clock multiplier
 10371                           ;	PLL Enable Configuration bit
 10372                           ;	CFGPLLEN = ON, PLL Enabled
 10373                           ;	CPU System Clock Postscaler
 10374                           ;	CPUDIV = NOCLKDIV, CPU uses system clock (no divide)
 10375                           ;	Low Speed USB mode with 48 MHz system clock
 10376                           ;	LS48MHZ = SYS24X4, System clock at 24 MHz, USB clock divider is set to 4
 10377  300000                     	org	3145728
 10378  300000  03                 	db	3
 10379                           
 10380                           ;Config register CONFIG1H @ 0x300001
 10381                           ;	Oscillator Selection
 10382                           ;	FOSC = INTOSCIO, Internal oscillator
 10383                           ;	Primary Oscillator Shutdown
 10384                           ;	PCLKEN = ON, Primary oscillator enabled
 10385                           ;	Fail-Safe Clock Monitor
 10386                           ;	FCMEN = OFF, Fail-Safe Clock Monitor disabled
 10387                           ;	Internal/External Oscillator Switchover
 10388                           ;	IESO = OFF, Oscillator Switchover mode disabled
 10389  300001                     	org	3145729
 10390  300001  28                 	db	40
 10391                           
 10392                           ;Config register CONFIG2L @ 0x300002
 10393                           ;	Power-up Timer Enable
 10394                           ;	nPWRTEN = OFF, Power up timer disabled
 10395                           ;	Brown-out Reset Enable
 10396                           ;	BOREN = OFF, BOR disabled in hardware (SBOREN is ignored)
 10397                           ;	Brown-out Reset Voltage
 10398                           ;	BORV = 190, BOR set to 1.9V nominal
 10399                           ;	Low-Power Brown-out Reset
 10400                           ;	nLPBOR = OFF, Low-Power Brown-out Reset disabled
 10401  300002                     	org	3145730
 10402  300002  59                 	db	89
 10403                           
 10404                           ;Config register CONFIG2H @ 0x300003
 10405                           ;	Watchdog Timer Enable bits
 10406                           ;	WDTEN = OFF, WDT disabled in hardware (SWDTEN ignored)
 10407                           ;	Watchdog Timer Postscaler
 10408                           ;	WDTPS = 32768, 1:32768
 10409  300003                     	org	3145731
 10410  300003  3C                 	db	60
 10411                           
 10412                           ; Padding undefined space
 10413  300004                     	org	3145732
 10414  300004  FF                 	db	255
 10415                           
 10416                           ;Config register CONFIG3H @ 0x300005
 10417                           ;	CCP2 MUX bit
 10418                           ;	CCP2MX = RC1, CCP2 input/output is multiplexed with RC1
 10419                           ;	PORTB A/D Enable bit
 10420                           ;	PBADEN = ON, PORTB<5:0> pins are configured as analog input channels on Reset
 10421                           ;	Timer3 Clock Input MUX bit
 10422                           ;	T3CMX = RC0, T3CKI function is on RC0
 10423                           ;	SDO Output MUX bit
 10424                           ;	SDOMX = RB3, SDO function is on RB3
 10425                           ;	Master Clear Reset Pin Enable
 10426                           ;	MCLRE = ON, MCLR pin enabled; RE3 input disabled
 10427  300005                     	org	3145733
 10428  300005  D3                 	db	211
 10429                           
 10430                           ;Config register CONFIG4L @ 0x300006
 10431                           ;	Stack Full/Underflow Reset
 10432                           ;	STVREN = ON, Stack full/underflow will cause Reset
 10433                           ;	Single-Supply ICSP Enable bit
 10434                           ;	LVP = OFF, Single-Supply ICSP disabled
 10435                           ;	Dedicated In-Circuit Debug/Programming Port Enable
 10436                           ;	ICPRT = OFF, ICPORT disabled
 10437                           ;	Extended Instruction Set Enable bit
 10438                           ;	XINST = OFF, Instruction set extension and Indexed Addressing mode disabled
 10439                           ;	Background Debugger Enable bit
 10440                           ;	DEBUG = OFF, Background debugger disabled, RB6 and RB7 configured as general purpose I
      +                          /O pins
 10441  300006                     	org	3145734
 10442  300006  81                 	db	129
 10443                           
 10444                           ; Padding undefined space
 10445  300007                     	org	3145735
 10446  300007  FF                 	db	255
 10447                           
 10448                           ;Config register CONFIG5L @ 0x300008
 10449                           ;	Block 0 Code Protect
 10450                           ;	CP0 = OFF, Block 0 is not code-protected
 10451                           ;	Block 1 Code Protect
 10452                           ;	CP1 = OFF, Block 1 is not code-protected
 10453                           ;	Block 2 Code Protect
 10454                           ;	CP2 = OFF, Block 2 is not code-protected
 10455                           ;	Block 3 Code Protect
 10456                           ;	CP3 = OFF, Block 3 is not code-protected
 10457  300008                     	org	3145736
 10458  300008  0F                 	db	15
 10459                           
 10460                           ;Config register CONFIG5H @ 0x300009
 10461                           ;	Boot Block Code Protect
 10462                           ;	CPB = OFF, Boot block is not code-protected
 10463                           ;	Data EEPROM Code Protect
 10464                           ;	CPD = OFF, Data EEPROM is not code-protected
 10465  300009                     	org	3145737
 10466  300009  C0                 	db	192
 10467                           
 10468                           ;Config register CONFIG6L @ 0x30000A
 10469                           ;	Block 0 Write Protect
 10470                           ;	WRT0 = OFF, Block 0 (0800-1FFFh) is not write-protected
 10471                           ;	Block 1 Write Protect
 10472                           ;	WRT1 = OFF, Block 1 (2000-3FFFh) is not write-protected
 10473                           ;	Block 2 Write Protect
 10474                           ;	WRT2 = OFF, Block 2 (04000-5FFFh) is not write-protected
 10475                           ;	Block 3 Write Protect
 10476                           ;	WRT3 = OFF, Block 3 (06000-7FFFh) is not write-protected
 10477  30000A                     	org	3145738
 10478  30000A  0F                 	db	15
 10479                           
 10480                           ;Config register CONFIG6H @ 0x30000B
 10481                           ;	Configuration Registers Write Protect
 10482                           ;	WRTC = OFF, Configuration registers (300000-3000FFh) are not write-protected
 10483                           ;	Boot Block Write Protect
 10484                           ;	WRTB = OFF, Boot block (0000-7FFh) is not write-protected
 10485                           ;	Data EEPROM Write Protect
 10486                           ;	WRTD = OFF, Data EEPROM is not write-protected
 10487  30000B                     	org	3145739
 10488  30000B  E0                 	db	224
 10489                           
 10490                           ;Config register CONFIG7L @ 0x30000C
 10491                           ;	Block 0 Table Read Protect
 10492                           ;	EBTR0 = OFF, Block 0 is not protected from table reads executed in other blocks
 10493                           ;	Block 1 Table Read Protect
 10494                           ;	EBTR1 = OFF, Block 1 is not protected from table reads executed in other blocks
 10495                           ;	Block 2 Table Read Protect
 10496                           ;	EBTR2 = OFF, Block 2 is not protected from table reads executed in other blocks
 10497                           ;	Block 3 Table Read Protect
 10498                           ;	EBTR3 = OFF, Block 3 is not protected from table reads executed in other blocks
 10499  30000C                     	org	3145740
 10500  30000C  0F                 	db	15
 10501                           
 10502                           ;Config register CONFIG7H @ 0x30000D
 10503                           ;	Boot Block Table Read Protect
 10504                           ;	EBTRB = OFF, Boot block is not protected from table reads executed in other blocks
 10505  30000D                     	org	3145741
 10506  30000D  40                 	db	64
 10507                           tosu	equ	0xFFF
 10508                           tosh	equ	0xFFE
 10509                           tosl	equ	0xFFD
 10510                           stkptr	equ	0xFFC
 10511                           pclatu	equ	0xFFB
 10512                           pclath	equ	0xFFA
 10513                           pcl	equ	0xFF9
 10514                           tblptru	equ	0xFF8
 10515                           tblptrh	equ	0xFF7
 10516                           tblptrl	equ	0xFF6
 10517                           tablat	equ	0xFF5
 10518                           prodh	equ	0xFF4
 10519                           prodl	equ	0xFF3
 10520                           indf0	equ	0xFEF
 10521                           postinc0	equ	0xFEE
 10522                           postdec0	equ	0xFED
 10523                           preinc0	equ	0xFEC
 10524                           plusw0	equ	0xFEB
 10525                           fsr0h	equ	0xFEA
 10526                           fsr0l	equ	0xFE9
 10527                           wreg	equ	0xFE8
 10528                           indf1	equ	0xFE7
 10529                           postinc1	equ	0xFE6
 10530                           postdec1	equ	0xFE5
 10531                           preinc1	equ	0xFE4
 10532                           plusw1	equ	0xFE3
 10533                           fsr1h	equ	0xFE2
 10534                           fsr1l	equ	0xFE1
 10535                           bsr	equ	0xFE0
 10536                           indf2	equ	0xFDF
 10537                           postinc2	equ	0xFDE
 10538                           postdec2	equ	0xFDD
 10539                           preinc2	equ	0xFDC
 10540                           plusw2	equ	0xFDB
 10541                           fsr2h	equ	0xFDA
 10542                           fsr2l	equ	0xFD9
 10543                           status	equ	0xFD8

Data Sizes:
    Strings     14
    Constant    207
    Data        0
    BSS         180
    Persistent  0
    Stack       0

Auto Spaces:
    Space          Size  Autos    Used
    COMRAM           94     43      84
    BANK0           160    108     150
    BANK1           256     21     118
    BANK2           256      0       0
    BANK3           256      0       0
    BANK4           192      0       0
    BANK5           128      0       0
    BANK6           256      0       0
    BANK7           256      0       0

Pointer List with Targets:

    i2c_write1ByteRegister@data.data	PTR unsigned char  size(2) Largest target is 0

    i2c_read1ByteRegister@d2.data	PTR unsigned char  size(2) Largest target is 0

    i2c_read2ByteRegister@result.data	PTR unsigned char  size(2) Largest target is 0

    i2c_write2ByteRegister@data.data	PTR unsigned char  size(2) Largest target is 0

    I2C1_Read1ByteRegister@returnValue.data	PTR unsigned char  size(2) Largest target is 0

    I2C1_Read2ByteRegister@returnValue.data	PTR unsigned char  size(2) Largest target is 0

    I2C1_Write1ByteRegister@data.data	PTR unsigned char  size(2) Largest target is 0

    I2C1_Write2ByteRegister@data.data	PTR unsigned char  size(2) Largest target is 0

    I2C1_DO_TX$4606$0	PTR void  size(2) Largest target is 5
		 -> I2C1_ReadDataBlock@bufferBlock(COMRAM[4]), I2C1_Write2ByteRegister@data(COMRAM[2]), I2C1_Write1ByteRegister@data(COMRAM[1]), I2C1_Read2ByteRegister@returnValue(COMRAM[2]), 
		 -> I2C1_Read1ByteRegister@returnValue(COMRAM[1]), i2c_readDataBlock@d(COMRAM[4]), i2c_write2ByteRegister@data(COMRAM[2]), i2c_read2ByteRegister@result(COMRAM[2]), 
		 -> i2c_read1ByteRegister@d2(COMRAM[1]), i2c_write1ByteRegister@data(COMRAM[1]), NULL(NULL[0]), 

    I2C1_DO_RX$4612$0	PTR void  size(2) Largest target is 5
		 -> I2C1_ReadDataBlock@bufferBlock(COMRAM[4]), I2C1_Write2ByteRegister@data(COMRAM[2]), I2C1_Write1ByteRegister@data(COMRAM[1]), I2C1_Read2ByteRegister@returnValue(COMRAM[2]), 
		 -> I2C1_Read1ByteRegister@returnValue(COMRAM[1]), i2c_readDataBlock@d(COMRAM[4]), i2c_write2ByteRegister@data(COMRAM[2]), i2c_read2ByteRegister@result(COMRAM[2]), 
		 -> i2c_read1ByteRegister@d2(COMRAM[1]), i2c_write1ByteRegister@data(COMRAM[1]), NULL(NULL[0]), 

    I2C1_DO_TX_EMPTY$4618$0	PTR void  size(2) Largest target is 5
		 -> I2C1_ReadDataBlock@bufferBlock(COMRAM[4]), I2C1_Write2ByteRegister@data(COMRAM[2]), I2C1_Write1ByteRegister@data(COMRAM[1]), I2C1_Read2ByteRegister@returnValue(COMRAM[2]), 
		 -> I2C1_Read1ByteRegister@returnValue(COMRAM[1]), i2c_readDataBlock@d(COMRAM[4]), i2c_write2ByteRegister@data(COMRAM[2]), i2c_read2ByteRegister@result(COMRAM[2]), 
		 -> i2c_read1ByteRegister@d2(COMRAM[1]), i2c_write1ByteRegister@data(COMRAM[1]), NULL(NULL[0]), 

    I2C1_DO_RX_EMPTY$4624$0	PTR void  size(2) Largest target is 5
		 -> I2C1_ReadDataBlock@bufferBlock(COMRAM[4]), I2C1_Write2ByteRegister@data(COMRAM[2]), I2C1_Write1ByteRegister@data(COMRAM[1]), I2C1_Read2ByteRegister@returnValue(COMRAM[2]), 
		 -> I2C1_Read1ByteRegister@returnValue(COMRAM[1]), i2c_readDataBlock@d(COMRAM[4]), i2c_write2ByteRegister@data(COMRAM[2]), i2c_read2ByteRegister@result(COMRAM[2]), 
		 -> i2c_read1ByteRegister@d2(COMRAM[1]), i2c_write1ByteRegister@data(COMRAM[1]), NULL(NULL[0]), 

    cb$0	PTR void  size(2) Largest target is 5
		 -> I2C1_ReadDataBlock@bufferBlock(COMRAM[4]), I2C1_Write2ByteRegister@data(COMRAM[2]), I2C1_Write1ByteRegister@data(COMRAM[1]), I2C1_Read2ByteRegister@returnValue(COMRAM[2]), 
		 -> I2C1_Read1ByteRegister@returnValue(COMRAM[1]), i2c_readDataBlock@d(COMRAM[4]), i2c_write2ByteRegister@data(COMRAM[2]), i2c_read2ByteRegister@result(COMRAM[2]), 
		 -> i2c_read1ByteRegister@d2(COMRAM[1]), i2c_write1ByteRegister@data(COMRAM[1]), NULL(NULL[0]), 

    cb$0	PTR void  size(2) Largest target is 5
		 -> I2C1_ReadDataBlock@bufferBlock(COMRAM[4]), I2C1_Write2ByteRegister@data(COMRAM[2]), I2C1_Write1ByteRegister@data(COMRAM[1]), I2C1_Read2ByteRegister@returnValue(COMRAM[2]), 
		 -> I2C1_Read1ByteRegister@returnValue(COMRAM[1]), i2c_readDataBlock@d(COMRAM[4]), i2c_write2ByteRegister@data(COMRAM[2]), i2c_read2ByteRegister@result(COMRAM[2]), 
		 -> i2c_read1ByteRegister@d2(COMRAM[1]), i2c_write1ByteRegister@data(COMRAM[1]), NULL(NULL[0]), 

    Absolute function$0	PTR void  size(2) Largest target is 5
		 -> I2C1_ReadDataBlock@bufferBlock(COMRAM[4]), I2C1_Write2ByteRegister@data(COMRAM[2]), I2C1_Write1ByteRegister@data(COMRAM[1]), I2C1_Read2ByteRegister@returnValue(COMRAM[2]), 
		 -> I2C1_Read1ByteRegister@returnValue(COMRAM[1]), i2c_readDataBlock@d(COMRAM[4]), i2c_write2ByteRegister@data(COMRAM[2]), i2c_read2ByteRegister@result(COMRAM[2]), 
		 -> i2c_read1ByteRegister@d2(COMRAM[1]), i2c_write1ByteRegister@data(COMRAM[1]), NULL(NULL[0]), 

    S2770$0$0	PTR void  size(2) Largest target is 5
		 -> I2C1_ReadDataBlock@bufferBlock(COMRAM[4]), I2C1_Write2ByteRegister@data(COMRAM[2]), I2C1_Write1ByteRegister@data(COMRAM[1]), I2C1_Read2ByteRegister@returnValue(COMRAM[2]), 
		 -> I2C1_Read1ByteRegister@returnValue(COMRAM[1]), i2c_readDataBlock@d(COMRAM[4]), i2c_write2ByteRegister@data(COMRAM[2]), i2c_read2ByteRegister@result(COMRAM[2]), 
		 -> i2c_read1ByteRegister@d2(COMRAM[1]), i2c_write1ByteRegister@data(COMRAM[1]), NULL(NULL[0]), 

    USER_USB_CALLBACK_EVENT_HANDLER@pdata	PTR void  size(2) Largest target is 2047
		 -> RAM(DATA[2047]), USTATcopy(COMRAM[1]), USBActiveConfiguration(COMRAM[1]), BDT(BIGRAMl[48]), 
		 -> NULL(NULL[0]), 

    strlen@s	PTR const unsigned char  size(2) Largest target is 32
		 -> dbuf(BANK1[32]), 

    strlen@a	PTR const unsigned char  size(2) Largest target is 32
		 -> dbuf(BANK1[32]), 

    fputs@s	PTR const unsigned char  size(2) Largest target is 32
		 -> dbuf(BANK1[32]), 

    fputs@fp	PTR struct _IO_FILE size(2) Largest target is 11
		 -> sprintf@f(BANK0[11]), 

    fputc@fp...source	PTR const unsigned char  size(2) Largest target is 0

    fputc@fp...buffer	PTR unsigned char  size(2) Largest target is 0

    fputc@fp	PTR struct _IO_FILE size(2) Largest target is 11
		 -> sprintf@f(BANK0[11]), 

    vfprintf@ap	PTR PTR void  size(2) Largest target is 2
		 -> sprintf@ap(BANK0[2]), 

    vfprintf@fp	PTR struct _IO_FILE size(2) Largest target is 11
		 -> sprintf@f(BANK0[11]), 

    vfprintf@fmt	PTR const unsigned char  size(2) Largest target is 14
		 -> STR_1(CODE[14]), 

    vfprintf@cfmt	PTR unsigned char  size(2) Largest target is 14
		 -> STR_1(CODE[14]), 

    vfpfcnvrt@fp	PTR struct _IO_FILE size(2) Largest target is 11
		 -> sprintf@f(BANK0[11]), 

    vfpfcnvrt@ap	PTR PTR void  size(2) Largest target is 2
		 -> sprintf@ap(BANK0[2]), 

    vfpfcnvrt@fmt	PTR PTR unsigned char  size(2) Largest target is 2
		 -> vfprintf@cfmt(BANK0[2]), 

    dtoa@fp	PTR struct _IO_FILE size(2) Largest target is 11
		 -> sprintf@f(BANK0[11]), 

    pad@fp	PTR struct _IO_FILE size(2) Largest target is 11
		 -> sprintf@f(BANK0[11]), 

    pad@buf	PTR unsigned char  size(2) Largest target is 32
		 -> dbuf(BANK1[32]), 

    sprintf@fmt	PTR const unsigned char  size(2) Largest target is 14
		 -> STR_1(CODE[14]), 

    sprintf@s	PTR unsigned char  size(2) Largest target is 20
		 -> main@data2(BANK1[20]), 

    sprintf@ap	PTR void [1] size(2) Largest target is 2
		 -> ?_sprintf(BANK0[2]), 

    S4087$source	PTR const unsigned char  size(2) Largest target is 0

    f...source	PTR const unsigned char  size(2) Largest target is 0

    S4087$buffer	PTR unsigned char  size(2) Largest target is 0

    f...buffer	PTR unsigned char  size(2) Largest target is 0

    memset@dest	PTR void  size(2) Largest target is 48
		 -> USBAlternateInterface(COMRAM[2]), BDT(BIGRAMl[48]), UEP1(BITBIGSFRlhhllll[1]), 

    memset@s	PTR unsigned char  size(2) Largest target is 48
		 -> USBAlternateInterface(COMRAM[2]), BDT(BIGRAMl[48]), UEP1(BITBIGSFRlhhllll[1]), 

    memcpy@d1	PTR void  size(2) Largest target is 8
		 -> SetupPkt(BIGRAMhl[8]), 

    memcpy@d	PTR unsigned char  size(2) Largest target is 8
		 -> SetupPkt(BIGRAMhl[8]), 

    memcpy@s1	PTR const void  size(2) Largest target is 2047
		 -> CtrlTrfData(BIGRAMhl[8]), RAM(DATA[2047]), SetupPkt(BIGRAMhl[8]), 

    memcpy@s	PTR const unsigned char  size(2) Largest target is 2047
		 -> CtrlTrfData(BIGRAMhl[8]), RAM(DATA[2047]), SetupPkt(BIGRAMhl[8]), 

    S2770$data_ptr	PTR unsigned char  size(2) Largest target is 5
		 -> I2C1_ReadDataBlock@reg(COMRAM[1]), I2C1_ReadDataBlock@bufferBlock(COMRAM[4]), I2C1_Write2ByteRegister@reg(COMRAM[1]), I2C1_Write2ByteRegister@data(COMRAM[2]), 
		 -> I2C1_Write1ByteRegister@reg(COMRAM[1]), I2C1_Write1ByteRegister@data(COMRAM[1]), I2C1_Read2ByteRegister@reg(COMRAM[1]), I2C1_Read2ByteRegister@returnValue(COMRAM[2]), 
		 -> I2C1_Read1ByteRegister@reg(COMRAM[1]), I2C1_Read1ByteRegister@returnValue(COMRAM[1]), i2c_readDataBlock@reg(COMRAM[1]), i2c_readDataBlock@d(COMRAM[4]), 
		 -> i2c_write2ByteRegister@reg(COMRAM[1]), i2c_write2ByteRegister@data(COMRAM[2]), i2c_read2ByteRegister@reg(COMRAM[1]), i2c_read2ByteRegister@result(COMRAM[2]), 
		 -> i2c_read1ByteRegister@reg(COMRAM[1]), i2c_read1ByteRegister@d2(COMRAM[1]), i2c_write1ByteRegister@reg(COMRAM[1]), i2c_write1ByteRegister@data(COMRAM[1]), 
		 -> NULL(NULL[0]), 

    I2C1_Status.data_ptr	PTR unsigned char  size(2) Largest target is 5
		 -> i2c_write1ByteRegister@data.data(COMRAM[3]), i2c_read1ByteRegister@d2.data(COMRAM[3]), i2c_read2ByteRegister@result.data(COMRAM[3]), i2c_write2ByteRegister@data.data(COMRAM[3]), 
		 -> I2C1_Read1ByteRegister@returnValue.data(COMRAM[3]), I2C1_Read2ByteRegister@returnValue.data(COMRAM[3]), I2C1_Write1ByteRegister@data.data(COMRAM[3]), I2C1_Write2ByteRegister@data.data(COMRAM[3]), 
		 -> I2C1_ReadDataBlock@reg(COMRAM[1]), I2C1_ReadDataBlock@bufferBlock(COMRAM[4]), bufferBlock.data(COMRAM[3]), I2C1_Write2ByteRegister@reg(COMRAM[1]), 
		 -> I2C1_Write2ByteRegister@data(COMRAM[2]), I2C1_Write1ByteRegister@reg(COMRAM[1]), I2C1_Write1ByteRegister@data(COMRAM[1]), I2C1_Read2ByteRegister@reg(COMRAM[1]), 
		 -> I2C1_Read2ByteRegister@returnValue(COMRAM[2]), I2C1_Read1ByteRegister@reg(COMRAM[1]), I2C1_Read1ByteRegister@returnValue(COMRAM[1]), i2c_readDataBlock@reg(COMRAM[1]), 
		 -> i2c_readDataBlock@d(COMRAM[4]), d.data(COMRAM[3]), i2c_write2ByteRegister@reg(COMRAM[1]), i2c_write2ByteRegister@data(COMRAM[2]), 
		 -> i2c_read2ByteRegister@reg(COMRAM[1]), i2c_read2ByteRegister@result(COMRAM[2]), i2c_read1ByteRegister@reg(COMRAM[1]), i2c_read1ByteRegister@d2(COMRAM[1]), 
		 -> i2c_write1ByteRegister@reg(COMRAM[1]), i2c_write1ByteRegister@data(COMRAM[1]), NULL(NULL[0]), 

    S2770$callbackPayload	PTR void [6] size(2) Largest target is 5
		 -> I2C1_ReadDataBlock@bufferBlock(COMRAM[4]), I2C1_Write2ByteRegister@data(COMRAM[2]), I2C1_Write1ByteRegister@data(COMRAM[1]), I2C1_Read2ByteRegister@returnValue(COMRAM[2]), 
		 -> I2C1_Read1ByteRegister@returnValue(COMRAM[1]), i2c_readDataBlock@d(COMRAM[4]), i2c_write2ByteRegister@data(COMRAM[2]), i2c_read2ByteRegister@result(COMRAM[2]), 
		 -> i2c_read1ByteRegister@d2(COMRAM[1]), i2c_write1ByteRegister@data(COMRAM[1]), NULL(NULL[0]), 

    I2C1_Status.callbackPayload	PTR void [6] size(2) Largest target is 5
		 -> I2C1_ReadDataBlock@bufferBlock(COMRAM[4]), I2C1_Write2ByteRegister@data(COMRAM[2]), I2C1_Write1ByteRegister@data(COMRAM[1]), I2C1_Read2ByteRegister@returnValue(COMRAM[2]), 
		 -> I2C1_Read1ByteRegister@returnValue(COMRAM[1]), i2c_readDataBlock@d(COMRAM[4]), i2c_write2ByteRegister@data(COMRAM[2]), i2c_read2ByteRegister@result(COMRAM[2]), 
		 -> i2c_read1ByteRegister@d2(COMRAM[1]), i2c_write1ByteRegister@data(COMRAM[1]), NULL(NULL[0]), 

    S2770$callbackTable	PTR FTN(PTR void ,)enum E360[6] size(2) Largest target is 1
		 -> I2C1_CallbackReturnReset(), I2C1_CallbackReturnStop(), Absolute function(), rdBlkRegCompleteHandler@i2c1_master_example$F179(), 
		 -> wr2RegCompleteHandler@i2c1_master_example$F168(), wr1RegCompleteHandler@i2c1_master_example$F162(), rd2RegCompleteHandler@i2c1_master_example$F156(), rd1RegCompleteHandler@i2c1_master_example$F145(), 
		 -> rdBlkRegCompleteHandler(), wr2RegCompleteHandler(), rd2RegCompleteHandler(), rd1RegCompleteHandler(), 
		 -> wr1RegCompleteHandler(), 

    I2C1_Status.callbackTable	PTR FTN(PTR void ,)enum E360[6] size(2) Largest target is 1
		 -> I2C1_CallbackReturnReset(), I2C1_CallbackReturnStop(), Absolute function(), rdBlkRegCompleteHandler@i2c1_master_example$F179(), 
		 -> wr2RegCompleteHandler@i2c1_master_example$F168(), wr1RegCompleteHandler@i2c1_master_example$F162(), rd2RegCompleteHandler@i2c1_master_example$F156(), rd1RegCompleteHandler@i2c1_master_example$F145(), 
		 -> rdBlkRegCompleteHandler(), wr2RegCompleteHandler(), rd2RegCompleteHandler(), rd1RegCompleteHandler(), 
		 -> wr1RegCompleteHandler(), 

    i2c1_fsmStateTable	const PTR FTN()enum E5244[16] size(2) Largest target is 1
		 -> I2C1_DO_ADDRESS_NACK(), I2C1_DO_RESET(), I2C1_DO_RX_NACK_RESTART(), I2C1_DO_RX_NACK_STOP(), 
		 -> I2C1_DO_RX_ACK(), I2C1_DO_SEND_STOP(), I2C1_DO_SEND_RESTART(), I2C1_DO_SEND_RESTART_WRITE(), 
		 -> I2C1_DO_SEND_RESTART_READ(), I2C1_DO_TX_EMPTY(), I2C1_DO_RCEN(), I2C1_DO_RX(), 
		 -> I2C1_DO_TX(), I2C1_DO_SEND_ADR_WRITE(), I2C1_DO_SEND_ADR_READ(), I2C1_DO_IDLE(), 

    putsUSBUSART@data	PTR unsigned char  size(2) Largest target is 20
		 -> main@data2(BANK1[20]), 

    putsUSBUSART@pData	PTR unsigned char  size(2) Largest target is 20
		 -> main@data2(BANK1[20]), 

    CDCDataInHandle	PTR void  size(2) Largest target is 2047
		 -> RAM(DATA[2047]), BDT(BIGRAMl[48]), NULL(NULL[0]), 

    CDCDataOutHandle	PTR void  size(2) Largest target is 2047
		 -> RAM(DATA[2047]), BDT(BIGRAMl[48]), NULL(NULL[0]), 

    pCDCDst.wRom	PTR const unsigned short  size(2) Largest target is 0

    pCDCDst.bRom	PTR const unsigned char  size(2) Largest target is 0

    pCDCDst.wRam	PTR unsigned short  size(2) Largest target is 0

    pCDCDst.bRam	PTR unsigned char  size(2) Largest target is 0

    S1987_POINTER$wRom	PTR const unsigned short  size(2) Largest target is 0

    pCDCSrc.wRom	PTR const unsigned short  size(2) Largest target is 0

    S1987_POINTER$bRom	PTR const unsigned char  size(2) Largest target is 0

    pCDCSrc.bRom	PTR const unsigned char  size(2) Largest target is 0

    S1987_POINTER$wRam	PTR unsigned short  size(2) Largest target is 0

    pCDCSrc.wRam	PTR unsigned short  size(2) Largest target is 0

    S1987_POINTER$bRam	PTR unsigned char  size(2) Largest target is 0

    pCDCSrc.bRam	PTR unsigned char  size(2) Largest target is 0

    USBStdFeatureReqHandler@pUEP	PTR unsigned char  size(2) Largest target is 1
		 -> UEP0(BITBIGSFRlhl[1]), 

    USBStdFeatureReqHandler@p	PTR struct __BDT size(2) Largest target is 2047
		 -> RAM(DATA[2047]), BDT(BIGRAMl[48]), NULL(NULL[0]), 

    sp__memcpy	PTR void  size(2) Largest target is 8
		 -> SetupPkt(BIGRAMhl[8]), 

    USBStdGetStatusHandler@p	PTR struct __BDT size(2) Largest target is 2047
		 -> RAM(DATA[2047]), BDT(BIGRAMl[48]), NULL(NULL[0]), 

    pDst	PTR volatile unsigned char  size(2) Largest target is 8
		 -> CtrlTrfData(BIGRAMhl[8]), NULL(NULL[0]), 

    USBConfigureEndpoint@handle	PTR volatile struct __BDT size(2) Largest target is 48
		 -> BDT(BIGRAMl[48]), 

    pBDTEntryEP0OutCurrent	PTR volatile struct __BDT size(2) Largest target is 48
		 -> BDT(BIGRAMl[48]), NULL(NULL[0]), 

    pBDTEntryEP0OutNext	PTR volatile struct __BDT size(2) Largest target is 2047
		 -> RAM(DATA[2047]), BDT(BIGRAMl[48]), NULL(NULL[0]), 

    USBTransferOnePacket@data	PTR unsigned char  size(2) Largest target is 64
		 -> cdc_data_tx(BIGRAMhl[64]), cdc_data_rx(BIGRAMhh[64]), NULL(NULL[0]), 

    sp__USBTransferOnePacket	PTR void  size(2) Largest target is 2047
		 -> RAM(DATA[2047]), BDT(BIGRAMl[48]), NULL(NULL[0]), 

    USBTransferOnePacket@handle	PTR volatile struct __BDT size(2) Largest target is 2047
		 -> RAM(DATA[2047]), BDT(BIGRAMl[48]), NULL(NULL[0]), 

    USBEnableEndpoint@p	PTR unsigned char  size(2) Largest target is 1
		 -> UEP0(BITBIGSFRlhl[1]), 

    pBDTEntryOut	PTR volatile struct __BDT[3] size(2) Largest target is 2047
		 -> RAM(DATA[2047]), BDT(BIGRAMl[48]), NULL(NULL[0]), 

    pBDTEntryIn	PTR volatile struct __BDT[3] size(2) Largest target is 2047
		 -> RAM(DATA[2047]), BDT(BIGRAMl[48]), NULL(NULL[0]), 

    S396$pFunc	PTR FTN()void  size(2) Largest target is 0
		 -> NULL(NULL[0]), 

    outPipes.pFunc	PTR FTN()void  size(2) Largest target is 0
		 -> NULL(NULL[0]), 

    S386$wRam	PTR unsigned short  size(2) Largest target is 0

    outPipes.pDst.wRam	PTR unsigned short  size(2) Largest target is 0

    S386$bRam	PTR unsigned char  size(2) Largest target is 0

    outPipes.pDst.bRam	PTR unsigned char  size(2) Largest target is 0

    S362$wRom	PTR const unsigned short  size(2) Largest target is 0

    inPipes.pSrc.wRom	PTR const unsigned short  size(2) Largest target is 0

    S362$wRam	PTR unsigned short  size(2) Largest target is 0

    inPipes.pSrc.wRam	PTR unsigned short  size(2) Largest target is 0

    S362$bRom	PTR const unsigned char  size(2) Largest target is 0

    inPipes.pSrc.bRom	PTR const unsigned char  size(2) Largest target is 0

    S362$bRam	PTR unsigned char  size(2) Largest target is 0

    inPipes.pSrc.bRam	PTR unsigned char  size(2) Largest target is 0

    sp__memset	PTR void  size(2) Largest target is 48
		 -> USBAlternateInterface(COMRAM[2]), BDT(BIGRAMl[48]), UEP1(BITBIGSFRlhhllll[1]), 

    USB_SD_Ptr	const PTR const unsigned char [3] size(2) Largest target is 52
		 -> sd002(CODE[26]), sd001(CODE[52]), sd000(CODE[4]), 

    USB_CD_Ptr	const PTR const unsigned char [1] size(2) Largest target is 67
		 -> configDescriptor1(CODE[67]), 

    rdBlkRegCompleteHandler@i2c1_master_example$F179@ptr.data	PTR unsigned char  size(2) Largest target is 0

    bufferBlock.data	PTR unsigned char  size(2) Largest target is 0

    d.data	PTR unsigned char  size(2) Largest target is 0

    S76$data	PTR unsigned char  size(2) Largest target is 0

    rdBlkRegCompleteHandler@p.data	PTR unsigned char  size(2) Largest target is 0


Critical Paths under _main in COMRAM

    None.

Critical Paths under _INTERRUPT_InterruptManager in COMRAM

    _INTERRUPT_InterruptManager->_USBDeviceTasks
    _USBDeviceTasks->_USBCtrlEPService
    i2_USBDeviceInit->i2_memset
    _USBWakeFromSuspend->_USER_USB_CALLBACK_EVENT_HANDLER
    _USBSuspend->_USER_USB_CALLBACK_EVENT_HANDLER
    _USBCtrlTrfSetupHandler->_USBCheckStdRequest
    _USBCtrlEPAllowDataStage->_USBCtrlTrfTxService
    _USBCheckStdRequest->_USBStdFeatureReqHandler
    _USBStdSetCfgHandler->_USER_USB_CALLBACK_EVENT_HANDLER
    _USBStdFeatureReqHandler->_USER_USB_CALLBACK_EVENT_HANDLER
    _CDCInitEP->_USBEnableEndpoint
    _USBEnableEndpoint->_USBConfigureEndpoint
    _USBCtrlTrfOutHandler->_USBCtrlTrfRxService
    _USBCtrlTrfInHandler->_USBCtrlTrfTxService

Critical Paths under _main in BANK0

    _main->_sprintf
    _sprintf->_vfprintf
    _vfprintf->_vfpfcnvrt
    _vfpfcnvrt->_dtoa
    _dtoa->_pad
    _pad->_fputs
    _fputs->_fputc
    _abs->___aomod
    _SYSTEM_Initialize->_USBDeviceInit
    _USBDeviceInit->_memset
    _CDCTxService->_USBTransferOnePacket

Critical Paths under _INTERRUPT_InterruptManager in BANK0

    None.

Critical Paths under _main in BANK1

    None.

Critical Paths under _INTERRUPT_InterruptManager in BANK1

    None.

Critical Paths under _main in BANK2

    None.

Critical Paths under _INTERRUPT_InterruptManager in BANK2

    None.

Critical Paths under _main in BANK3

    None.

Critical Paths under _INTERRUPT_InterruptManager in BANK3

    None.

Critical Paths under _main in BANK4

    None.

Critical Paths under _INTERRUPT_InterruptManager in BANK4

    None.

Critical Paths under _main in BANK5

    None.

Critical Paths under _INTERRUPT_InterruptManager in BANK5

    None.

Critical Paths under _main in BANK6

    None.

Critical Paths under _INTERRUPT_InterruptManager in BANK6

    None.

Critical Paths under _main in BANK7

    None.

Critical Paths under _INTERRUPT_InterruptManager in BANK7

    None.

Call Graph Tables:

 ---------------------------------------------------------------------------------
 (Depth) Function   	        Calls       Base Space   Used Autos Params    Refs
 ---------------------------------------------------------------------------------
 (0) _main                                                23    23      0   13893
                                            106 BANK0      2     2      0
                                              0 BANK1     21    21      0
                       _CDCTxService
                  _SYSTEM_Initialize
                       _putsUSBUSART
                            _sprintf
 ---------------------------------------------------------------------------------
 (1) _sprintf                                             21    15      6    9075
                                             87 BANK0     19    13      6
                           _vfprintf
 ---------------------------------------------------------------------------------
 (2) _vfprintf                                             8     2      6    8561
                                             79 BANK0      8     2      6
                          _vfpfcnvrt
 ---------------------------------------------------------------------------------
 (3) _vfpfcnvrt                                           42    36      6    8046
                                             63 BANK0     16    10      6
                               _dtoa
                              _fputc
 ---------------------------------------------------------------------------------
 (4) _dtoa                                                36    26     10    6117
                                             27 BANK0     36    26     10
                            ___aodiv
                            ___aomod
                                _abs
                                _pad
 ---------------------------------------------------------------------------------
 (5) _pad                                                 11     5      6    3753
                                             16 BANK0     11     5      6
                              _fputc
                              _fputs
                             _strlen
 ---------------------------------------------------------------------------------
 (6) _strlen                                               4     2      2     234
                                              0 BANK0      4     2      2
 ---------------------------------------------------------------------------------
 (6) _fputs                                                7     3      4    1705
                                              9 BANK0      7     3      4
                              _fputc
 ---------------------------------------------------------------------------------
 (4) _fputc                                                9     5      4    1149
                                              0 BANK0      9     5      4
                              _putch
 ---------------------------------------------------------------------------------
 (5) _putch                                                1     1      0       0
 ---------------------------------------------------------------------------------
 (5) _abs                                                  4     2      2     197
                                             18 BANK0      4     2      2
                            ___aomod (ARG)
 ---------------------------------------------------------------------------------
 (5) ___aomod                                             18     2     16     641
                                              0 BANK0     18     2     16
 ---------------------------------------------------------------------------------
 (5) ___aodiv                                             26    10     16     653
                                              0 BANK0     26    10     16
 ---------------------------------------------------------------------------------
 (1) _putsUSBUSART                                         5     3      2     268
                                              0 BANK0      5     3      2
 ---------------------------------------------------------------------------------
 (1) _SYSTEM_Initialize                                    0     0      0    2241
               _INTERRUPT_Initialize
              _OSCILLATOR_Initialize
             _PIN_MANAGER_Initialize
                    _USBDeviceAttach
                      _USBDeviceInit
 ---------------------------------------------------------------------------------
 (2) _USBDeviceInit                                        1     1      0    2241
                                             12 BANK0      1     1      0
                             _memset
 ---------------------------------------------------------------------------------
 (3) _memset                                              12     6      6    1950
                                              0 BANK0     12     6      6
 ---------------------------------------------------------------------------------
 (2) _USBDeviceAttach                                      0     0      0       0
 ---------------------------------------------------------------------------------
 (2) _PIN_MANAGER_Initialize                               0     0      0       0
 ---------------------------------------------------------------------------------
 (2) _OSCILLATOR_Initialize                                0     0      0       0
 ---------------------------------------------------------------------------------
 (2) _INTERRUPT_Initialize                                 0     0      0       0
 ---------------------------------------------------------------------------------
 (1) _CDCTxService                                         2     2      0    2189
                                             11 BANK0      2     2      0
               _USBTransferOnePacket
 ---------------------------------------------------------------------------------
 (2) _USBTransferOnePacket                                11     7      4    1988
                                              0 BANK0     11     7      4
 ---------------------------------------------------------------------------------
 Estimated maximum stack depth 6
 ---------------------------------------------------------------------------------
 (Depth) Function   	        Calls       Base Space   Used Autos Params    Refs
 ---------------------------------------------------------------------------------
 (9) _INTERRUPT_InterruptManager                          12    12      0   30801
                                             31 COMRAM    12    12      0
                     _USBDeviceTasks
 ---------------------------------------------------------------------------------
 (10) _USBDeviceTasks                                      1     1      0   30801
                                             30 COMRAM     1     1      0
          _USBCtrlEPAllowStatusStage
                   _USBCtrlEPService
      _USBIncrement1msInternalTimers
                    _USBStallHandler
                         _USBSuspend
                 _USBWakeFromSuspend
    _USER_USB_CALLBACK_EVENT_HANDLER
                    i2_USBDeviceInit
 ---------------------------------------------------------------------------------
 (11) i2_USBDeviceInit                                     1     1      0    1233
                                             12 COMRAM     1     1      0
                           i2_memset
 ---------------------------------------------------------------------------------
 (11) _USBWakeFromSuspend                                  0     0      0    3879
    _USER_USB_CALLBACK_EVENT_HANDLER
 ---------------------------------------------------------------------------------
 (11) _USBSuspend                                          0     0      0    3879
    _USER_USB_CALLBACK_EVENT_HANDLER
 ---------------------------------------------------------------------------------
 (11) _USBStallHandler                                     1     1      0       0
                                              0 COMRAM     1     1      0
 ---------------------------------------------------------------------------------
 (11) _USBIncrement1msInternalTimers                       0     0      0       0
 ---------------------------------------------------------------------------------
 (11) _USBCtrlEPService                                    1     1      0   17885
                                             29 COMRAM     1     1      0
                _USBCtrlTrfInHandler
               _USBCtrlTrfOutHandler
             _USBCtrlTrfSetupHandler
                             _memcpy
 ---------------------------------------------------------------------------------
 (12) _memcpy                                             11     5      6     410
                                              0 COMRAM    11     5      6
 ---------------------------------------------------------------------------------
 (12) _USBCtrlTrfSetupHandler                              0     0      0   17246
                 _USBCheckStdRequest
           _USBCtrlEPServiceComplete
    _USER_USB_CALLBACK_EVENT_HANDLER
 ---------------------------------------------------------------------------------
 (13) _USBCtrlEPServiceComplete                            0     0      0      92
            _USBCtrlEPAllowDataStage
          _USBCtrlEPAllowStatusStage
 ---------------------------------------------------------------------------------
 (14) _USBCtrlEPAllowDataStage                             0     0      0      92
                _USBCtrlTrfTxService
 ---------------------------------------------------------------------------------
 (13) _USBCheckStdRequest                                  2     2      0   13275
                                             27 COMRAM     2     2      0
            _USBStdFeatureReqHandler
                _USBStdGetDscHandler
             _USBStdGetStatusHandler
                _USBStdSetCfgHandler
    _USER_USB_CALLBACK_EVENT_HANDLER
 ---------------------------------------------------------------------------------
 (14) _USBStdSetCfgHandler                                 1     1      0    5000
                                             20 COMRAM     1     1      0
    _USER_USB_CALLBACK_EVENT_HANDLER
                           i2_memset
 ---------------------------------------------------------------------------------
 (12) i2_memset                                           12     6      6    1031
                                              0 COMRAM    12     6      6
 ---------------------------------------------------------------------------------
 (14) _USBStdGetStatusHandler                              4     4      0      46
                                              0 COMRAM     4     4      0
 ---------------------------------------------------------------------------------
 (14) _USBStdGetDscHandler                                 2     2      0       0
                                              0 COMRAM     2     2      0
 ---------------------------------------------------------------------------------
 (14) _USBStdFeatureReqHandler                             7     7      0    4350
                                             20 COMRAM     7     7      0
    _USER_USB_CALLBACK_EVENT_HANDLER
 ---------------------------------------------------------------------------------
 (11) _USER_USB_CALLBACK_EVENT_HANDLER                     8     2      6    3879
                                             12 COMRAM     8     2      6
                          _CDCInitEP
                 _USBCheckCDCRequest
 ---------------------------------------------------------------------------------
 (12) _USBCheckCDCRequest                                  2     2      0       0
                                              0 COMRAM     2     2      0
 ---------------------------------------------------------------------------------
 (12) _CDCInitEP                                           0     0      0    1187
                  _USBEnableEndpoint
             i2_USBTransferOnePacket
 ---------------------------------------------------------------------------------
 (13) i2_USBTransferOnePacket                             11     7      4     454
                                              0 COMRAM    11     7      4
 ---------------------------------------------------------------------------------
 (13) _USBEnableEndpoint                                   4     3      1     733
                                              8 COMRAM     4     3      1
               _USBConfigureEndpoint
 ---------------------------------------------------------------------------------
 (14) _USBConfigureEndpoint                                8     7      1     400
                                              0 COMRAM     8     7      1
 ---------------------------------------------------------------------------------
 (12) _USBCtrlTrfOutHandler                                0     0      0     114
                _USBCtrlTrfRxService
 ---------------------------------------------------------------------------------
 (13) _USBCtrlTrfRxService                                 2     2      0     114
                                              0 COMRAM     2     2      0
          _USBCtrlEPAllowStatusStage
 ---------------------------------------------------------------------------------
 (14) _USBCtrlEPAllowStatusStage                           0     0      0       0
 ---------------------------------------------------------------------------------
 (12) _USBCtrlTrfInHandler                                 1     1      0     115
                                              1 COMRAM     1     1      0
                _USBCtrlTrfTxService
 ---------------------------------------------------------------------------------
 (15) _USBCtrlTrfTxService                                 1     1      0      92
                                              0 COMRAM     1     1      0
 ---------------------------------------------------------------------------------
 Estimated maximum stack depth 15
 ---------------------------------------------------------------------------------

 Call Graph Graphs:

 _main (ROOT)
   _CDCTxService
     _USBTransferOnePacket
   _SYSTEM_Initialize
     _INTERRUPT_Initialize
     _OSCILLATOR_Initialize
     _PIN_MANAGER_Initialize
     _USBDeviceAttach
     _USBDeviceInit
       _memset
   _putsUSBUSART
   _sprintf
     _vfprintf
       _vfpfcnvrt
         _dtoa
           ___aodiv
           ___aomod
           _abs
             ___aomod (ARG)
           _pad
             _fputc
               _putch
             _fputs
               _fputc
             _strlen
         _fputc

 _INTERRUPT_InterruptManager (ROOT)
   _USBDeviceTasks
     _USBCtrlEPAllowStatusStage
     _USBCtrlEPService
       _USBCtrlTrfInHandler
         _USBCtrlTrfTxService
       _USBCtrlTrfOutHandler
         _USBCtrlTrfRxService
           _USBCtrlEPAllowStatusStage
       _USBCtrlTrfSetupHandler
         _USBCheckStdRequest
           _USBStdFeatureReqHandler
             _USER_USB_CALLBACK_EVENT_HANDLER
               _CDCInitEP
                 _USBEnableEndpoint
                   _USBConfigureEndpoint
                 i2_USBTransferOnePacket
               _USBCheckCDCRequest
           _USBStdGetDscHandler
           _USBStdGetStatusHandler
           _USBStdSetCfgHandler
             _USER_USB_CALLBACK_EVENT_HANDLER
             i2_memset
           _USER_USB_CALLBACK_EVENT_HANDLER
         _USBCtrlEPServiceComplete
           _USBCtrlEPAllowDataStage
             _USBCtrlTrfTxService
           _USBCtrlEPAllowStatusStage
         _USER_USB_CALLBACK_EVENT_HANDLER
       _memcpy
     _USBIncrement1msInternalTimers
     _USBStallHandler
     _USBSuspend
       _USER_USB_CALLBACK_EVENT_HANDLER
     _USBWakeFromSuspend
       _USER_USB_CALLBACK_EVENT_HANDLER
     _USER_USB_CALLBACK_EVENT_HANDLER
     i2_USBDeviceInit
       i2_memset

 Address spaces:
Name               Size   Autos  Total    Cost      Usage
BIGRAMl            3FF      0       0      38        0.0%
BIGRAMhh           280      0       0      36        0.0%
EEDATA             100      0       0       0        0.0%
BITBANK7           100      0       0      18        0.0%
BANK7              100      0       0      19        0.0%
BITBANK6           100      0       0      16        0.0%
BANK6              100      0       0      17        0.0%
BITBANK3           100      0       0      10        0.0%
BANK3              100      0       0      11        0.0%
BITBANK2           100      0       0       8        0.0%
BANK2              100      0       0       9        0.0%
BITBANK1           100      0       0       6        0.0%
BANK1              100     15      76       7       46.1%
BIGRAMhl            C0      0       0      37        0.0%
BITBANK4            C0      0       0      12        0.0%
BANK4               C0      0       0      13        0.0%
BITBANK0            A0      0       0       4        0.0%
BANK0               A0     6C      96       5       93.8%
BITBANK5            80      0       0      14        0.0%
BANK5               80      0       0      15        0.0%
BITCOMRAM           5E      0       0       0        0.0%
COMRAM              5E     2B      54       1       89.4%
BITBIGSFRhhl        1D      0       0      21        0.0%
BITBIGSFRlhhlll     19      0       0      32        0.0%
BITBIGSFRhlhll       F      0       0      24        0.0%
BITBIGSFRhll         F      0       0      25        0.0%
BITBIGSFRhhh         D      0       0      20        0.0%
BITBIGSFRllllll      8      0       0      34        0.0%
BITBIGSFRhlhlh       6      0       0      23        0.0%
BITBIGSFRlhhlhh      4      0       0      29        0.0%
BITBIGSFRlhhlhl      4      0       0      30        0.0%
BITBIGSFRlhhlll      3      0       0      31        0.0%
BITBIGSFRlhhhlh      2      0       0      27        0.0%
BITBIGSFRlhl         2      0       0      33        0.0%
BITBIGSFRlhhhh       1      0       0      26        0.0%
BITBIGSFRhlhh        1      0       0      22        0.0%
BITBIGSFRlhhhll      1      0       0      28        0.0%
BIGSFR               0      0       0     200        0.0%
BITSFR_1             0      0       0     200        0.0%
SFR_1                0      0       0     200        0.0%
BITSFR               0      0       0     200        0.0%
SFR                  0      0       0     200        0.0%
STACK                0      0       0       2        0.0%
NULL                 0      0       0       0        0.0%
ABS                  0      0     160      35        0.0%
DATA                 0      0     160       3        0.0%
CODE                 0      0       0       0        0.0%


Microchip Technology PIC18 Macro Assembler V2.35 build 20211206165544 
Symbol Table                                                                                   Sat Aug 26 20:19:29 2023

                                      _USB_SD_Ptr 0821                                     _USBDeviceInit 1BEA  
                                    _putsUSBUSART 30C0              USER_USB_CALLBACK_EVENT_HANDLER@event 000D  
            USER_USB_CALLBACK_EVENT_HANDLER@pdata 000F                                               l410 340E  
                     __end_of_USBStdGetDscHandler 1A84                                               l407 33FC  
                                             l408 33FA                                               l352 1D34  
                                             l347 1C52                                               l710 312E  
                                             l730 13BE                                               l810 348E  
                                             l388 2106                                               l724 1496  
                                             l725 1348                                               l826 3596  
                                             l771 357C                                               _BDT 000400  
                                             l765 3592                                               l768 356E  
                                             _UIE 000F64                                               _UIR 000F65  
                                             _abs 338C                                               _pad 2B8A  
                                      _USBSuspend 3530                              USBStdSetCfgHandler@i 0015  
                                             prod 000FF3                                               wreg 000FE8  
                                  _USBDeviceTasks 0F20                                    _USBDeviceState 0050  
                            _I2C1_DO_RX_NACK_STOP 000000                             ??_USBCtrlTrfRxService 0001  
                        USBEnableEndpoint@options 0009                                              l2000 3598  
                                            ?_abs 0072                                              l2006 34C8  
                                            l1331 1BE8                                              l1318 1620  
                      USBConfigureEndpoint@handle 0007                                              l1930 2C52  
                                            l1925 2BD2                                              l7000 15CA  
                                            l1928 2C16                                              l1936 0CDC  
                                            l7002 15D0                                              l7010 1A84  
                                            l1938 0CE4                                              l1970 31F4  
                                            l1963 12FE                                              l7004 15E0  
                                            l7020 1ACA                                              l7012 1A8A  
                                            l1956 0F1E                                              l7100 0DAE  
                                            l1885 1798                                              l7006 1600  
                                            l7030 1B32                                              l7022 1AEA  
                                            l7014 1A98                                              l1974 33C4  
                                            l7110 0E58                                              l7102 0DB4  
                                            ?_pad 0070                                              l7040 1BA8  
                                            l7032 1B60                                              l7024 1B08  
                                            l7016 1AB8                                              l7120 0EBA  
                                            l7112 0E72                                              l7104 0DBA  
                                            l7200 12C6                                              l1977 33CC  
                                            l1969 31EC                                              l7210 1BEC  
                                            l7042 1BC8                                              l7034 1B80  
                                            l7026 1B10                                              l7018 1ABC  
                                            l7050 2BAE                                              l7122 0EC0  
                                            l7130 0EF6                                              l7114 0E8C  
                                            l7106 0E1E                                              l7202 12EC  
                                            l1898 32A6                                              l7300 205E  
                                            l7140 164E                                              l7220 1C22  
                                            l7212 1BF8                                              l7036 1B92  
                                            l7028 1B24                                              l7060 2BF8  
                                            l7052 2BBE                                              l7124 0ED2  
                                            l7108 0E3A                                              l7116 0E9A  
                                            l1989 2B88                                              l1997 338A  
                                            l7310 20FE                                              l7302 206A  
                                            l7150 16F6                                              l7134 1622  
                                            l7230 1C42                                              l7214 1C16  
                                            l7038 1B98                                              l7070 33A8  
                                            l7062 2C24                                              l7054 2BCA  
                                            l7046 2B8A                                              l7126 0EDE  
                                            l7118 0EAC                                              l7304 2076  
                                            l7400 13B6                                              l7320 33F4  
                                            l7160 177C                                              l7152 1722  
                                            l7144 1684                                              l7240 1C5E  
                                            l7232 1C54                                              l7216 1C1A  
                                            l7208 1BEA                                              l7064 2C38  
                                            l7056 2BDE                                              l7048 2B9A  
                                            l7128 0EE6                                              l7080 0CB4  
                                            l7072 0C3C                                              l7306 2086  
                                            l7410 13E8                                              l7402 13C2  
                                            l7330 346C                                              l7322 340A  
                                            l7314 33CE                                              l7162 1782  
                                            l7146 16DC                                              l7138 1642  
                                            l7242 1C62                                              l7234 1C58  
                                            l7226 1C28                                              l7218 1C1E  
                                            l7058 2BF2                                              l7090 0D0C  
                                            l7082 0CB6                                              l7074 0C5C  
                                            l7170 117A                                              l7308 20C4  
                                            l7420 141A                                              l7412 13FC  
                                            l7404 13D0                                              l7324 3594  
                                            l7332 3472                                              l7316 33DE  
                                            l7164 1786                                              l7156 173C  
                                            l7260 1CE4                                              l7244 1C66  
                                            l7236 1C5A                                              l7228 1C40  
                                            l7068 338C                                              l7092 0D12  
                                            l7084 0CD0                                              l7076 0C86  
                                            l7180 1220                                              l7172 118A  
                                            l7340 3194                                              l7422 142E  
                                            l7430 1448                                              l7414 1400  
                                            l7406 13D4                                              l7334 3474  
                                            l7326 3452                                              l7318 33F2  
                                            l7158 1770                                              l7270 1D0C  
                                            l7262 1CE6                                              l7254 1C94  
                                            l7246 1C6E                                              l7238 1C5C  
                                            l7350 30C2                                              l7094 0D1A  
                                            l7086 0CEC                                              l7078 0CA6  
                                            l7190 129E                                              l7174 1190  
                                            l7166 1148                                              l7342 319C  
                                            l7510 2C5C                                              l7432 1458  
                                            l7424 1432                                              l7416 1404  
                                            l7440 1494                                              l7336 348C  
                                            l7328 346A                                              l7280 1D2A  
                                            l7272 1D10                                              l7264 1CF6  
                                            l7256 1CC4                                              l7248 1C7C  
                                            l7360 30E8                                              l7352 30D2  
                                            l7096 0D24                                              l7088 0CFE  
                                            l7184 1258                                              l7176 11B4  
                                            l7168 116C                                              l7344 31A8  
                                            l7520 2CAE                                              l7512 2C60  
                                            l7504 2C54                                              l7290 2010  
                                            l7434 146A                                              l7426 1436  
                                            l7418 1406                                              l7338 355E  
                                            l7282 1D30                                              l7274 1D14  
                                            l7266 1CFE                                              l7258 1CD4  
                                            l7450 358E                                              l7442 357E  
                                            l7370 3124                                              l7354 30D8  
                                            l7098 0D2A                                              l7186 127C  
                                            l7194 12AC                                              l7178 11D8  
                                            l7346 31D0                                              l7522 2CBE  
                                            l7530 2D10                                              l7514 2C66  
                                            l7506 2C58                                              l7292 2022  
                                            l7284 1FCA                                              l7436 1472  
                                            l7428 1438                                              l7380 1316  
                                            l7276 1D16                                              l7268 1D02  
                                            l7444 3582                                              l7372 3128  
                                            l7364 30FC                                              l7356 30DE  
                                            l7348 30C0                                              l7196 12BA  
                                            l7188 128A                                              l7460 3294  
                                            l7452 3256                                              l7524 2CE4  
                                            l7516 2C6C                                              l7508 2C5A  
                                            l7286 1FDC                                              l7438 1476  
                                            l7390 135E                                              l7382 132C  
                                            l7278 1D1A                                              l7446 3586  
                                            l7374 312C                                              l7366 3118  
                                            l7358 30E6                                              l7454 3268  
                                            l7526 2CFE                                              l7518 2C86  
                                            l7296 202E                                              l7288 1FF8  
                                            l7392 1370                                              l7384 1332  
                                            l7376 1300                                              l7448 358A  
                                            l7368 3120                                              l7456 3270  
                                            l7528 2D02                                              l7298 2052  
                                            l7394 138E                                              l7386 1344  
                                            l7378 1302                                              l7458 3278  
                                            l7396 1396                                              l7388 1358  
                                            l6940 2AEE                                              l7398 13A6  
                                            l6942 2B0C                                              l6934 2ABE  
                                            l6950 3352                                              l6944 2B42  
                                            l6936 2AD2                                              l6952 3364  
                                            l6960 34A2                                              l6970 14AC  
                                            l6938 2AE4                                              l6954 336A  
                                            l6962 34BA                                              l6980 1502  
                                            l6972 14CC                                              l6948 3344  
                                            l6956 3490                                              l6990 1556  
                                            l6982 150E                                              l6974 14D0  
                                            l6966 1498                                              l6958 349C  
                                            l6992 1568                                              l6984 152C  
                                            l6976 14DE                                              l6968 149E  
                                            l6994 1596                                              l6986 1534  
                                            l6978 14FE                                              l6996 15B6  
                                            l6988 1548                                              l6998 15B8  
                                            STR_1 08D0                                              _LATA 000F89  
                                            _LATB 000F8A                                              _LATC 000F8B  
                                            _LATD 000F8C                                              _LATE 000F8D  
                                     main@counter 0175                                              u5300 338A  
                                            u5301 3386                                              u5310 34BA  
                                            u5311 34B6                                              u5320 14AC  
                                            u5400 1ACA                                              u5321 14A8  
                                            u5401 1AC6                                              u5330 14DE  
                                            u5410 1B08                                              u6050 2C9A  
                                            u5331 14DA                                              u5411 1B04  
                                            u6051 2C90                                              u6107 2C78  
                                            u5420 1B32                                              u5260 2AD2  
                                            u5500 0C6E                                              u5341 1508  
                                            u5421 1B2E                                              u5261 2ACE  
                                            u5501 0C68                                              u5350 152C  
                                            u5430 1B60                                              u5270 2AE4  
                                            u5510 0C70                                              u6070 2CBE  
                                            u5351 1528                                              u5431 1B5C  
                                            u5271 2AE0                                              u6071 2CBA  
                                            u5360 1556                                              u5440 1BA8  
                                            u5280 2B0C                                              u5600 0E8C  
                                            u5520 0C86                                              u6080 2CD0  
                                            u5361 1552                                              u5441 1BA4  
                                            u5281 2B08                                              u5601 0E88  
                                            u5521 0C82                                              u6081 2CC8  
                                            u5370 1596                                              u5290 2B42  
                                            u5450 2B9A                                              u5610 0E9A  
                                            u5530 0CB4                                              u5371 1592  
                                            u5291 2B3E                                              u5451 2B96  
                                            u5611 0E96                                              u5531 0CB0  
                                            u5380 15E0                                              u5460 2BBE  
                                            u5620 0EAC                                              u5540 0CD0  
                                            u5700 116C                                              u6068 2C9E  
                                            u5381 15DC                                              u5461 2BBA  
                                            u5621 0EA8                                              u5541 0CCC  
                                            u5701 1168                                              u5390 1A98  
                                            u5470 2C16                                              u5630 0EBA  
                                            u5550 0CFE                                              u5710 11B4  
                                            u5391 1A94                                              u5471 2C12  
                                            u5631 0EB6                                              u5551 0CFA  
                                            u5711 11B0                                              u5800 33DE  
                                            u5480 2C24                                              u5640 0ED2  
                                            u5560 0D0C                                              u5720 11D8  
                                            u5801 33DA                                              u5481 2C20  
                                            u5641 0ECE                                              u5561 0D08  
                                            u5721 11D4                                              u5810 340A  
                                            u5650 163E                                              u5490 33A8  
                                            u5570 0E3A                                              u5730 127C  
                                            u6098 2CD4                                              u5811 3406  
                                            u5651 163A                                              u5491 33A4  
                                            u5571 0E36                                              u5731 1278  
                                            u5900 1358                                              u5820 357C  
                                            u5660 1680                                              u5740 1C52  
                                            u5580 0E58                                              u5901 1354  
                                            u5821 3578                                              u5661 167C  
                                            u5741 1C4E                                              u5581 0E54  
                                            u5910 1370                                              u5670 16F2  
                                            u5750 1C7C                                              u5590 0E72  
                                            u5830 31EC                                              u5911 136C  
                                            u5671 16EE                                              u5751 1C78  
                                            u5591 0E6E                                              u5831 31E8  
                           ??_USBCtrlTrfTxService 0001                                              u5920 13A6  
                                            u5680 1738                                              u5760 1CF6  
                                            u5840 30D2                                              u5921 13A2  
                                            u5681 1734                                              u5761 1CF2  
                                            u5841 30CE                                              u5770 1FDC  
                                            u5930 13B6                                              u5690 1798  
                                            u5850 30F8                                              u5771 1FD8  
                                            u5931 13B2                                              u5691 1794  
                                            u5851 30F4                                              u5780 2022  
                                            u5940 13E4                                              u5860 3118  
                                            u5781 201E                                              u5941 13E0  
                                            u5861 3114                                              u5790 2086  
                                            u5950 1416                                              u5870 1316  
                                            u5791 2082                                              u5951 1412  
                                            u5871 1312                                              _UCFG 000F62  
                                            u5960 1448                                              u5880 132C  
                                            u5961 1444                                              u5881 1328  
                                            u5970 1458                                              u5890 1344  
                                            u5971 1454                                              u5891 1340  
                                            u5980 146A                                              _UEP0 000F6A  
                                            u5981 1466                                              _UEP1 000F6B  
                                            _UEIE 000F66                                              _UEIR 000F67  
                                            _UCON 000F60                                              _WPUB 000F85  
                                 _CDCDataInHandle 00F0            USBStdFeatureReqHandler@current_ep_data 0019  
                                            abs@a 0072                                              _pDst 003C  
                                            _dbuf 0132                                              _main 2C54  
                                            _dtoa 0C3C                          ??i2_USBTransferOnePacket 0005  
                                            _prec 00EC                                              _nout 0036  
                                            pad@i 0077                                              pad@p 0074  
                                            fsr0h 000FEA                                              fsr1h 000FE2  
                                            indf0 000FEF                                              fsr2h 000FDA  
                                            fsr0l 000FE9                                              indf1 000FE7  
                                     _BaudRateGen 012E                                              indf2 000FDF  
                                            fsr1l 000FE1                                              pad@w 0079  
                                            fsr2l 000FD9                                   _USBDeviceAttach 33CE  
                                            btemp 0055                                              prodh 000FF4  
                                            prodl 000FF3                                              start 009C  
                      __end_of_USBCheckStdRequest 24AE                            ??_USBCtrlTrfOutHandler 0003  
                                    ___param_bank 000000                         ??_USBStdFeatureReqHandler 0015  
                        ??_USBStdGetStatusHandler 0001                                             ??_abs 0074  
                                           ??_pad 0076                                    ?_USBDeviceInit 0001  
                   __end_of_OSCILLATOR_Initialize 357E                                   __end_of___aodiv 1622  
                                           ?_main 0001                                             ?_dtoa 007B  
                                 __end_of___aomod 1BEA                            __end_of_USBDeviceTasks 1148  
                       ?_USBCtrlEPServiceComplete 0001                                             i2l500 25F0  
                                           i2l414 29D2                                             i2l510 3254  
                                           i2l424 2E86                                             i2l432 21A4  
                                           i2l600 34FC                                             i2l352 1E80  
                                           i2l505 26CA                                             i2l513 355C  
                                           i2l418 29D2                                             i2l442 2248  
                                           i2l530 2FC2                                             i2l370 10AE  
                                           i2l347 1D9A                                             i2l508 3252  
                                           i2l429 2F32                                             i2l550 28DA  
                                           i2l470 1FC4                                             i2l382 3342  
                                           i2l358 0F80                                             i2l551 28E0  
                                           i2l543 28CA                                             i2l527 2DD2  
                                           i2l519 3450                                             i2l359 1146  
                                           i2l624 304A                                             i2l368 109C  
                                           i2l457 25BC                                             i2l537 30BE  
                                           i2l369 1144                                             i2l491 1A82  
                                           i2l555 24AC                                             i2l468 1FAE  
                                           i2l388 2386                                             i2l572 092A  
                                           i2l477 2ABC                                             i2l557 23A4  
                                           i2l670 27D6                                             i2l566 2400  
                                           i2l591 0B9C                                             i2l583 0AEE  
                                           i2l495 25CC                                             i2l498 26AC  
                                           i2l683 3192                                             i2l595 0C3A  
                                           i2l499 25E8                                             i2l835 0068  
                                           i2l677 274E                                             i2l679 2788  
                                           _UADDR 000F63                        __end_of_i2c1_fsmStateTable 0821  
                                    vfpfcnvrt@fmt 00A1                                             _TRISA 000F92  
                                           _TRISB 000F93                                             _TRISC 000F94  
                                           _TRISD 000F95                                             _TRISE 000F96  
                                           _USTAT 000F61                   __end_of_USBCtrlEPAllowDataStage 2E88  
                                           _sd000 08CC                                             _sd001 086C  
                                           _sd002 08A0                    ?_USBIncrement1msInternalTimers 0001  
                                           _flags 00EE                                             _fputc 2ABE  
                                           _fputs 3344                                             pad@fp 0070  
                                           _width 0038                                             _putch 3598  
                                           dtoa@d 007D                                             dtoa@i 009D  
                                           dtoa@n 0095                                             dtoa@p 008F  
                                           dtoa@s 0093                                             dtoa@w 0091  
                                           tablat 000FF5                                             plusw2 000FDB  
                               __end_of_CDCInitEP 3194                                             ttemp5 0056  
                                           ttemp6 0059                                             ttemp7 005D  
                                           status 000FD8                                             wtemp8 0056  
                                 __end_of_sprintf 32A8                                  __end_ofi2_memset 1910  
                                 __initialization 34FE                                      __end_of_main 2D1C  
                                    __end_of_dtoa 0F20                             _control_signal_bitmap 0042  
                     ?_INTERRUPT_InterruptManager 0001                                            ??_main 00CA  
                                          ??_dtoa 0085                                     __activetblptr 000002  
                                 ?_USBDeviceTasks 0001                                       ?_USBSuspend 0001  
                                    _cdc_mem_type 00F2                           __end_of_USBDeviceAttach 3410  
                                _CDCDataOutHandle 003A                                            ?_fputc 0060  
                                          _ACTCON 000FB5                                            ?_fputs 0069  
                                          _ANSELA 000F5B                                            ?_putch 0001  
                                          _ANSELB 000F5C                                            _ANSELC 000F5D  
                                          _ANSELD 000F5E                                            _ANSELE 000F5F  
                                          i2l5100 217C                                            i2l5110 21D0  
                                          i2l5102 2194                                            i2l5200 23E6  
                                          i2l5120 2200                                            i2l5112 21D4  
                                          i2l5104 21B4                                            i2l5210 241A  
                                          i2l5202 23F4                                            i2l5130 2234  
                                          i2l5122 2214                                            i2l5114 21E4  
                                          i2l5106 21C8                                            i2l5140 1EAE  
                                          i2l4500 2F02                                            i2l5204 23F6  
                                          i2l5124 2220                                            i2l5108 21CC  
                                          i2l5116 21EC                                            i2l5150 1EDC  
                                          i2l5142 1EB6                                            i2l5134 1E82  
                                          i2l4502 2F1A                                            i2l4510 3312  
                                          i2l5206 23FA                                            i2l5214 243A  
                                          i2l5126 222C                                            i2l5118 21F0  
                                          i2l5400 28AE                                            i2l5160 1F46  
                                          i2l5152 1EEE                                            i2l5144 1EBE  
                                          i2l5136 1E92                                            i2l4504 2F24  
                                          i2l4512 3320                                            i2l4520 225C  
                                          i2l5208 2404                                            i2l5128 2230  
                                          i2l5320 32C8                                            i2l1881 32F6  
                                          i2l5402 28BA                                            i2l5170 1FA2  
                                          i2l5162 1F56                                            i2l5154 1F00  
                                          i2l5146 1ED6                                            i2l5138 1EAA  
                                          i2l4514 332A                                            i2l4506 32FA  
                                          i2l4530 22AE                                            i2l4522 2278  
                                          i2l5090 213C                                            i2l5330 2F4C  
                                          i2l5322 32CC                                            i2l5404 28DA  
                                          i2l5172 1FAE                                            i2l5164 1F62  
                                          i2l5156 1F24                                            i2l5148 1EDA  
                                          i2l4516 3336                                            i2l4508 3308  
                                          i2l4540 2306                                            i2l4532 22D2  
                                          i2l4524 2290                                            i2l4620 2FC4  
                                          i2l4700 179A                                            i2l5092 2140  
                                          i2l5084 2108                                            i2l5340 2F86  
                                          i2l5332 2F58                                            i2l5324 32D8  
                                          i2l5316 32A8                                            i2l1885 190E  
                                          i2l5406 28DC                                            i2l5174 1FB0  
                                          i2l5158 1F3A                                            i2l5166 1F72  
                                          i2l4542 2344                                            i2l4534 22DE  
                                          i2l4526 22A2                                            i2l4518 224C  
                                          i2l4550 3152                                            i2l4622 2FC8  
                                          i2l4710 17FA                                            i2l5190 23CA  
                                          i2l5182 23A8                                            i2l5094 2144  
                                          i2l5086 211A                                            i2l5350 2FA2  
                                          i2l5342 2F8A                                            i2l5334 2F64  
                                          i2l5318 32BC                                            i2l5326 32DC  
                                          i2l4640 24B2                                            i2l5176 1FC0  
                                          i2l5168 1F96                                            i2l5360 307A  
                                          i2l4544 237E                                            i2l4536 22EA  
                                          i2l4552 315C                                            i2l4560 26CC  
                                          i2l4624 2FD0                                            i2l4712 1852  
                                          i2l4704 17B8                                            i2l4800 2A16  
                                          i2l5192 23CC                                            i2l5184 23B0  
                                          i2l5088 2128                                            i2l5096 214C  
                                          i2l5352 2FBE                                            i2l5344 2F92  
                                          i2l5336 2F70                                            i2l5328 2F34  
                                          i2l5600 2D64                                            i2l4650 24F6  
                                          i2l4642 24CA                                            i2l5370 27EA  
                                          i2l5362 309E                                            i2l5354 304C  
                                          i2l4490 2E8A                                            i2l4538 22F6  
                                          i2l4554 3166                                            i2l4570 2710  
                                          i2l4730 18FC                                            i2l4722 18B2  
                                          i2l4706 17C4                                            i2l4810 2A66  
                                          i2l4802 2A36                                            i2l5194 23D0  
                                          i2l5186 23B8                                            i2l5178 2388  
                                          i2l5098 2170                                            i2l5346 2F96  
                                          i2l5338 2F7A                                            i2l5610 2DCE  
                                          i2l5602 2D82                                            i2l4644 24CE  
                                          i2l4652 24FA                                            i2l5380 2826  
                                          i2l5372 27F4                                            i2l4740 291C  
                                          i2l4732 28E2                                            i2l5364 30AA  
                                          i2l5356 305E                                            i2l4492 2E92  
                                          i2l4556 3184                                            i2l4548 3130  
                                          i2l4580 2738                                            i2l4564 26E6  
                                          i2l4628 2FD8                                            i2l4900 090A  
                                          i2l4724 18E6                                            i2l4716 186C  
                                          i2l4820 2A94                                            i2l4812 2A70  
                                          i2l4804 2A38                                            i2l5196 23D6  
                                          i2l5188 23C0                                            i2l5348 2F9E  
                                          i2l5604 2DAA                                            i2l5700 1D9C  
                                          i2l4662 252C                                            i2l4670 2562  
                                          i2l4654 2502                                            i2l4646 24DE  
                                          i2l4638 24AE                                            i2l5390 2866  
                                          i2l5374 2806                                            i2l5382 282A  
                                          i2l4750 295E                                            i2l4742 292E  
                                          i2l4734 28F2                                            i2l5366 30BA  
                                          i2l5358 3066                                            i2l4494 2ECC  
                                          i2l4558 318E                                            i2l4590 276E  
                                          i2l4582 273E                                            i2l4574 2724  
                                          i2l4910 0962                                            i2l4902 091E  
                                          i2l4830 192E                                            i2l4726 18F2  
                                          i2l4718 1898                                            i2l4822 2A9C  
                                          i2l4814 2A78                                            i2l4806 2A48  
                                          i2l5198 23DE                                            i2l5606 2DB2  
                                          i2l5550 343A                                            i2l5542 3410  
                                          i2l5710 1DAC                                            i2l5702 1DA0  
                                          i2l4672 2576                                            i2l4664 2556  
                                          i2l4680 25AC                                            i2l4656 2512  
                                          i2l4648 24E6                                            i2l5392 2872  
                                          i2l5384 283A                                            i2l5376 280E  
                                          i2l5368 27D8                                            i2l4760 299E  
                                          i2l4752 296E                                            i2l4744 293A  
                                          i2l4736 2906                                            i2l4496 2ED6  
                                          i2l4592 2778                                            i2l4584 2748  
                                          i2l4576 272E                                            i2l4568 2700  
                                          i2l4920 09D8                                            i2l4912 0978  
                                          i2l4904 0926                                            i2l4840 19A2  
                                          i2l4832 1938                                            i2l4728 18F8  
                                          i2l4824 2AB8                                            i2l4816 2A80  
                                          i2l4808 2A64                                            i2l5608 2DBA  
                                          i2l5560 3534                                            i2l5552 343C  
                                          i2l5544 3416                                            i2l5712 1DB0  
                                          i2l5704 1DA2                                            i2l4674 25A0  
                                          i2l4666 255C                                            i2l4658 251A  
                                          i2l5394 2882                                            i2l5386 2850  
                                          i2l5378 281E                                            i2l4762 29AE  
                                          i2l4754 2982                                            i2l4746 294A  
                                          i2l4738 290A                                            i2l4498 2EE6  
                                          i2l4594 2780                                            i2l4586 2756  
                                          i2l4578 2736                                            i2l4930 0A36  
                                          i2l4922 09F6                                            i2l4914 098A  
                                          i2l4906 093A                                            i2l4850 1A3A  
                                          i2l4842 19D6                                            i2l4834 1944  
                                          i2l4826 1910                                            i2l4818 2A84  
                                          i2l4770 2DEE                                            i2l5570 34D6  
                                          i2l5562 3536                                            i2l5554 344A  
                                          i2l5546 3432                                            i2l5730 1E30  
                                          i2l5722 1DDE                                            i2l5714 1DB8  
                                          i2l5706 1DA4                                            i2l4676 25A6  
                                          i2l4668 2560                                            i2l5396 2892  
                                          i2l5388 2854                                            i2l4764 29C2  
                                          i2l4756 298E                                            i2l4748 295A  
                                          i2l4588 2768                                            i2l4940 0AAC  
                                          i2l4932 0A44                                            i2l4924 0A0E  
                                          i2l4916 099E                                            i2l4908 094E  
                                          i2l4852 1A44                                            i2l4844 19E0  
                                          i2l4836 1954                                            i2l4828 1924  
                                          i2l4780 2E54                                            i2l4772 2E12  
                                          i2l5572 34E8                                            i2l5580 3204  
                                          i2l5564 353C                                            i2l5556 3530  
                                          i2l5548 3434                                            i2l5740 1E5C  
                                          i2l5732 1E40                                            i2l5724 1E0E  
                                          i2l5716 1DC6                                            i2l5708 1DA6  
                                          i2l5900 1082                                            i2l6460 003A  
                                          i2l4678 25AA                                            i2l5398 289E  
                                          i2l4758 299A                                            i2l4598 2794  
                                          i2l4950 0B2A                                            i2l4942 0ABA  
                                          i2l4934 0A66                                            i2l4926 0A1C  
                                          i2l4918 09BC                                            i2l4846 19F0  
                                          i2l4838 1970                                            i2l4870 2604  
                                          i2l4862 25BE                                            i2l4790 29D8  
                                          i2l4782 2E58                                            i2l4774 2E1E  
                                          i2l4766 2DD4                                            i2l5590 2D1C  
                                          i2l5574 34EA                                            i2l5582 321E  
                                          i2l5566 3540                                            i2l5558 3532  
                                          i2l5750 1E7C                                            i2l5742 1E60  
                                          i2l5734 1E4A                                            i2l5726 1E1E  
                                          i2l5902 1086                                            i2l6462 0048  
                                          i2l4960 0B78                                            i2l4952 0B36  
                                          i2l4944 0AD6                                            i2l4936 0A84  
                                          i2l4928 0A2C                                            i2l4848 1A0C  
                                          i2l4856 1A4E                                            i2l4872 2626  
                                          i2l4792 2A10                                            i2l4784 2E6E  
                                          i2l4776 2E2E                                            i2l4768 2DDC  
                                          i2l5592 2D20                                            i2l5576 34FA  
                                          i2l5568 34CA                                            i2l5584 3238  
                                          i2l5744 1E62                                            i2l5736 1E4E  
                                          i2l5728 1E2E                                            i2l5680 1D44  
                                          i2l5920 10DA                                            i2l5912 10BC  
                                          i2l5904 1096                                            i2l5840 0F44  
                                          i2l5832 0F20                                            i2l6464 0056  
                                          i2l4970 0BEC                                            i2l4962 0B86  
                                          i2l4954 0B42                                            i2l4938 0A96  
                                          i2l4946 0B0A                                            i2l4874 2644  
                                          i2l4866 25D0                                            i2l4882 2678  
                                          i2l4794 2A12                                            i2l4786 2E7A  
                                          i2l4778 2E4C                                            i2l5594 2D36  
                                          i2l5586 3244                                            i2l5578 31F6  
                                          i2l5746 1E66                                            i2l5738 1E58  
                                          i2l5682 1D60                                            i2l5930 1132  
                                          i2l5922 10EE                                            i2l5914 10C0  
                                          i2l5906 10AA                                            i2l5850 0F6C  
                                          i2l5834 0F30                                            i2l5842 0F4A  
                                          i2l6466 0064                                            i2l4964 0BAC  
                                          i2l4972 0C0C                                            i2l4956 0B62  
                                          i2l4948 0B14                                            i2l4884 26BC  
                                          i2l4876 265A                                            i2l4868 25E0  
                                          i2l4788 29D4                                            i2l5596 2D52  
                                          i2l5588 3250                                            i2l5748 1E76  
                                          i2l5684 1D64                                            i2l5676 1D36  
                                          i2l5932 1134                                            i2l5924 10FE  
                                          i2l5916 10CA                                            i2l5860 0FA2  
                                          i2l5852 0F7A                                            i2l5844 0F58  
                                          i2l5836 0F3E                                            i2l4974 0C18  
                                          i2l4966 0BC8                                            i2l4958 0B6E  
                                          i2l4894 08E0                                            i2l4886 26C4  
                                          i2l4878 2670                                            i2l5598 2D5A  
                                          i2l5694 1D70                                            i2l5686 1D68  
                                          i2l5678 1D38                                            i2l5926 110E  
                                          i2l5918 10CC                                            i2l5870 0FC8  
                                          i2l5862 0FA6                                            i2l5854 0F8E  
                                          i2l5846 0F66                                            i2l5838 0F42  
                                          i2l4976 0C2E                                            i2l4968 0BE0  
                                          i2l4896 08F2                                            i2l4888 26C6  
                                          i2l5696 1D88                                            i2l5688 1D6C  
                                          i2l5928 1116                                            i2l5880 1006  
                                          i2l5872 0FD6                                            i2l5856 0F9C  
                                          i2l5864 0FA8                                            i2l5848 0F68  
                                          i2l4898 0906                                            i2l5698 1D8A  
                                          i2l5890 103A                                            i2l5882 1016  
                                          i2l5874 0FE4                                            i2l5866 0FB6  
                                          i2l5858 0FA0                                            i2l5892 1048  
                                          i2l5884 1018                                            i2l5876 1000  
                                          i2l5868 0FC4                                            i2l5894 104C  
                                          i2l5886 1028                                            i2l5878 1002  
                                          i2l7680 303C                                            i2l7672 244E  
                                          i2l5896 105A                                            i2l5888 102C  
                                          i2l7682 27A8                                            i2l7674 268E  
                                          i2l5898 1068                                            i2l7676 1A64  
                                          i2l7678 2FF6                                            _OSCCON 000FD3  
                                          _PLLRDY 007E97                                     CDCTxService@i 006B  
                        i2USBTransferOnePacket@ep 0009                                 ??i2_USBDeviceInit 000D  
                                _I2C1_DO_TX_EMPTY 000000                                 _shortPacketStatus 004F  
                                 USBDeviceTasks@i 001F                                      vfprintf@cfmt 00B5  
                     USBStdFeatureReqHandler@pUEP 0017                          USBTransferOnePacket@data 0061  
                      USBCtrlTrfInHandler@lastDTS 0002                                   ??_USBDeviceInit 006C  
                                       ??___aodiv 0070                                         ??___aomod 0070  
                               _USBEnableEndpoint 32F8                                            _memcpy 32A8  
                                          _memset 1622                                            clear_0 3504  
                                          clear_1 3510                                            clear_2 351C  
                                          isa$std 000001                                            pad@buf 0072  
                              ?_USBEnableEndpoint 0009                                            dtoa@fp 007B  
                                          _strlen 3490                             _I2C1_DO_SEND_ADR_READ 000000  
                                          fputc@c 0060                                            fputs@c 006D  
                                          fputs@i 006E                                            fputs@s 0069  
                                    _CDCTxService 1300                                      __mediumconst 0000  
                                          tblptrh 000FF7                                            tblptrl 000FF6  
                                          tblptru 000FF8                               ??_USBEnableEndpoint 000A  
                                          putch@c 0001                                  __end_of_vfprintf 31F6  
                                       ??_sprintf 00BD                                       _CtrlTrfData 000438  
                         _I2C1_DO_RX_NACK_RESTART 000000                              _controlTransferState 004E  
                               _SYSTEM_Initialize 357E                                        __accesstop 0060  
                         __end_of__initialization 3522                                ?_SYSTEM_Initialize 0001  
                                   ___rparam_used 000001                           _rdBlkRegCompleteHandler 000000  
                                  __pcstackCOMRAM 0001                         __end_of_USBEnableEndpoint 3344  
                                   __end_of_sd000 08D0                                     __end_of_sd001 08A0  
                                   __end_of_sd002 08BA                               ??_SYSTEM_Initialize 006D  
                                   __end_of_fputc 2B8A                                     __end_of_fputs 338C  
                                   __end_of_putch 359A                       __end_of_USBCtrlTrfInHandler 28E2  
                          i2_USBTransferOnePacket 224A                                        _cdc_notice 0124  
                                       ?i2_memset 0001                                        _cdc_rx_len 0044  
                                      _cdc_tx_len 00F3                          ??_USBCtrlTrfSetupHandler 001E  
                         _USBTicksSinceSuspendEnd 00F4                                  ?_USBDeviceAttach 0001  
                                         ??_fputc 0064                         __end_of_SYSTEM_Initialize 3594  
                                         ??_fputs 006D                            _USBStdGetStatusHandler 25BE  
                                         ??_putch 0060                                        __pbssBANK0 00CC  
                                      __pbssBANK1 0100                             _rd1RegCompleteHandler 000000  
                                     _pBDTEntryIn 00DA                  __end_of_USBCtrlEPServiceComplete 224A  
                               _I2C1_DO_SEND_STOP 000000                             _wr1RegCompleteHandler 000000  
                            USBCtrlTrfRxService@i 0001                                           ?_memcpy 0001  
                                         ?_memset 0060                                        _device_dsc 08BA  
                                _USBCtrlEPService 2D1C                                        _ep_data_in 00E9  
                                         ?_strlen 0060                       __end_of_USBCtrlTrfRxService 1FC6  
                              _USBCheckStdRequest 2388                                 _configDescriptor1 0829  
                                      ??i2_memset 0007                       __end_of_USBCtrlTrfTxService 25BE  
                             _USBStdSetCfgHandler 29D4                                           _OSCCON2 000FD2  
                                         _OSCTUNE 000F9B                                           _SSP1ADD 000FC8  
                                         _SSP1BUF 000FC9                               ?_USBCheckStdRequest 0001  
                                         _UIEbits 000F64                                           _UIRbits 000F65  
                                   _cdc_trf_state 0043                                _i2c1_fsmStateTable 0801  
                                 putsUSBUSART@len 0064    _rd1RegCompleteHandler@i2c1_master_example$F145 000000  
  _wr1RegCompleteHandler@i2c1_master_example$F162 000000    _rd2RegCompleteHandler@i2c1_master_example$F156 000000  
  _wr2RegCompleteHandler@i2c1_master_example$F168 000000  _rdBlkRegCompleteHandler@i2c1_master_example$F179 000000  
                                         _pCDCDst 0030                                           _pCDCSrc 0033  
                                         __Hparam 0000                   ??_USBIncrement1msInternalTimers 0001  
                            ?_USBStdSetCfgHandler 0001                                         _CDCInitEP 3130  
                                         __Lparam 0000                              ??_USBCheckStdRequest 001C  
                                         ___aodiv 1498                                           ___aomod 1A84  
                                ??_USBDeviceTasks 001F                                 ??_USBStallHandler 0001  
                                       ?_vfprintf 00AF                                      __psmallconst 0800  
                                         __pcinit 34FE                         __end_of_configDescriptor1 086C  
                                         __ramtop 0800                                           __ptext0 2C54  
                                         __ptext1 3256                                           __ptext2 3194  
                                         __ptext3 1148                                           __ptext4 0C3C  
                                         __ptext5 2B8A                                           __ptext6 3490  
                                         __ptext7 3344                                           __ptext8 2ABE  
                                         __ptext9 3598                                      i2memset@dest 0001  
                                         _inPipes 00D4                       _USBDeferOUTDataStagePackets 0045  
                           _OSCILLATOR_Initialize 355E                                      ??_USBSuspend 0015  
                        ??_PIN_MANAGER_Initialize 0060                                   i2_USBDeviceInit 1D36  
                                i2USBDeviceInit@i 000D                                __end_of_USB_CD_Ptr 0829  
                                         _sprintf 3256                              end_of_initialization 3522  
                              __end_of_USB_SD_Ptr 0827                                           memcpy@d 0007  
                                         memcpy@n 0005                                           memcpy@s 0009  
                             _pBDTEntryEP0OutNext 003E                                           fputc@fp 0062  
                                         memset@c 0062                                           memset@k 0068  
                                         memset@n 0064                                           memset@s 006A  
                                   __Lmediumconst 0000                                           fputs@fp 006B  
                                 _USB1msTickCount 002C                   _dummy_encapsulated_cmd_response 0152  
                          _I2C1_DO_SEND_ADR_WRITE 000000                          ?_USBStdFeatureReqHandler 0001  
                           ??_USBStdSetCfgHandler 0015                                        ?_CDCInitEP 0001  
                                     _I2C1_Status 0100                                __end_of_USBSuspend 355E  
                               __end_of_vfpfcnvrt 1300                           _USBCtrlEPAllowDataStage 2DD4  
                                         postdec2 000FDD                                           postinc0 000FEE  
                                         postinc1 000FE6                                           postinc2 000FDE  
                                      ??_vfprintf 00B5                          _USBCtrlEPServiceComplete 2108  
                      _I2C1_DO_SEND_RESTART_WRITE 000000                                           strlen@a 0062  
                                         strlen@s 0060                        _USBStatusStageEnabledFlag1 0048  
                      _USBStatusStageEnabledFlag2 0047                                USBEnableEndpoint@p 000A  
                              _BothEP0OutUOWNsSet 004B                         USBConfigureEndpoint@EPNum 0006  
                      ?_USBCtrlEPAllowStatusStage 0001               USER_USB_CALLBACK_EVENT_HANDLER@size 0011  
                                       _USTATcopy 0053                      __end_of_USBTransferOnePacket 2108  
                          _USBCtrlTrfSetupHandler 2F34                                 putsUSBUSART@pData 0062  
                    __end_of_INTERRUPT_Initialize 3598                           ?i2_USBTransferOnePacket 0001  
                           __end_of_USBDeviceInit 1D36             __end_of_USBIncrement1msInternalTimers 34FE  
                   _USBIncrement1msInternalTimers 34CA                                       vfpfcnvrt@ap 00A3  
                                     vfpfcnvrt@fp 009F                                       vfpfcnvrt@ll 00A7  
                                  _I2C1_DO_RX_ACK 000000                           __end_ofi2_USBDeviceInit 1E82  
                                   ?_putsUSBUSART 0060                                         i2memset@c 0003  
                                       i2memset@k 0009                                         i2memset@n 0005  
                                       i2memset@s 000B                                    __end_of_memcpy 32F8  
                          ?_OSCILLATOR_Initialize 0001                                    __end_of_memset 179A  
                               _USBBusIsSuspended 00F5                                    __end_of_strlen 34CA  
                             start_initialization 34FE                           ?_USBStdGetStatusHandler 0001  
                   USBCtrlTrfRxService@byteToRead 0002                                       __end_of_abs 33CE  
                                     __end_of_pad 2C54                                       _cdc_data_rx 000540  
                                     _cdc_data_tx 000500                      __end_of_USBConfigureEndpoint 2F34  
                 __end_of_USBStdFeatureReqHandler 0C3C                 __end_of_USBCtrlEPAllowStatusStage 29D4  
                        __end_of_USBCtrlEPService 2DD4                         ??_USBCtrlEPAllowDataStage 0002  
                                     ??_CDCInitEP 000D                                    USBDeviceInit@i 006C  
                          _pBDTEntryEP0OutCurrent 0040                                       vfprintf@fmt 00B1  
                         USBTransferOnePacket@dir 0060                           USBTransferOnePacket@len 0063  
                  __end_ofi2_USBTransferOnePacket 2388                               _USBStdGetDscHandler 1910  
                                        ??_memcpy 0007                                          ??_memset 0066  
                                  ??_putsUSBUSART 0062                                        memset@dest 0060  
                                        ??_strlen 0062                            _USBActiveConfiguration 0054  
                  __end_of_USBStdGetStatusHandler 26CC                                       __pbssCOMRAM 002C  
                            _I2C1_DO_SEND_RESTART 000000                                     __pcstackBANK0 0060  
                                   __pcstackBANK1 0161                                  ___aodiv@dividend 0060  
                            ?_USBStdGetDscHandler 0001                        __end_of_USBWakeFromSuspend 3452  
                                 _USBStallHandler 31F6                                      _pBDTEntryOut 00E0  
                      __end_of_USBCheckCDCRequest 27D8                             _rd2RegCompleteHandler 000000  
                          _PIN_MANAGER_Initialize 3452                             _wr2RegCompleteHandler 000000  
                                       _dtoa$4169 008D                                         __pintcode 0008  
                                        ?___aodiv 0060                                          ?___aomod 0060  
                                ___aodiv@quotient 0072                      ??_INTERRUPT_InterruptManager 0020  
                                ?i2_USBDeviceInit 0001                              _USBTransferOnePacket 1FC6  
                                     __smallconst 0800                      __end_of_USBCtrlTrfOutHandler 30C0  
                           ??_USBStdGetDscHandler 0001                                       _ep_data_out 00E6  
                                        ?_sprintf 00B7                     USBConfigureEndpoint@direction 0001  
                            _INTERRUPT_Initialize 3594                                          _LATDbits 000F8C  
                                      _I2C1_DO_RX 000000                                        _I2C1_DO_TX 000000  
                      ??_USBCtrlEPServiceComplete 0002                                          _PIE1bits 000F9D  
                                        _IPR3bits 000FA5                                          _PIE3bits 000FA3  
                                        i2u300_40 2A94                                          i2u300_41 2A90  
                                        i2u301_40 1924                                          i2u301_41 1920  
                                        i2u302_40 1954                                          i2u310_40 2670  
                                        i2u302_41 1950                                          i2u310_41 266C  
                                        i2u303_40 199E                                          i2u311_40 26BC  
                                        i2u311_41 26B8                                          i2u303_47 1994  
                                        i2u320_40 099E                                          i2u312_40 08F2  
                                        i2u304_40 19CE                                          i2u400_40 34E8  
                                        i2u320_41 099A                                          i2u312_41 08EE  
                                        i2u400_41 34E4                                          i2u304_47 19C4  
                                        i2u321_40 0A1C                                          i2u313_40 0906  
                                        i2u305_40 19F0                                          i2u401_40 34FA  
                                        i2u321_41 0A18                                          i2u313_41 0902  
                                        i2u305_41 19EC                                          i2u401_41 34F6  
                                        i2u322_40 0A44                                          i2u314_40 091E  
                                        i2u306_40 1A2C                                          i2u402_40 3204  
                                        i2u322_41 0A40                                          i2u314_41 091A  
                                        i2u402_41 3200                                          i2u306_47 1A22  
                                        i2u323_40 0A96                                          i2u315_40 093A  
                                        i2u307_40 25E0                                          i2u403_40 321E  
                                        i2u323_41 0A92                                          i2u315_41 0936  
                                        i2u307_41 25DC                                          i2u403_41 321A  
                                        i2u324_40 0AAC                                          i2u316_40 094E  
                                        i2u308_40 2604                                          i2u404_40 3238  
                                        i2u420_40 0F58                                          i2u324_41 0AA8  
                                        i2u316_41 094A                                          i2u308_41 2600  
                                        i2u404_41 3234                                          i2u420_41 0F54  
                                        i2u325_40 0ABA                                          i2u317_40 0962  
                                        i2u309_40 265A                                          i2u405_40 2D36  
                                        i2u421_40 0F66                                          i2u325_41 0AB6  
                                        i2u317_41 095E                                          i2u309_41 2656  
                                        i2u405_41 2D32                                          i2u421_41 0F62  
                                        i2u270_40 26E2                                          i2u326_40 0B2A  
                                        i2u318_40 0978                                          i2u350_40 213C  
                                        i2u406_40 2D82                                          i2u430_40 1028  
                                        i2u422_40 0F7A                                          i2u502_40 0048  
                                        i2u270_41 26DE                                          i2u326_41 0B26  
                                        i2u318_41 0974                                          i2u350_41 2138  
                                        i2u406_41 2D7E                                          i2u430_41 1024  
                                        i2u422_41 0F76                                          i2u502_41 0044  
                                        i2u271_40 26FC                                          i2u327_40 0B86  
                                        i2u319_40 098A                                          i2u351_40 21B4  
                                        i2u407_40 2DCE                                          i2u415_40 1D9A  
                                        i2u431_40 103A                                          i2u423_40 0F8E  
                                        i2u503_40 0056                                          i2u271_41 26F8  
                                        i2u327_41 0B82                                          i2u319_41 0986  
                                        i2u351_41 21B0                                          i2u407_41 2DCA  
                                        i2u415_41 1D96                                          i2u431_41 1036  
                                        i2u423_41 0F8A                                          i2u503_41 0052  
                                        i2u280_40 24F6                                          i2u264_40 2EE6  
                                        i2u272_40 2710                                          i2u328_40 0B9C  
                                        i2u360_40 23A0                                          i2u352_40 21C8  
                                        i2u416_40 1DC6                                          i2u440_40 1144  
                                        i2u432_40 1048                                          i2u424_40 0F9C  
                                        i2u504_40 0064                                          i2u280_41 24F2  
                                        i2u264_41 2EE2                                          i2u272_41 270C  
                                        i2u328_41 0B98                                          i2u360_41 239C  
                                        i2u352_41 21C4                                          i2u416_41 1DC2  
                                        i2u440_41 1140                                          i2u432_41 1044  
                                        i2u424_41 0F98                                          i2u504_41 0060  
                                        i2u281_40 2528                                          i2u265_40 3308  
                                        i2u273_40 2720                                          i2u329_40 0BAC  
                                        i2u353_40 21E4                                          i2u417_40 1E40  
                                        i2u433_40 105A                                          i2u425_40 0FB6  
                                        i2u281_41 2524                                          i2u265_41 3304  
                                        i2u273_41 271C                                          i2u329_41 0BA8  
                                        i2u353_41 21E0                                          i2u417_41 1E3C  
                                        i2u433_41 1056                                          i2u425_41 0FB2  
                                        _PIR1bits 000F9E                                          i2u282_40 2554  
                                        i2u266_40 3320                                          i2u290_40 1868  
                                        i2u354_40 2244                                          i2u434_40 1068  
                                        i2u426_40 0FC4                                          i2u418_40 0F30  
                                        i2u266_41 331C                                          i2u290_41 1864  
                                        i2u354_41 2240                                          i2u434_41 1064  
                                        i2u426_41 0FC0                                          i2u418_41 0F2C  
                                        i2u282_47 254A                                          i2u283_40 2572  
                                        i2u355_40 1EAA                                          i2u267_40 225C  
                                        i2u291_40 18AE                                          i2u435_40 1096  
                                        i2u427_40 0FD6                                          i2u419_40 0F3E  
                                        i2u283_41 256E                                          i2u355_41 1EA6  
                                        i2u267_41 2258                                          i2u291_41 18AA  
                                        i2u435_41 1092                                          i2u427_41 0FD2  
                                        i2u419_41 0F3A                                          _PIR2bits 000FA1  
                                        i2u284_40 259E                                          i2u356_40 1EEE  
                                        i2u268_40 22A2                                          i2u292_40 190E  
                                        i2u348_40 211A                                          i2u436_40 10AA  
                                        i2u428_40 0FE4                                          i2u356_41 1EEA  
                                        i2u268_41 229E                                          i2u292_41 190A  
                                        i2u348_41 2116                                          i2u436_41 10A6  
                                        i2u428_41 0FE0                                          i2u284_47 2594  
                                        i2u285_40 25BC                                          i2u293_40 28F2  
                                        i2u357_40 1F00                                          i2u269_40 2306  
                                        i2u349_40 2128                                          i2u381_40 32F6  
                                        i2u437_40 10BC                                          i2u429_40 1016  
                                        i2u285_41 25B8                                          i2u293_41 28EE  
                                        i2u357_41 1EFC                                          i2u269_41 2302  
                                        i2u349_41 2124                                          i2u381_41 32F2  
                                        i2u437_41 10B8                                          i2u429_41 1012  
                                        _PIR3bits 000FA4                                          i2u278_40 24CA  
                                        i2u294_40 2906                                          i2u358_40 1F3A  
                                        i2u382_40 305E                                          i2u438_40 10DA  
                                        i2u278_41 24C6                                          i2u294_41 2902  
                                        i2u358_41 1F36                                          i2u382_41 305A  
                                        i2u438_41 10D6                                          i2u279_40 24DE  
                                        i2u295_40 291C                                          i2u359_40 1FC0  
                                        i2u383_40 307A                                          i2u439_40 110E  
                                        i2u279_41 24DA                                          i2u295_41 2918  
                                        i2u359_41 1FBC                                          i2u383_41 3076  
                                        i2u439_41 110A                                          i2u384_40 2806  
                                        i2u296_40 295A                                          i2u288_40 17B4  
                                        i2u384_41 2802                                          i2u296_41 2956  
                                        i2u288_41 17B0                                          i2u385_40 281E  
                                        i2u289_40 17F6                                          i2u297_40 2DEE  
                                        i2u385_41 281A                                          i2u289_41 17F2  
                                        i2u297_41 2DEA                                          i2u386_40 283A  
                                        i2u298_40 2E4C                                          i2u386_41 2836  
                                        i2u298_41 2E48                                          i2u387_40 2866  
                                        i2u299_40 2A48                                          i2u387_41 2862  
                                        i2u299_41 2A44                                          i2u388_40 2892  
                                        i2u388_41 288E                                          i2u389_40 28DA  
                                        i2u389_41 28D6                                          i2u399_40 344A  
                                        i2u399_41 3446                                          _RCONbits 000FD0  
                                        _UEP0bits 000F6A                         _I2C1_DO_SEND_RESTART_READ 000000  
                      _USBDeferINDataStagePackets 0046                                          _SSP1CON1 000FC6  
                                        _SSP1CON2 000FC5                                          _SSP1STAT 000FC7  
                                        _UCONbits 000F60                              _USBConfigureEndpoint 2E88  
                                       _vfpfcnvrt 1148                             ?_USBTransferOnePacket 0060  
                                       main@data2 0161                                     ?_CDCTxService 0001  
                                    _RemoteWakeup 004D                                          i2_memset 179A  
                                putsUSBUSART@data 0060                                     _I2C1_DO_RESET 000000  
                         __end_of_USBStallHandler 3256                                       _INTCON2bits 000FF1  
                           ?_INTERRUPT_Initialize 0001                       ??_USBCtrlEPAllowStatusStage 0001  
                     __end_of_USBStdSetCfgHandler 2ABE                              __end_of_putsUSBUSART 3130  
                              __end_of_device_dsc 08CC                           ?_USBCtrlTrfSetupHandler 0001  
                         USBStdGetStatusHandler@p 0003                                          __Hrparam 0000  
                                       memcpy@tmp 000B                                        vfprintf@ap 00B3  
                                        __Lrparam 0000                                        vfprintf@fp 00AF  
                          USBTransferOnePacket@ep 0068                                          _SetupPkt 000430  
                         ??_OSCILLATOR_Initialize 0060                             ?_USBConfigureEndpoint 0001  
                               ??_USBDeviceAttach 0060                                        ?_vfpfcnvrt 009F  
                                 ___aodiv@divisor 0068                                   ___aodiv@counter 0070  
                                     _line_coding 015A                                    ??_CDCTxService 006B  
                                      sprintf@fmt 00B9                                          __ptext10 338C  
                                        __ptext11 1A84                                          __ptext20 3594  
                                        __ptext12 1498                                          __ptext21 1300  
                                        __ptext13 30C0                                          __ptext30 2D1C  
                                        __ptext22 1FC6                                          __ptext14 357E  
                                        __ptext31 32A8                                          __ptext15 1BEA  
                                        __ptext40 08E0                                          __ptext32 2F34  
                                        __ptext24 0F20                                          __ptext16 1622  
                                        __ptext41 2FC4                                          __ptext33 2108  
                                        __ptext25 1D36                                          __ptext17 33CE  
                                        __ptext50 27D8                                          __ptext42 26CC  
                                        __ptext34 2DD4                                          __ptext26 3410  
                                        __ptext18 3452                                          __ptext51 24AE  
                                        __ptext43 3130                                          __ptext35 2388  
                                        __ptext27 3530                                          __ptext19 355E  
                                        __ptext44 224A                                          __ptext36 29D4  
                                        __ptext28 31F6                                          __ptext45 32F8  
                                        __ptext37 179A                                          __ptext29 34CA  
                                        __ptext46 2E88                                          __ptext38 25BE  
                                        __ptext47 304C                                          __ptext39 1910  
                                        __ptext48 1E82                                          __ptext49 28E2  
                                    _SSP1CON1bits 000FC6                                      _SSP1CON2bits 000FC5  
                        _I2C1_CallbackReturnReset 000000                    __end_of_USBCtrlTrfSetupHandler 2FC4  
                               ?_USBCtrlEPService 0001                                ??_USBCtrlEPService 001E  
                             _USBCtrlTrfInHandler 27D8                                          isa$xinst 000000  
                                        _outPipes 00CC                              _USBCtrlTrfOutHandler 304C  
                                        int$flags 0055                         _USBCtrlEPAllowStatusStage 28E2  
                                        _vfprintf 3194                __end_of_INTERRUPT_InterruptManager 009C  
                      _INTERRUPT_InterruptManager 0008                                      _SSP1STATbits 000FC7  
                          ??_USBTransferOnePacket 0064                                      _I2C1_DO_IDLE 000000  
                                    _I2C1_DO_RCEN 000000                                  ___aomod@dividend 0060  
                       _USBDeferStatusStagePacket 0049                          CDCTxService@byte_to_send 006C  
                                      _INTCONbits 000FF2                              ?_USBCtrlTrfInHandler 0001  
                                        memcpy@d1 0001                                          memcpy@s1 0003  
                   USBCtrlTrfTxService@byteToSend 0001                            ??_INTERRUPT_Initialize 0060  
                                ?_USBStallHandler 0001                          USBStdFeatureReqHandler@p 001A  
                                        intlevel2 0000                                         sprintf@ap 00BD  
         __end_of_USER_USB_CALLBACK_EVENT_HANDLER 304C                 ??_USER_USB_CALLBACK_EVENT_HANDLER 0013  
                ?_USER_USB_CALLBACK_EVENT_HANDLER 000D                   _USER_USB_CALLBACK_EVENT_HANDLER 2FC4  
                    i2USBTransferOnePacket@handle 000A                           ?_PIN_MANAGER_Initialize 0001  
                         _I2C1_CallbackReturnStop 000000                              _I2C1_DO_ADDRESS_NACK 000000  
                      i2USBTransferOnePacket@data 0002                            ??_USBConfigureEndpoint 0002  
                           ?_USBCtrlTrfOutHandler 0001                               _USBCtrlTrfRxService 1E82  
                              _USBWakeFromSuspend 3410                                   ___aomod@divisor 0068  
                         _USBStdFeatureReqHandler 08E0                                       ??_vfpfcnvrt 00A5  
                                 ___aomod@counter 0070                                _USBCheckCDCRequest 26CC  
                             _USBCtrlTrfTxService 24AE                                          sprintf@f 00BF  
                                        sprintf@s 00B7                               ?_USBWakeFromSuspend 0001  
                           ??_USBCtrlTrfInHandler 0002                             _USBAlternateInterface 0051  
                             ?_USBCheckCDCRequest 0001                         i2USBTransferOnePacket@dir 0001  
                       i2USBTransferOnePacket@len 0004                               USBEnableEndpoint@ep 000C  
                                 _endpoint_number 004C                              ?_USBCtrlTrfRxService 0001  
                                    ___aodiv@sign 0071                    __end_of_PIN_MANAGER_Initialize 3490  
                        ?_USBCtrlEPAllowDataStage 0001                              ?_USBCtrlTrfTxService 0001  
                    _USBStatusStageTimeoutCounter 004A                              ??_USBWakeFromSuspend 0015  
                      USBTransferOnePacket@handle 0069                              __end_of_CDCTxService 1498  
                                    ___aomod@sign 0071                              ??_USBCheckCDCRequest 0001  
                                      _USB_CD_Ptr 0827  
